
clock.elf:     file format elf32-littlearm

Sections:
Idx Name          Size      VMA       LMA       File off  Algn
  0 .isr_vector   00000194  08000000  08000000  00001000  2**0
                  CONTENTS, ALLOC, LOAD, READONLY, DATA
  1 .text         000058c8  080001a0  080001a0  000011a0  2**4
                  CONTENTS, ALLOC, LOAD, READONLY, CODE
  2 .rodata       00000cd0  08005a68  08005a68  00006a68  2**2
                  CONTENTS, ALLOC, LOAD, READONLY, DATA
  3 .ARM.extab    00000000  08006738  08006738  000080c4  2**0
                  CONTENTS
  4 .ARM          00000008  08006738  08006738  00007738  2**2
                  CONTENTS, ALLOC, LOAD, READONLY, DATA
  5 .preinit_array 00000000  08006740  08006740  000080c4  2**0
                  CONTENTS, ALLOC, LOAD, DATA
  6 .init_array   00000004  08006740  08006740  00007740  2**2
                  CONTENTS, ALLOC, LOAD, READONLY, DATA
  7 .fini_array   00000004  08006744  08006744  00007744  2**2
                  CONTENTS, ALLOC, LOAD, READONLY, DATA
  8 .data         000000c4  20000000  08006748  00008000  2**2
                  CONTENTS, ALLOC, LOAD, DATA
  9 .bss          00001608  200000c4  0800680c  000080c4  2**2
                  ALLOC
 10 ._user_heap_stack 00000604  200016cc  0800680c  000086cc  2**0
                  ALLOC
 11 .ARM.attributes 00000030  00000000  00000000  000080c4  2**0
                  CONTENTS, READONLY
 12 .debug_info   00016f1c  00000000  00000000  000080f4  2**0
                  CONTENTS, READONLY, DEBUGGING, OCTETS
 13 .debug_abbrev 000039f4  00000000  00000000  0001f010  2**0
                  CONTENTS, READONLY, DEBUGGING, OCTETS
 14 .debug_aranges 00000fe0  00000000  00000000  00022a08  2**3
                  CONTENTS, READONLY, DEBUGGING, OCTETS
 15 .debug_rnglists 00000b7c  00000000  00000000  000239e8  2**0
                  CONTENTS, READONLY, DEBUGGING, OCTETS
 16 .debug_macro  0000dcfa  00000000  00000000  00024564  2**0
                  CONTENTS, READONLY, DEBUGGING, OCTETS
 17 .debug_line   000108f4  00000000  00000000  0003225e  2**0
                  CONTENTS, READONLY, DEBUGGING, OCTETS
 18 .debug_str    0004ed54  00000000  00000000  00042b52  2**0
                  CONTENTS, READONLY, DEBUGGING, OCTETS
 19 .comment      00000043  00000000  00000000  000918a6  2**0
                  CONTENTS, READONLY
 20 .debug_frame  000043f8  00000000  00000000  000918ec  2**2
                  CONTENTS, READONLY, DEBUGGING, OCTETS
 21 .debug_line_str 0000005f  00000000  00000000  00095ce4  2**0
                  CONTENTS, READONLY, DEBUGGING, OCTETS

Disassembly of section .text:

080001a0 <__do_global_dtors_aux>:
 80001a0:	b510      	push	{r4, lr}
 80001a2:	4c05      	ldr	r4, [pc, #20]	@ (80001b8 <__do_global_dtors_aux+0x18>)
 80001a4:	7823      	ldrb	r3, [r4, #0]
 80001a6:	b933      	cbnz	r3, 80001b6 <__do_global_dtors_aux+0x16>
 80001a8:	4b04      	ldr	r3, [pc, #16]	@ (80001bc <__do_global_dtors_aux+0x1c>)
 80001aa:	b113      	cbz	r3, 80001b2 <__do_global_dtors_aux+0x12>
 80001ac:	4804      	ldr	r0, [pc, #16]	@ (80001c0 <__do_global_dtors_aux+0x20>)
 80001ae:	f3af 8000 	nop.w
 80001b2:	2301      	movs	r3, #1
 80001b4:	7023      	strb	r3, [r4, #0]
 80001b6:	bd10      	pop	{r4, pc}
 80001b8:	200000c4 	.word	0x200000c4
 80001bc:	00000000 	.word	0x00000000
 80001c0:	08005a50 	.word	0x08005a50

080001c4 <frame_dummy>:
 80001c4:	b508      	push	{r3, lr}
 80001c6:	4b03      	ldr	r3, [pc, #12]	@ (80001d4 <frame_dummy+0x10>)
 80001c8:	b11b      	cbz	r3, 80001d2 <frame_dummy+0xe>
 80001ca:	4903      	ldr	r1, [pc, #12]	@ (80001d8 <frame_dummy+0x14>)
 80001cc:	4803      	ldr	r0, [pc, #12]	@ (80001dc <frame_dummy+0x18>)
 80001ce:	f3af 8000 	nop.w
 80001d2:	bd08      	pop	{r3, pc}
 80001d4:	00000000 	.word	0x00000000
 80001d8:	200000c8 	.word	0x200000c8
 80001dc:	08005a50 	.word	0x08005a50

080001e0 <memchr>:
 80001e0:	f001 01ff 	and.w	r1, r1, #255	@ 0xff
 80001e4:	2a10      	cmp	r2, #16
 80001e6:	db2b      	blt.n	8000240 <memchr+0x60>
 80001e8:	f010 0f07 	tst.w	r0, #7
 80001ec:	d008      	beq.n	8000200 <memchr+0x20>
 80001ee:	f810 3b01 	ldrb.w	r3, [r0], #1
 80001f2:	3a01      	subs	r2, #1
 80001f4:	428b      	cmp	r3, r1
 80001f6:	d02d      	beq.n	8000254 <memchr+0x74>
 80001f8:	f010 0f07 	tst.w	r0, #7
 80001fc:	b342      	cbz	r2, 8000250 <memchr+0x70>
 80001fe:	d1f6      	bne.n	80001ee <memchr+0xe>
 8000200:	b4f0      	push	{r4, r5, r6, r7}
 8000202:	ea41 2101 	orr.w	r1, r1, r1, lsl #8
 8000206:	ea41 4101 	orr.w	r1, r1, r1, lsl #16
 800020a:	f022 0407 	bic.w	r4, r2, #7
 800020e:	f07f 0700 	mvns.w	r7, #0
 8000212:	2300      	movs	r3, #0
 8000214:	e8f0 5602 	ldrd	r5, r6, [r0], #8
 8000218:	3c08      	subs	r4, #8
 800021a:	ea85 0501 	eor.w	r5, r5, r1
 800021e:	ea86 0601 	eor.w	r6, r6, r1
 8000222:	fa85 f547 	uadd8	r5, r5, r7
 8000226:	faa3 f587 	sel	r5, r3, r7
 800022a:	fa86 f647 	uadd8	r6, r6, r7
 800022e:	faa5 f687 	sel	r6, r5, r7
 8000232:	b98e      	cbnz	r6, 8000258 <memchr+0x78>
 8000234:	d1ee      	bne.n	8000214 <memchr+0x34>
 8000236:	bcf0      	pop	{r4, r5, r6, r7}
 8000238:	f001 01ff 	and.w	r1, r1, #255	@ 0xff
 800023c:	f002 0207 	and.w	r2, r2, #7
 8000240:	b132      	cbz	r2, 8000250 <memchr+0x70>
 8000242:	f810 3b01 	ldrb.w	r3, [r0], #1
 8000246:	3a01      	subs	r2, #1
 8000248:	ea83 0301 	eor.w	r3, r3, r1
 800024c:	b113      	cbz	r3, 8000254 <memchr+0x74>
 800024e:	d1f8      	bne.n	8000242 <memchr+0x62>
 8000250:	2000      	movs	r0, #0
 8000252:	4770      	bx	lr
 8000254:	3801      	subs	r0, #1
 8000256:	4770      	bx	lr
 8000258:	2d00      	cmp	r5, #0
 800025a:	bf06      	itte	eq
 800025c:	4635      	moveq	r5, r6
 800025e:	3803      	subeq	r0, #3
 8000260:	3807      	subne	r0, #7
 8000262:	f015 0f01 	tst.w	r5, #1
 8000266:	d107      	bne.n	8000278 <memchr+0x98>
 8000268:	3001      	adds	r0, #1
 800026a:	f415 7f80 	tst.w	r5, #256	@ 0x100
 800026e:	bf02      	ittt	eq
 8000270:	3001      	addeq	r0, #1
 8000272:	f415 3fc0 	tsteq.w	r5, #98304	@ 0x18000
 8000276:	3001      	addeq	r0, #1
 8000278:	bcf0      	pop	{r4, r5, r6, r7}
 800027a:	3801      	subs	r0, #1
 800027c:	4770      	bx	lr
 800027e:	bf00      	nop

08000280 <SystemInit>:
  *         SystemFrequency variable.
  * @param  None
  * @retval None
  */
void SystemInit(void)
{
 8000280:	b580      	push	{r7, lr}
 8000282:	af00      	add	r7, sp, #0
  /* FPU settings ------------------------------------------------------------*/
  #if (__FPU_PRESENT == 1) && (__FPU_USED == 1)
    SCB->CPACR |= ((3UL << 10*2)|(3UL << 11*2));  /* set CP10 and CP11 Full Access */
 8000284:	4b16      	ldr	r3, [pc, #88]	@ (80002e0 <SystemInit+0x60>)
 8000286:	f8d3 3088 	ldr.w	r3, [r3, #136]	@ 0x88
 800028a:	4a15      	ldr	r2, [pc, #84]	@ (80002e0 <SystemInit+0x60>)
 800028c:	f443 0370 	orr.w	r3, r3, #15728640	@ 0xf00000
 8000290:	f8c2 3088 	str.w	r3, [r2, #136]	@ 0x88
  #endif
  /* Reset the RCC clock configuration to the default reset state ------------*/
  /* Set HSION bit */
  RCC->CR |= (uint32_t)0x00000001;
 8000294:	4b13      	ldr	r3, [pc, #76]	@ (80002e4 <SystemInit+0x64>)
 8000296:	681b      	ldr	r3, [r3, #0]
 8000298:	4a12      	ldr	r2, [pc, #72]	@ (80002e4 <SystemInit+0x64>)
 800029a:	f043 0301 	orr.w	r3, r3, #1
 800029e:	6013      	str	r3, [r2, #0]

  /* Reset CFGR register */
  RCC->CFGR = 0x00000000;
 80002a0:	4b10      	ldr	r3, [pc, #64]	@ (80002e4 <SystemInit+0x64>)
 80002a2:	2200      	movs	r2, #0
 80002a4:	609a      	str	r2, [r3, #8]

  /* Reset HSEON, CSSON and PLLON bits */
  RCC->CR &= (uint32_t)0xFEF6FFFF;
 80002a6:	4b0f      	ldr	r3, [pc, #60]	@ (80002e4 <SystemInit+0x64>)
 80002a8:	681b      	ldr	r3, [r3, #0]
 80002aa:	4a0e      	ldr	r2, [pc, #56]	@ (80002e4 <SystemInit+0x64>)
 80002ac:	f023 7384 	bic.w	r3, r3, #17301504	@ 0x1080000
 80002b0:	f423 3380 	bic.w	r3, r3, #65536	@ 0x10000
 80002b4:	6013      	str	r3, [r2, #0]

  /* Reset PLLCFGR register */
  RCC->PLLCFGR = 0x24003010;
 80002b6:	4b0b      	ldr	r3, [pc, #44]	@ (80002e4 <SystemInit+0x64>)
 80002b8:	4a0b      	ldr	r2, [pc, #44]	@ (80002e8 <SystemInit+0x68>)
 80002ba:	605a      	str	r2, [r3, #4]

  /* Reset HSEBYP bit */
  RCC->CR &= (uint32_t)0xFFFBFFFF;
 80002bc:	4b09      	ldr	r3, [pc, #36]	@ (80002e4 <SystemInit+0x64>)
 80002be:	681b      	ldr	r3, [r3, #0]
 80002c0:	4a08      	ldr	r2, [pc, #32]	@ (80002e4 <SystemInit+0x64>)
 80002c2:	f423 2380 	bic.w	r3, r3, #262144	@ 0x40000
 80002c6:	6013      	str	r3, [r2, #0]

  /* Disable all interrupts */
  RCC->CIR = 0x00000000;
 80002c8:	4b06      	ldr	r3, [pc, #24]	@ (80002e4 <SystemInit+0x64>)
 80002ca:	2200      	movs	r2, #0
 80002cc:	60da      	str	r2, [r3, #12]
  SystemInit_ExtMemCtl(); 
#endif /* DATA_IN_ExtSRAM */
         
  /* Configure the System clock source, PLL Multiplier and Divider factors, 
     AHB/APBx prescalers and Flash settings ----------------------------------*/
  SetSysClock();
 80002ce:	f000 f88f 	bl	80003f0 <SetSysClock>

  /* Configure the Vector Table location add offset address ------------------*/
#ifdef VECT_TAB_SRAM
  SCB->VTOR = SRAM_BASE | VECT_TAB_OFFSET; /* Vector Table Relocation in Internal SRAM */
#else
  SCB->VTOR = FLASH_BASE | VECT_TAB_OFFSET; /* Vector Table Relocation in Internal FLASH */
 80002d2:	4b03      	ldr	r3, [pc, #12]	@ (80002e0 <SystemInit+0x60>)
 80002d4:	f04f 6200 	mov.w	r2, #134217728	@ 0x8000000
 80002d8:	609a      	str	r2, [r3, #8]
#endif
}
 80002da:	bf00      	nop
 80002dc:	bd80      	pop	{r7, pc}
 80002de:	bf00      	nop
 80002e0:	e000ed00 	.word	0xe000ed00
 80002e4:	40023800 	.word	0x40023800
 80002e8:	24003010 	.word	0x24003010

080002ec <SystemCoreClockUpdate>:
  *     
  * @param  None
  * @retval None
  */
void SystemCoreClockUpdate(void)
{
 80002ec:	b480      	push	{r7}
 80002ee:	b087      	sub	sp, #28
 80002f0:	af00      	add	r7, sp, #0
  uint32_t tmp = 0, pllvco = 0, pllp = 2, pllsource = 0, pllm = 2;
 80002f2:	2300      	movs	r3, #0
 80002f4:	613b      	str	r3, [r7, #16]
 80002f6:	2300      	movs	r3, #0
 80002f8:	617b      	str	r3, [r7, #20]
 80002fa:	2302      	movs	r3, #2
 80002fc:	60fb      	str	r3, [r7, #12]
 80002fe:	2300      	movs	r3, #0
 8000300:	60bb      	str	r3, [r7, #8]
 8000302:	2302      	movs	r3, #2
 8000304:	607b      	str	r3, [r7, #4]

  /* Get SYSCLK source -------------------------------------------------------*/
  tmp = RCC->CFGR & RCC_CFGR_SWS;
 8000306:	4b35      	ldr	r3, [pc, #212]	@ (80003dc <SystemCoreClockUpdate+0xf0>)
 8000308:	689b      	ldr	r3, [r3, #8]
 800030a:	f003 030c 	and.w	r3, r3, #12
 800030e:	613b      	str	r3, [r7, #16]

  switch (tmp)
 8000310:	693b      	ldr	r3, [r7, #16]
 8000312:	2b08      	cmp	r3, #8
 8000314:	d011      	beq.n	800033a <SystemCoreClockUpdate+0x4e>
 8000316:	693b      	ldr	r3, [r7, #16]
 8000318:	2b08      	cmp	r3, #8
 800031a:	d844      	bhi.n	80003a6 <SystemCoreClockUpdate+0xba>
 800031c:	693b      	ldr	r3, [r7, #16]
 800031e:	2b00      	cmp	r3, #0
 8000320:	d003      	beq.n	800032a <SystemCoreClockUpdate+0x3e>
 8000322:	693b      	ldr	r3, [r7, #16]
 8000324:	2b04      	cmp	r3, #4
 8000326:	d004      	beq.n	8000332 <SystemCoreClockUpdate+0x46>
 8000328:	e03d      	b.n	80003a6 <SystemCoreClockUpdate+0xba>
  {
    case 0x00:  /* HSI used as system clock source */
      SystemCoreClock = HSI_VALUE;
 800032a:	4b2d      	ldr	r3, [pc, #180]	@ (80003e0 <SystemCoreClockUpdate+0xf4>)
 800032c:	4a2d      	ldr	r2, [pc, #180]	@ (80003e4 <SystemCoreClockUpdate+0xf8>)
 800032e:	601a      	str	r2, [r3, #0]
      break;
 8000330:	e03d      	b.n	80003ae <SystemCoreClockUpdate+0xc2>
    case 0x04:  /* HSE used as system clock source */
      SystemCoreClock = HSE_VALUE;
 8000332:	4b2b      	ldr	r3, [pc, #172]	@ (80003e0 <SystemCoreClockUpdate+0xf4>)
 8000334:	4a2c      	ldr	r2, [pc, #176]	@ (80003e8 <SystemCoreClockUpdate+0xfc>)
 8000336:	601a      	str	r2, [r3, #0]
      break;
 8000338:	e039      	b.n	80003ae <SystemCoreClockUpdate+0xc2>
    case 0x08:  /* PLL used as system clock source */

      /* PLL_VCO = (HSE_VALUE or HSI_VALUE / PLL_M) * PLL_N
         SYSCLK = PLL_VCO / PLL_P
         */    
      pllsource = (RCC->PLLCFGR & RCC_PLLCFGR_PLLSRC) >> 22;
 800033a:	4b28      	ldr	r3, [pc, #160]	@ (80003dc <SystemCoreClockUpdate+0xf0>)
 800033c:	685b      	ldr	r3, [r3, #4]
 800033e:	0d9b      	lsrs	r3, r3, #22
 8000340:	f003 0301 	and.w	r3, r3, #1
 8000344:	60bb      	str	r3, [r7, #8]
      pllm = RCC->PLLCFGR & RCC_PLLCFGR_PLLM;
 8000346:	4b25      	ldr	r3, [pc, #148]	@ (80003dc <SystemCoreClockUpdate+0xf0>)
 8000348:	685b      	ldr	r3, [r3, #4]
 800034a:	f003 033f 	and.w	r3, r3, #63	@ 0x3f
 800034e:	607b      	str	r3, [r7, #4]
      
      if (pllsource != 0)
 8000350:	68bb      	ldr	r3, [r7, #8]
 8000352:	2b00      	cmp	r3, #0
 8000354:	d00c      	beq.n	8000370 <SystemCoreClockUpdate+0x84>
      {
        /* HSE used as PLL clock source */
        pllvco = (HSE_VALUE / pllm) * ((RCC->PLLCFGR & RCC_PLLCFGR_PLLN) >> 6);
 8000356:	4a24      	ldr	r2, [pc, #144]	@ (80003e8 <SystemCoreClockUpdate+0xfc>)
 8000358:	687b      	ldr	r3, [r7, #4]
 800035a:	fbb2 f3f3 	udiv	r3, r2, r3
 800035e:	4a1f      	ldr	r2, [pc, #124]	@ (80003dc <SystemCoreClockUpdate+0xf0>)
 8000360:	6852      	ldr	r2, [r2, #4]
 8000362:	0992      	lsrs	r2, r2, #6
 8000364:	f3c2 0208 	ubfx	r2, r2, #0, #9
 8000368:	fb02 f303 	mul.w	r3, r2, r3
 800036c:	617b      	str	r3, [r7, #20]
 800036e:	e00b      	b.n	8000388 <SystemCoreClockUpdate+0x9c>
      }
      else
      {
        /* HSI used as PLL clock source */
        pllvco = (HSI_VALUE / pllm) * ((RCC->PLLCFGR & RCC_PLLCFGR_PLLN) >> 6);
 8000370:	4a1c      	ldr	r2, [pc, #112]	@ (80003e4 <SystemCoreClockUpdate+0xf8>)
 8000372:	687b      	ldr	r3, [r7, #4]
 8000374:	fbb2 f3f3 	udiv	r3, r2, r3
 8000378:	4a18      	ldr	r2, [pc, #96]	@ (80003dc <SystemCoreClockUpdate+0xf0>)
 800037a:	6852      	ldr	r2, [r2, #4]
 800037c:	0992      	lsrs	r2, r2, #6
 800037e:	f3c2 0208 	ubfx	r2, r2, #0, #9
 8000382:	fb02 f303 	mul.w	r3, r2, r3
 8000386:	617b      	str	r3, [r7, #20]
      }

      pllp = (((RCC->PLLCFGR & RCC_PLLCFGR_PLLP) >>16) + 1 ) *2;
 8000388:	4b14      	ldr	r3, [pc, #80]	@ (80003dc <SystemCoreClockUpdate+0xf0>)
 800038a:	685b      	ldr	r3, [r3, #4]
 800038c:	0c1b      	lsrs	r3, r3, #16
 800038e:	f003 0303 	and.w	r3, r3, #3
 8000392:	3301      	adds	r3, #1
 8000394:	005b      	lsls	r3, r3, #1
 8000396:	60fb      	str	r3, [r7, #12]
      SystemCoreClock = pllvco/pllp;
 8000398:	697a      	ldr	r2, [r7, #20]
 800039a:	68fb      	ldr	r3, [r7, #12]
 800039c:	fbb2 f3f3 	udiv	r3, r2, r3
 80003a0:	4a0f      	ldr	r2, [pc, #60]	@ (80003e0 <SystemCoreClockUpdate+0xf4>)
 80003a2:	6013      	str	r3, [r2, #0]
      break;
 80003a4:	e003      	b.n	80003ae <SystemCoreClockUpdate+0xc2>
    default:
      SystemCoreClock = HSI_VALUE;
 80003a6:	4b0e      	ldr	r3, [pc, #56]	@ (80003e0 <SystemCoreClockUpdate+0xf4>)
 80003a8:	4a0e      	ldr	r2, [pc, #56]	@ (80003e4 <SystemCoreClockUpdate+0xf8>)
 80003aa:	601a      	str	r2, [r3, #0]
      break;
 80003ac:	bf00      	nop
  }
  /* Compute HCLK frequency --------------------------------------------------*/
  /* Get HCLK prescaler */
  tmp = AHBPrescTable[((RCC->CFGR & RCC_CFGR_HPRE) >> 4)];
 80003ae:	4b0b      	ldr	r3, [pc, #44]	@ (80003dc <SystemCoreClockUpdate+0xf0>)
 80003b0:	689b      	ldr	r3, [r3, #8]
 80003b2:	091b      	lsrs	r3, r3, #4
 80003b4:	f003 030f 	and.w	r3, r3, #15
 80003b8:	4a0c      	ldr	r2, [pc, #48]	@ (80003ec <SystemCoreClockUpdate+0x100>)
 80003ba:	5cd3      	ldrb	r3, [r2, r3]
 80003bc:	b2db      	uxtb	r3, r3
 80003be:	613b      	str	r3, [r7, #16]
  /* HCLK frequency */
  SystemCoreClock >>= tmp;
 80003c0:	4b07      	ldr	r3, [pc, #28]	@ (80003e0 <SystemCoreClockUpdate+0xf4>)
 80003c2:	681a      	ldr	r2, [r3, #0]
 80003c4:	693b      	ldr	r3, [r7, #16]
 80003c6:	fa22 f303 	lsr.w	r3, r2, r3
 80003ca:	4a05      	ldr	r2, [pc, #20]	@ (80003e0 <SystemCoreClockUpdate+0xf4>)
 80003cc:	6013      	str	r3, [r2, #0]
}
 80003ce:	bf00      	nop
 80003d0:	371c      	adds	r7, #28
 80003d2:	46bd      	mov	sp, r7
 80003d4:	f85d 7b04 	ldr.w	r7, [sp], #4
 80003d8:	4770      	bx	lr
 80003da:	bf00      	nop
 80003dc:	40023800 	.word	0x40023800
 80003e0:	20000000 	.word	0x20000000
 80003e4:	00f42400 	.word	0x00f42400
 80003e8:	017d7840 	.word	0x017d7840
 80003ec:	20000004 	.word	0x20000004

080003f0 <SetSysClock>:
  *         is reset to the default reset state (done in SystemInit() function).   
  * @param  None
  * @retval None
  */
static void SetSysClock(void)
{
 80003f0:	b480      	push	{r7}
 80003f2:	af00      	add	r7, sp, #0
/******************************************************************************/

  /* At this stage the HSI is already enabled and used as System clock source */

    /* Select regulator voltage output Scale 1 mode, System frequency up to 168 MHz */
    RCC->APB1ENR |= RCC_APB1ENR_PWREN;
 80003f4:	4b23      	ldr	r3, [pc, #140]	@ (8000484 <SetSysClock+0x94>)
 80003f6:	6c1b      	ldr	r3, [r3, #64]	@ 0x40
 80003f8:	4a22      	ldr	r2, [pc, #136]	@ (8000484 <SetSysClock+0x94>)
 80003fa:	f043 5380 	orr.w	r3, r3, #268435456	@ 0x10000000
 80003fe:	6413      	str	r3, [r2, #64]	@ 0x40
    PWR->CR |= PWR_CR_VOS;
 8000400:	4b21      	ldr	r3, [pc, #132]	@ (8000488 <SetSysClock+0x98>)
 8000402:	681b      	ldr	r3, [r3, #0]
 8000404:	4a20      	ldr	r2, [pc, #128]	@ (8000488 <SetSysClock+0x98>)
 8000406:	f443 4340 	orr.w	r3, r3, #49152	@ 0xc000
 800040a:	6013      	str	r3, [r2, #0]

  /* HCLK = SYSCLK / 1*/
  RCC->CFGR |= RCC_CFGR_HPRE_DIV1;
 800040c:	4b1d      	ldr	r3, [pc, #116]	@ (8000484 <SetSysClock+0x94>)
 800040e:	4a1d      	ldr	r2, [pc, #116]	@ (8000484 <SetSysClock+0x94>)
 8000410:	689b      	ldr	r3, [r3, #8]
 8000412:	6093      	str	r3, [r2, #8]

  /* PCLK2 = HCLK / 1*/
  RCC->CFGR |= RCC_CFGR_PPRE2_DIV1;
 8000414:	4b1b      	ldr	r3, [pc, #108]	@ (8000484 <SetSysClock+0x94>)
 8000416:	4a1b      	ldr	r2, [pc, #108]	@ (8000484 <SetSysClock+0x94>)
 8000418:	689b      	ldr	r3, [r3, #8]
 800041a:	6093      	str	r3, [r2, #8]
    
  /* PCLK1 = HCLK / 1*/
  RCC->CFGR |= RCC_CFGR_PPRE1_DIV2;
 800041c:	4b19      	ldr	r3, [pc, #100]	@ (8000484 <SetSysClock+0x94>)
 800041e:	689b      	ldr	r3, [r3, #8]
 8000420:	4a18      	ldr	r2, [pc, #96]	@ (8000484 <SetSysClock+0x94>)
 8000422:	f443 5380 	orr.w	r3, r3, #4096	@ 0x1000
 8000426:	6093      	str	r3, [r2, #8]

  /* Configure the main PLL */
  RCC->PLLCFGR = PLL_M | (PLL_N << 6) | (((PLL_P >> 1) -1) << 16) |
 8000428:	4b16      	ldr	r3, [pc, #88]	@ (8000484 <SetSysClock+0x94>)
 800042a:	4a18      	ldr	r2, [pc, #96]	@ (800048c <SetSysClock+0x9c>)
 800042c:	605a      	str	r2, [r3, #4]
                 (RCC_PLLCFGR_PLLSRC_HSI) | (PLL_Q << 24);

  /* Enable the main PLL */
  RCC->CR |= RCC_CR_PLLON;
 800042e:	4b15      	ldr	r3, [pc, #84]	@ (8000484 <SetSysClock+0x94>)
 8000430:	681b      	ldr	r3, [r3, #0]
 8000432:	4a14      	ldr	r2, [pc, #80]	@ (8000484 <SetSysClock+0x94>)
 8000434:	f043 7380 	orr.w	r3, r3, #16777216	@ 0x1000000
 8000438:	6013      	str	r3, [r2, #0]

  /* Wait till the main PLL is ready */
  while((RCC->CR & RCC_CR_PLLRDY) == 0)
 800043a:	bf00      	nop
 800043c:	4b11      	ldr	r3, [pc, #68]	@ (8000484 <SetSysClock+0x94>)
 800043e:	681b      	ldr	r3, [r3, #0]
 8000440:	f003 7300 	and.w	r3, r3, #33554432	@ 0x2000000
 8000444:	2b00      	cmp	r3, #0
 8000446:	d0f9      	beq.n	800043c <SetSysClock+0x4c>
  {
  }
   
  /* Configure Flash prefetch, Instruction cache, Data cache and wait state */
  FLASH->ACR = FLASH_ACR_ICEN |FLASH_ACR_DCEN |FLASH_ACR_LATENCY_2WS;
 8000448:	4b11      	ldr	r3, [pc, #68]	@ (8000490 <SetSysClock+0xa0>)
 800044a:	f240 6202 	movw	r2, #1538	@ 0x602
 800044e:	601a      	str	r2, [r3, #0]

  /* Select the main PLL as system clock source */
  RCC->CFGR &= (uint32_t)((uint32_t)~(RCC_CFGR_SW));
 8000450:	4b0c      	ldr	r3, [pc, #48]	@ (8000484 <SetSysClock+0x94>)
 8000452:	689b      	ldr	r3, [r3, #8]
 8000454:	4a0b      	ldr	r2, [pc, #44]	@ (8000484 <SetSysClock+0x94>)
 8000456:	f023 0303 	bic.w	r3, r3, #3
 800045a:	6093      	str	r3, [r2, #8]
  RCC->CFGR |= RCC_CFGR_SW_PLL;
 800045c:	4b09      	ldr	r3, [pc, #36]	@ (8000484 <SetSysClock+0x94>)
 800045e:	689b      	ldr	r3, [r3, #8]
 8000460:	4a08      	ldr	r2, [pc, #32]	@ (8000484 <SetSysClock+0x94>)
 8000462:	f043 0302 	orr.w	r3, r3, #2
 8000466:	6093      	str	r3, [r2, #8]

  /* Wait till the main PLL is used as system clock source */
  while ((RCC->CFGR & (uint32_t)RCC_CFGR_SWS ) != RCC_CFGR_SWS_PLL);
 8000468:	bf00      	nop
 800046a:	4b06      	ldr	r3, [pc, #24]	@ (8000484 <SetSysClock+0x94>)
 800046c:	689b      	ldr	r3, [r3, #8]
 800046e:	f003 030c 	and.w	r3, r3, #12
 8000472:	2b08      	cmp	r3, #8
 8000474:	d1f9      	bne.n	800046a <SetSysClock+0x7a>
}
 8000476:	bf00      	nop
 8000478:	bf00      	nop
 800047a:	46bd      	mov	sp, r7
 800047c:	f85d 7b04 	ldr.w	r7, [sp], #4
 8000480:	4770      	bx	lr
 8000482:	bf00      	nop
 8000484:	40023800 	.word	0x40023800
 8000488:	40007000 	.word	0x40007000
 800048c:	08015410 	.word	0x08015410
 8000490:	40023c00 	.word	0x40023c00

08000494 <GPIO_Init>:
  * @param  GPIO_InitStruct: pointer to a GPIO_InitTypeDef structure that contains
  *         the configuration information for the specified GPIO peripheral.
  * @retval None
  */
void GPIO_Init(GPIO_TypeDef* GPIOx, GPIO_InitTypeDef* GPIO_InitStruct)
{
 8000494:	b480      	push	{r7}
 8000496:	b087      	sub	sp, #28
 8000498:	af00      	add	r7, sp, #0
 800049a:	6078      	str	r0, [r7, #4]
 800049c:	6039      	str	r1, [r7, #0]
  uint32_t pinpos = 0x00, pos = 0x00 , currentpin = 0x00;
 800049e:	2300      	movs	r3, #0
 80004a0:	617b      	str	r3, [r7, #20]
 80004a2:	2300      	movs	r3, #0
 80004a4:	613b      	str	r3, [r7, #16]
 80004a6:	2300      	movs	r3, #0
 80004a8:	60fb      	str	r3, [r7, #12]
  assert_param(IS_GPIO_MODE(GPIO_InitStruct->GPIO_Mode));
  assert_param(IS_GPIO_PUPD(GPIO_InitStruct->GPIO_PuPd));

  /* ------------------------- Configure the port pins ---------------- */
  /*-- GPIO Mode Configuration --*/
  for (pinpos = 0x00; pinpos < 0x10; pinpos++)
 80004aa:	2300      	movs	r3, #0
 80004ac:	617b      	str	r3, [r7, #20]
 80004ae:	e076      	b.n	800059e <GPIO_Init+0x10a>
  {
    pos = ((uint32_t)0x01) << pinpos;
 80004b0:	2201      	movs	r2, #1
 80004b2:	697b      	ldr	r3, [r7, #20]
 80004b4:	fa02 f303 	lsl.w	r3, r2, r3
 80004b8:	613b      	str	r3, [r7, #16]
    /* Get the port pins position */
    currentpin = (GPIO_InitStruct->GPIO_Pin) & pos;
 80004ba:	683b      	ldr	r3, [r7, #0]
 80004bc:	681b      	ldr	r3, [r3, #0]
 80004be:	693a      	ldr	r2, [r7, #16]
 80004c0:	4013      	ands	r3, r2
 80004c2:	60fb      	str	r3, [r7, #12]

    if (currentpin == pos)
 80004c4:	68fa      	ldr	r2, [r7, #12]
 80004c6:	693b      	ldr	r3, [r7, #16]
 80004c8:	429a      	cmp	r2, r3
 80004ca:	d165      	bne.n	8000598 <GPIO_Init+0x104>
    {
      GPIOx->MODER  &= ~(GPIO_MODER_MODER0 << (pinpos * 2));
 80004cc:	687b      	ldr	r3, [r7, #4]
 80004ce:	681a      	ldr	r2, [r3, #0]
 80004d0:	697b      	ldr	r3, [r7, #20]
 80004d2:	005b      	lsls	r3, r3, #1
 80004d4:	2103      	movs	r1, #3
 80004d6:	fa01 f303 	lsl.w	r3, r1, r3
 80004da:	43db      	mvns	r3, r3
 80004dc:	401a      	ands	r2, r3
 80004de:	687b      	ldr	r3, [r7, #4]
 80004e0:	601a      	str	r2, [r3, #0]
      GPIOx->MODER |= (((uint32_t)GPIO_InitStruct->GPIO_Mode) << (pinpos * 2));
 80004e2:	687b      	ldr	r3, [r7, #4]
 80004e4:	681a      	ldr	r2, [r3, #0]
 80004e6:	683b      	ldr	r3, [r7, #0]
 80004e8:	791b      	ldrb	r3, [r3, #4]
 80004ea:	4619      	mov	r1, r3
 80004ec:	697b      	ldr	r3, [r7, #20]
 80004ee:	005b      	lsls	r3, r3, #1
 80004f0:	fa01 f303 	lsl.w	r3, r1, r3
 80004f4:	431a      	orrs	r2, r3
 80004f6:	687b      	ldr	r3, [r7, #4]
 80004f8:	601a      	str	r2, [r3, #0]

      if ((GPIO_InitStruct->GPIO_Mode == GPIO_Mode_OUT) || (GPIO_InitStruct->GPIO_Mode == GPIO_Mode_AF))
 80004fa:	683b      	ldr	r3, [r7, #0]
 80004fc:	791b      	ldrb	r3, [r3, #4]
 80004fe:	2b01      	cmp	r3, #1
 8000500:	d003      	beq.n	800050a <GPIO_Init+0x76>
 8000502:	683b      	ldr	r3, [r7, #0]
 8000504:	791b      	ldrb	r3, [r3, #4]
 8000506:	2b02      	cmp	r3, #2
 8000508:	d12e      	bne.n	8000568 <GPIO_Init+0xd4>
      {
        /* Check Speed mode parameters */
        assert_param(IS_GPIO_SPEED(GPIO_InitStruct->GPIO_Speed));

        /* Speed mode configuration */
        GPIOx->OSPEEDR &= ~(GPIO_OSPEEDER_OSPEEDR0 << (pinpos * 2));
 800050a:	687b      	ldr	r3, [r7, #4]
 800050c:	689a      	ldr	r2, [r3, #8]
 800050e:	697b      	ldr	r3, [r7, #20]
 8000510:	005b      	lsls	r3, r3, #1
 8000512:	2103      	movs	r1, #3
 8000514:	fa01 f303 	lsl.w	r3, r1, r3
 8000518:	43db      	mvns	r3, r3
 800051a:	401a      	ands	r2, r3
 800051c:	687b      	ldr	r3, [r7, #4]
 800051e:	609a      	str	r2, [r3, #8]
        GPIOx->OSPEEDR |= ((uint32_t)(GPIO_InitStruct->GPIO_Speed) << (pinpos * 2));
 8000520:	687b      	ldr	r3, [r7, #4]
 8000522:	689a      	ldr	r2, [r3, #8]
 8000524:	683b      	ldr	r3, [r7, #0]
 8000526:	795b      	ldrb	r3, [r3, #5]
 8000528:	4619      	mov	r1, r3
 800052a:	697b      	ldr	r3, [r7, #20]
 800052c:	005b      	lsls	r3, r3, #1
 800052e:	fa01 f303 	lsl.w	r3, r1, r3
 8000532:	431a      	orrs	r2, r3
 8000534:	687b      	ldr	r3, [r7, #4]
 8000536:	609a      	str	r2, [r3, #8]

        /* Check Output mode parameters */
        assert_param(IS_GPIO_OTYPE(GPIO_InitStruct->GPIO_OType));

        /* Output mode configuration*/
        GPIOx->OTYPER  &= ~((GPIO_OTYPER_OT_0) << ((uint16_t)pinpos)) ;
 8000538:	687b      	ldr	r3, [r7, #4]
 800053a:	685a      	ldr	r2, [r3, #4]
 800053c:	697b      	ldr	r3, [r7, #20]
 800053e:	b29b      	uxth	r3, r3
 8000540:	4619      	mov	r1, r3
 8000542:	2301      	movs	r3, #1
 8000544:	408b      	lsls	r3, r1
 8000546:	43db      	mvns	r3, r3
 8000548:	401a      	ands	r2, r3
 800054a:	687b      	ldr	r3, [r7, #4]
 800054c:	605a      	str	r2, [r3, #4]
        GPIOx->OTYPER |= (uint16_t)(((uint16_t)GPIO_InitStruct->GPIO_OType) << ((uint16_t)pinpos));
 800054e:	687b      	ldr	r3, [r7, #4]
 8000550:	685b      	ldr	r3, [r3, #4]
 8000552:	683a      	ldr	r2, [r7, #0]
 8000554:	7992      	ldrb	r2, [r2, #6]
 8000556:	4611      	mov	r1, r2
 8000558:	697a      	ldr	r2, [r7, #20]
 800055a:	b292      	uxth	r2, r2
 800055c:	fa01 f202 	lsl.w	r2, r1, r2
 8000560:	b292      	uxth	r2, r2
 8000562:	431a      	orrs	r2, r3
 8000564:	687b      	ldr	r3, [r7, #4]
 8000566:	605a      	str	r2, [r3, #4]
      }

      /* Pull-up Pull down resistor configuration*/
      GPIOx->PUPDR &= ~(GPIO_PUPDR_PUPDR0 << ((uint16_t)pinpos * 2));
 8000568:	687b      	ldr	r3, [r7, #4]
 800056a:	68da      	ldr	r2, [r3, #12]
 800056c:	697b      	ldr	r3, [r7, #20]
 800056e:	b29b      	uxth	r3, r3
 8000570:	005b      	lsls	r3, r3, #1
 8000572:	2103      	movs	r1, #3
 8000574:	fa01 f303 	lsl.w	r3, r1, r3
 8000578:	43db      	mvns	r3, r3
 800057a:	401a      	ands	r2, r3
 800057c:	687b      	ldr	r3, [r7, #4]
 800057e:	60da      	str	r2, [r3, #12]
      GPIOx->PUPDR |= (((uint32_t)GPIO_InitStruct->GPIO_PuPd) << (pinpos * 2));
 8000580:	687b      	ldr	r3, [r7, #4]
 8000582:	68da      	ldr	r2, [r3, #12]
 8000584:	683b      	ldr	r3, [r7, #0]
 8000586:	79db      	ldrb	r3, [r3, #7]
 8000588:	4619      	mov	r1, r3
 800058a:	697b      	ldr	r3, [r7, #20]
 800058c:	005b      	lsls	r3, r3, #1
 800058e:	fa01 f303 	lsl.w	r3, r1, r3
 8000592:	431a      	orrs	r2, r3
 8000594:	687b      	ldr	r3, [r7, #4]
 8000596:	60da      	str	r2, [r3, #12]
  for (pinpos = 0x00; pinpos < 0x10; pinpos++)
 8000598:	697b      	ldr	r3, [r7, #20]
 800059a:	3301      	adds	r3, #1
 800059c:	617b      	str	r3, [r7, #20]
 800059e:	697b      	ldr	r3, [r7, #20]
 80005a0:	2b0f      	cmp	r3, #15
 80005a2:	d985      	bls.n	80004b0 <GPIO_Init+0x1c>
    }
  }
}
 80005a4:	bf00      	nop
 80005a6:	bf00      	nop
 80005a8:	371c      	adds	r7, #28
 80005aa:	46bd      	mov	sp, r7
 80005ac:	f85d 7b04 	ldr.w	r7, [sp], #4
 80005b0:	4770      	bx	lr

080005b2 <GPIO_ReadInputDataBit>:
  * @param  GPIO_Pin: specifies the port bit to read.
  *         This parameter can be GPIO_Pin_x where x can be (0..15).
  * @retval The input port pin value.
  */
uint8_t GPIO_ReadInputDataBit(GPIO_TypeDef* GPIOx, uint16_t GPIO_Pin)
{
 80005b2:	b480      	push	{r7}
 80005b4:	b085      	sub	sp, #20
 80005b6:	af00      	add	r7, sp, #0
 80005b8:	6078      	str	r0, [r7, #4]
 80005ba:	460b      	mov	r3, r1
 80005bc:	807b      	strh	r3, [r7, #2]
  uint8_t bitstatus = 0x00;
 80005be:	2300      	movs	r3, #0
 80005c0:	73fb      	strb	r3, [r7, #15]

  /* Check the parameters */
  assert_param(IS_GPIO_ALL_PERIPH(GPIOx));
  assert_param(IS_GET_GPIO_PIN(GPIO_Pin));

  if ((GPIOx->IDR & GPIO_Pin) != (uint32_t)Bit_RESET)
 80005c2:	687b      	ldr	r3, [r7, #4]
 80005c4:	691a      	ldr	r2, [r3, #16]
 80005c6:	887b      	ldrh	r3, [r7, #2]
 80005c8:	4013      	ands	r3, r2
 80005ca:	2b00      	cmp	r3, #0
 80005cc:	d002      	beq.n	80005d4 <GPIO_ReadInputDataBit+0x22>
  {
    bitstatus = (uint8_t)Bit_SET;
 80005ce:	2301      	movs	r3, #1
 80005d0:	73fb      	strb	r3, [r7, #15]
 80005d2:	e001      	b.n	80005d8 <GPIO_ReadInputDataBit+0x26>
  }
  else
  {
    bitstatus = (uint8_t)Bit_RESET;
 80005d4:	2300      	movs	r3, #0
 80005d6:	73fb      	strb	r3, [r7, #15]
  }
  return bitstatus;
 80005d8:	7bfb      	ldrb	r3, [r7, #15]
}
 80005da:	4618      	mov	r0, r3
 80005dc:	3714      	adds	r7, #20
 80005de:	46bd      	mov	sp, r7
 80005e0:	f85d 7b04 	ldr.w	r7, [sp], #4
 80005e4:	4770      	bx	lr

080005e6 <GPIO_WriteBit>:
  *            @arg Bit_RESET: to clear the port pin
  *            @arg Bit_SET: to set the port pin
  * @retval None
  */
void GPIO_WriteBit(GPIO_TypeDef* GPIOx, uint16_t GPIO_Pin, BitAction BitVal)
{
 80005e6:	b480      	push	{r7}
 80005e8:	b083      	sub	sp, #12
 80005ea:	af00      	add	r7, sp, #0
 80005ec:	6078      	str	r0, [r7, #4]
 80005ee:	460b      	mov	r3, r1
 80005f0:	807b      	strh	r3, [r7, #2]
 80005f2:	4613      	mov	r3, r2
 80005f4:	707b      	strb	r3, [r7, #1]
  /* Check the parameters */
  assert_param(IS_GPIO_ALL_PERIPH(GPIOx));
  assert_param(IS_GET_GPIO_PIN(GPIO_Pin));
  assert_param(IS_GPIO_BIT_ACTION(BitVal));

  if (BitVal != Bit_RESET)
 80005f6:	787b      	ldrb	r3, [r7, #1]
 80005f8:	2b00      	cmp	r3, #0
 80005fa:	d003      	beq.n	8000604 <GPIO_WriteBit+0x1e>
  {
    GPIOx->BSRRL = GPIO_Pin;
 80005fc:	687b      	ldr	r3, [r7, #4]
 80005fe:	887a      	ldrh	r2, [r7, #2]
 8000600:	831a      	strh	r2, [r3, #24]
  }
  else
  {
    GPIOx->BSRRH = GPIO_Pin ;
  }
}
 8000602:	e002      	b.n	800060a <GPIO_WriteBit+0x24>
    GPIOx->BSRRH = GPIO_Pin ;
 8000604:	687b      	ldr	r3, [r7, #4]
 8000606:	887a      	ldrh	r2, [r7, #2]
 8000608:	835a      	strh	r2, [r3, #26]
}
 800060a:	bf00      	nop
 800060c:	370c      	adds	r7, #12
 800060e:	46bd      	mov	sp, r7
 8000610:	f85d 7b04 	ldr.w	r7, [sp], #4
 8000614:	4770      	bx	lr

08000616 <GPIO_PinAFConfig>:
  *            @arg GPIO_AF_LTDC: Connect LTDC pins to AF14 for STM32F429xx/439xx devices.
  *            @arg GPIO_AF_EVENTOUT: Connect EVENTOUT pins to AF15
  * @retval None
  */
void GPIO_PinAFConfig(GPIO_TypeDef* GPIOx, uint16_t GPIO_PinSource, uint8_t GPIO_AF)
{
 8000616:	b480      	push	{r7}
 8000618:	b085      	sub	sp, #20
 800061a:	af00      	add	r7, sp, #0
 800061c:	6078      	str	r0, [r7, #4]
 800061e:	460b      	mov	r3, r1
 8000620:	807b      	strh	r3, [r7, #2]
 8000622:	4613      	mov	r3, r2
 8000624:	707b      	strb	r3, [r7, #1]
  uint32_t temp = 0x00;
 8000626:	2300      	movs	r3, #0
 8000628:	60fb      	str	r3, [r7, #12]
  uint32_t temp_2 = 0x00;
 800062a:	2300      	movs	r3, #0
 800062c:	60bb      	str	r3, [r7, #8]
  /* Check the parameters */
  assert_param(IS_GPIO_ALL_PERIPH(GPIOx));
  assert_param(IS_GPIO_PIN_SOURCE(GPIO_PinSource));
  assert_param(IS_GPIO_AF(GPIO_AF));

  temp = ((uint32_t)(GPIO_AF) << ((uint32_t)((uint32_t)GPIO_PinSource & (uint32_t)0x07) * 4)) ;
 800062e:	787a      	ldrb	r2, [r7, #1]
 8000630:	887b      	ldrh	r3, [r7, #2]
 8000632:	f003 0307 	and.w	r3, r3, #7
 8000636:	009b      	lsls	r3, r3, #2
 8000638:	fa02 f303 	lsl.w	r3, r2, r3
 800063c:	60fb      	str	r3, [r7, #12]
  GPIOx->AFR[GPIO_PinSource >> 0x03] &= ~((uint32_t)0xF << ((uint32_t)((uint32_t)GPIO_PinSource & (uint32_t)0x07) * 4)) ;
 800063e:	887b      	ldrh	r3, [r7, #2]
 8000640:	08db      	lsrs	r3, r3, #3
 8000642:	b29b      	uxth	r3, r3
 8000644:	461a      	mov	r2, r3
 8000646:	687b      	ldr	r3, [r7, #4]
 8000648:	3208      	adds	r2, #8
 800064a:	f853 2022 	ldr.w	r2, [r3, r2, lsl #2]
 800064e:	887b      	ldrh	r3, [r7, #2]
 8000650:	f003 0307 	and.w	r3, r3, #7
 8000654:	009b      	lsls	r3, r3, #2
 8000656:	210f      	movs	r1, #15
 8000658:	fa01 f303 	lsl.w	r3, r1, r3
 800065c:	43db      	mvns	r3, r3
 800065e:	8879      	ldrh	r1, [r7, #2]
 8000660:	08c9      	lsrs	r1, r1, #3
 8000662:	b289      	uxth	r1, r1
 8000664:	4608      	mov	r0, r1
 8000666:	ea02 0103 	and.w	r1, r2, r3
 800066a:	687b      	ldr	r3, [r7, #4]
 800066c:	f100 0208 	add.w	r2, r0, #8
 8000670:	f843 1022 	str.w	r1, [r3, r2, lsl #2]
  temp_2 = GPIOx->AFR[GPIO_PinSource >> 0x03] | temp;
 8000674:	887b      	ldrh	r3, [r7, #2]
 8000676:	08db      	lsrs	r3, r3, #3
 8000678:	b29b      	uxth	r3, r3
 800067a:	461a      	mov	r2, r3
 800067c:	687b      	ldr	r3, [r7, #4]
 800067e:	3208      	adds	r2, #8
 8000680:	f853 3022 	ldr.w	r3, [r3, r2, lsl #2]
 8000684:	68fa      	ldr	r2, [r7, #12]
 8000686:	4313      	orrs	r3, r2
 8000688:	60bb      	str	r3, [r7, #8]
  GPIOx->AFR[GPIO_PinSource >> 0x03] = temp_2;
 800068a:	887b      	ldrh	r3, [r7, #2]
 800068c:	08db      	lsrs	r3, r3, #3
 800068e:	b29b      	uxth	r3, r3
 8000690:	461a      	mov	r2, r3
 8000692:	687b      	ldr	r3, [r7, #4]
 8000694:	3208      	adds	r2, #8
 8000696:	68b9      	ldr	r1, [r7, #8]
 8000698:	f843 1022 	str.w	r1, [r3, r2, lsl #2]
}
 800069c:	bf00      	nop
 800069e:	3714      	adds	r7, #20
 80006a0:	46bd      	mov	sp, r7
 80006a2:	f85d 7b04 	ldr.w	r7, [sp], #4
 80006a6:	4770      	bx	lr

080006a8 <RCC_GetClocksFreq>:
  *         configuration based on this function will be incorrect.
  *
  * @retval None
  */
void RCC_GetClocksFreq(RCC_ClocksTypeDef* RCC_Clocks)
{
 80006a8:	b480      	push	{r7}
 80006aa:	b089      	sub	sp, #36	@ 0x24
 80006ac:	af00      	add	r7, sp, #0
 80006ae:	6078      	str	r0, [r7, #4]
  uint32_t tmp = 0, presc = 0, pllvco = 0, pllp = 2, pllsource = 0, pllm = 2;
 80006b0:	2300      	movs	r3, #0
 80006b2:	61bb      	str	r3, [r7, #24]
 80006b4:	2300      	movs	r3, #0
 80006b6:	617b      	str	r3, [r7, #20]
 80006b8:	2300      	movs	r3, #0
 80006ba:	61fb      	str	r3, [r7, #28]
 80006bc:	2302      	movs	r3, #2
 80006be:	613b      	str	r3, [r7, #16]
 80006c0:	2300      	movs	r3, #0
 80006c2:	60fb      	str	r3, [r7, #12]
 80006c4:	2302      	movs	r3, #2
 80006c6:	60bb      	str	r3, [r7, #8]
#if defined(STM32F412xG) || defined(STM32F413_423xx) || defined(STM32F446xx)
  uint32_t pllr = 2;
#endif /* STM32F412xG || STM32F413_423xx || STM32F446xx */

  /* Get SYSCLK source -------------------------------------------------------*/
  tmp = RCC->CFGR & RCC_CFGR_SWS;
 80006c8:	4b4a      	ldr	r3, [pc, #296]	@ (80007f4 <RCC_GetClocksFreq+0x14c>)
 80006ca:	689b      	ldr	r3, [r3, #8]
 80006cc:	f003 030c 	and.w	r3, r3, #12
 80006d0:	61bb      	str	r3, [r7, #24]

  switch (tmp)
 80006d2:	69bb      	ldr	r3, [r7, #24]
 80006d4:	2b08      	cmp	r3, #8
 80006d6:	d011      	beq.n	80006fc <RCC_GetClocksFreq+0x54>
 80006d8:	69bb      	ldr	r3, [r7, #24]
 80006da:	2b08      	cmp	r3, #8
 80006dc:	d844      	bhi.n	8000768 <RCC_GetClocksFreq+0xc0>
 80006de:	69bb      	ldr	r3, [r7, #24]
 80006e0:	2b00      	cmp	r3, #0
 80006e2:	d003      	beq.n	80006ec <RCC_GetClocksFreq+0x44>
 80006e4:	69bb      	ldr	r3, [r7, #24]
 80006e6:	2b04      	cmp	r3, #4
 80006e8:	d004      	beq.n	80006f4 <RCC_GetClocksFreq+0x4c>
 80006ea:	e03d      	b.n	8000768 <RCC_GetClocksFreq+0xc0>
  {
  case 0x00:  /* HSI used as system clock source */
    RCC_Clocks->SYSCLK_Frequency = HSI_VALUE;
 80006ec:	687b      	ldr	r3, [r7, #4]
 80006ee:	4a42      	ldr	r2, [pc, #264]	@ (80007f8 <RCC_GetClocksFreq+0x150>)
 80006f0:	601a      	str	r2, [r3, #0]
    break;
 80006f2:	e03d      	b.n	8000770 <RCC_GetClocksFreq+0xc8>
  case 0x04:  /* HSE used as system clock  source */
    RCC_Clocks->SYSCLK_Frequency = HSE_VALUE;
 80006f4:	687b      	ldr	r3, [r7, #4]
 80006f6:	4a41      	ldr	r2, [pc, #260]	@ (80007fc <RCC_GetClocksFreq+0x154>)
 80006f8:	601a      	str	r2, [r3, #0]
    break;
 80006fa:	e039      	b.n	8000770 <RCC_GetClocksFreq+0xc8>
  case 0x08:  /* PLL P used as system clock  source */

    /* PLL_VCO = (HSE_VALUE or HSI_VALUE / PLLM) * PLLN
    SYSCLK = PLL_VCO / PLLP
    */
    pllsource = (RCC->PLLCFGR & RCC_PLLCFGR_PLLSRC) >> 22;
 80006fc:	4b3d      	ldr	r3, [pc, #244]	@ (80007f4 <RCC_GetClocksFreq+0x14c>)
 80006fe:	685b      	ldr	r3, [r3, #4]
 8000700:	0d9b      	lsrs	r3, r3, #22
 8000702:	f003 0301 	and.w	r3, r3, #1
 8000706:	60fb      	str	r3, [r7, #12]
    pllm = RCC->PLLCFGR & RCC_PLLCFGR_PLLM;
 8000708:	4b3a      	ldr	r3, [pc, #232]	@ (80007f4 <RCC_GetClocksFreq+0x14c>)
 800070a:	685b      	ldr	r3, [r3, #4]
 800070c:	f003 033f 	and.w	r3, r3, #63	@ 0x3f
 8000710:	60bb      	str	r3, [r7, #8]

    if (pllsource != 0)
 8000712:	68fb      	ldr	r3, [r7, #12]
 8000714:	2b00      	cmp	r3, #0
 8000716:	d00c      	beq.n	8000732 <RCC_GetClocksFreq+0x8a>
    {
      /* HSE used as PLL clock source */
      pllvco = (HSE_VALUE / pllm) * ((RCC->PLLCFGR & RCC_PLLCFGR_PLLN) >> 6);
 8000718:	4a38      	ldr	r2, [pc, #224]	@ (80007fc <RCC_GetClocksFreq+0x154>)
 800071a:	68bb      	ldr	r3, [r7, #8]
 800071c:	fbb2 f3f3 	udiv	r3, r2, r3
 8000720:	4a34      	ldr	r2, [pc, #208]	@ (80007f4 <RCC_GetClocksFreq+0x14c>)
 8000722:	6852      	ldr	r2, [r2, #4]
 8000724:	0992      	lsrs	r2, r2, #6
 8000726:	f3c2 0208 	ubfx	r2, r2, #0, #9
 800072a:	fb02 f303 	mul.w	r3, r2, r3
 800072e:	61fb      	str	r3, [r7, #28]
 8000730:	e00b      	b.n	800074a <RCC_GetClocksFreq+0xa2>
    }
    else
    {
      /* HSI used as PLL clock source */
      pllvco = (HSI_VALUE / pllm) * ((RCC->PLLCFGR & RCC_PLLCFGR_PLLN) >> 6);
 8000732:	4a31      	ldr	r2, [pc, #196]	@ (80007f8 <RCC_GetClocksFreq+0x150>)
 8000734:	68bb      	ldr	r3, [r7, #8]
 8000736:	fbb2 f3f3 	udiv	r3, r2, r3
 800073a:	4a2e      	ldr	r2, [pc, #184]	@ (80007f4 <RCC_GetClocksFreq+0x14c>)
 800073c:	6852      	ldr	r2, [r2, #4]
 800073e:	0992      	lsrs	r2, r2, #6
 8000740:	f3c2 0208 	ubfx	r2, r2, #0, #9
 8000744:	fb02 f303 	mul.w	r3, r2, r3
 8000748:	61fb      	str	r3, [r7, #28]
    }

    pllp = (((RCC->PLLCFGR & RCC_PLLCFGR_PLLP) >>16) + 1 ) *2;
 800074a:	4b2a      	ldr	r3, [pc, #168]	@ (80007f4 <RCC_GetClocksFreq+0x14c>)
 800074c:	685b      	ldr	r3, [r3, #4]
 800074e:	0c1b      	lsrs	r3, r3, #16
 8000750:	f003 0303 	and.w	r3, r3, #3
 8000754:	3301      	adds	r3, #1
 8000756:	005b      	lsls	r3, r3, #1
 8000758:	613b      	str	r3, [r7, #16]
    RCC_Clocks->SYSCLK_Frequency = pllvco/pllp;
 800075a:	69fa      	ldr	r2, [r7, #28]
 800075c:	693b      	ldr	r3, [r7, #16]
 800075e:	fbb2 f2f3 	udiv	r2, r2, r3
 8000762:	687b      	ldr	r3, [r7, #4]
 8000764:	601a      	str	r2, [r3, #0]
    break;
 8000766:	e003      	b.n	8000770 <RCC_GetClocksFreq+0xc8>
    RCC_Clocks->SYSCLK_Frequency = pllvco/pllr;
    break;
#endif /* STM32F412xG || STM32F413_423xx || STM32F446xx */

  default:
    RCC_Clocks->SYSCLK_Frequency = HSI_VALUE;
 8000768:	687b      	ldr	r3, [r7, #4]
 800076a:	4a23      	ldr	r2, [pc, #140]	@ (80007f8 <RCC_GetClocksFreq+0x150>)
 800076c:	601a      	str	r2, [r3, #0]
    break;
 800076e:	bf00      	nop
  }
  /* Compute HCLK, PCLK1 and PCLK2 clocks frequencies ------------------------*/

  /* Get HCLK prescaler */
  tmp = RCC->CFGR & RCC_CFGR_HPRE;
 8000770:	4b20      	ldr	r3, [pc, #128]	@ (80007f4 <RCC_GetClocksFreq+0x14c>)
 8000772:	689b      	ldr	r3, [r3, #8]
 8000774:	f003 03f0 	and.w	r3, r3, #240	@ 0xf0
 8000778:	61bb      	str	r3, [r7, #24]
  tmp = tmp >> 4;
 800077a:	69bb      	ldr	r3, [r7, #24]
 800077c:	091b      	lsrs	r3, r3, #4
 800077e:	61bb      	str	r3, [r7, #24]
  presc = APBAHBPrescTable[tmp];
 8000780:	4a1f      	ldr	r2, [pc, #124]	@ (8000800 <RCC_GetClocksFreq+0x158>)
 8000782:	69bb      	ldr	r3, [r7, #24]
 8000784:	4413      	add	r3, r2
 8000786:	781b      	ldrb	r3, [r3, #0]
 8000788:	b2db      	uxtb	r3, r3
 800078a:	617b      	str	r3, [r7, #20]
  /* HCLK clock frequency */
  RCC_Clocks->HCLK_Frequency = RCC_Clocks->SYSCLK_Frequency >> presc;
 800078c:	687b      	ldr	r3, [r7, #4]
 800078e:	681a      	ldr	r2, [r3, #0]
 8000790:	697b      	ldr	r3, [r7, #20]
 8000792:	40da      	lsrs	r2, r3
 8000794:	687b      	ldr	r3, [r7, #4]
 8000796:	605a      	str	r2, [r3, #4]

  /* Get PCLK1 prescaler */
  tmp = RCC->CFGR & RCC_CFGR_PPRE1;
 8000798:	4b16      	ldr	r3, [pc, #88]	@ (80007f4 <RCC_GetClocksFreq+0x14c>)
 800079a:	689b      	ldr	r3, [r3, #8]
 800079c:	f403 53e0 	and.w	r3, r3, #7168	@ 0x1c00
 80007a0:	61bb      	str	r3, [r7, #24]
  tmp = tmp >> 10;
 80007a2:	69bb      	ldr	r3, [r7, #24]
 80007a4:	0a9b      	lsrs	r3, r3, #10
 80007a6:	61bb      	str	r3, [r7, #24]
  presc = APBAHBPrescTable[tmp];
 80007a8:	4a15      	ldr	r2, [pc, #84]	@ (8000800 <RCC_GetClocksFreq+0x158>)
 80007aa:	69bb      	ldr	r3, [r7, #24]
 80007ac:	4413      	add	r3, r2
 80007ae:	781b      	ldrb	r3, [r3, #0]
 80007b0:	b2db      	uxtb	r3, r3
 80007b2:	617b      	str	r3, [r7, #20]
  /* PCLK1 clock frequency */
  RCC_Clocks->PCLK1_Frequency = RCC_Clocks->HCLK_Frequency >> presc;
 80007b4:	687b      	ldr	r3, [r7, #4]
 80007b6:	685a      	ldr	r2, [r3, #4]
 80007b8:	697b      	ldr	r3, [r7, #20]
 80007ba:	40da      	lsrs	r2, r3
 80007bc:	687b      	ldr	r3, [r7, #4]
 80007be:	609a      	str	r2, [r3, #8]

  /* Get PCLK2 prescaler */
  tmp = RCC->CFGR & RCC_CFGR_PPRE2;
 80007c0:	4b0c      	ldr	r3, [pc, #48]	@ (80007f4 <RCC_GetClocksFreq+0x14c>)
 80007c2:	689b      	ldr	r3, [r3, #8]
 80007c4:	f403 4360 	and.w	r3, r3, #57344	@ 0xe000
 80007c8:	61bb      	str	r3, [r7, #24]
  tmp = tmp >> 13;
 80007ca:	69bb      	ldr	r3, [r7, #24]
 80007cc:	0b5b      	lsrs	r3, r3, #13
 80007ce:	61bb      	str	r3, [r7, #24]
  presc = APBAHBPrescTable[tmp];
 80007d0:	4a0b      	ldr	r2, [pc, #44]	@ (8000800 <RCC_GetClocksFreq+0x158>)
 80007d2:	69bb      	ldr	r3, [r7, #24]
 80007d4:	4413      	add	r3, r2
 80007d6:	781b      	ldrb	r3, [r3, #0]
 80007d8:	b2db      	uxtb	r3, r3
 80007da:	617b      	str	r3, [r7, #20]
  /* PCLK2 clock frequency */
  RCC_Clocks->PCLK2_Frequency = RCC_Clocks->HCLK_Frequency >> presc;
 80007dc:	687b      	ldr	r3, [r7, #4]
 80007de:	685a      	ldr	r2, [r3, #4]
 80007e0:	697b      	ldr	r3, [r7, #20]
 80007e2:	40da      	lsrs	r2, r3
 80007e4:	687b      	ldr	r3, [r7, #4]
 80007e6:	60da      	str	r2, [r3, #12]
}
 80007e8:	bf00      	nop
 80007ea:	3724      	adds	r7, #36	@ 0x24
 80007ec:	46bd      	mov	sp, r7
 80007ee:	f85d 7b04 	ldr.w	r7, [sp], #4
 80007f2:	4770      	bx	lr
 80007f4:	40023800 	.word	0x40023800
 80007f8:	00f42400 	.word	0x00f42400
 80007fc:	017d7840 	.word	0x017d7840
 8000800:	20000014 	.word	0x20000014

08000804 <RCC_AHB1PeriphClockCmd>:
  * @param  NewState: new state of the specified peripheral clock.
  *          This parameter can be: ENABLE or DISABLE.
  * @retval None
  */
void RCC_AHB1PeriphClockCmd(uint32_t RCC_AHB1Periph, FunctionalState NewState)
{
 8000804:	b480      	push	{r7}
 8000806:	b083      	sub	sp, #12
 8000808:	af00      	add	r7, sp, #0
 800080a:	6078      	str	r0, [r7, #4]
 800080c:	460b      	mov	r3, r1
 800080e:	70fb      	strb	r3, [r7, #3]
  /* Check the parameters */
  assert_param(IS_RCC_AHB1_CLOCK_PERIPH(RCC_AHB1Periph));

  assert_param(IS_FUNCTIONAL_STATE(NewState));
  if (NewState != DISABLE)
 8000810:	78fb      	ldrb	r3, [r7, #3]
 8000812:	2b00      	cmp	r3, #0
 8000814:	d006      	beq.n	8000824 <RCC_AHB1PeriphClockCmd+0x20>
  {
    RCC->AHB1ENR |= RCC_AHB1Periph;
 8000816:	4b0a      	ldr	r3, [pc, #40]	@ (8000840 <RCC_AHB1PeriphClockCmd+0x3c>)
 8000818:	6b1a      	ldr	r2, [r3, #48]	@ 0x30
 800081a:	4909      	ldr	r1, [pc, #36]	@ (8000840 <RCC_AHB1PeriphClockCmd+0x3c>)
 800081c:	687b      	ldr	r3, [r7, #4]
 800081e:	4313      	orrs	r3, r2
 8000820:	630b      	str	r3, [r1, #48]	@ 0x30
  }
  else
  {
    RCC->AHB1ENR &= ~RCC_AHB1Periph;
  }
}
 8000822:	e006      	b.n	8000832 <RCC_AHB1PeriphClockCmd+0x2e>
    RCC->AHB1ENR &= ~RCC_AHB1Periph;
 8000824:	4b06      	ldr	r3, [pc, #24]	@ (8000840 <RCC_AHB1PeriphClockCmd+0x3c>)
 8000826:	6b1a      	ldr	r2, [r3, #48]	@ 0x30
 8000828:	687b      	ldr	r3, [r7, #4]
 800082a:	43db      	mvns	r3, r3
 800082c:	4904      	ldr	r1, [pc, #16]	@ (8000840 <RCC_AHB1PeriphClockCmd+0x3c>)
 800082e:	4013      	ands	r3, r2
 8000830:	630b      	str	r3, [r1, #48]	@ 0x30
}
 8000832:	bf00      	nop
 8000834:	370c      	adds	r7, #12
 8000836:	46bd      	mov	sp, r7
 8000838:	f85d 7b04 	ldr.w	r7, [sp], #4
 800083c:	4770      	bx	lr
 800083e:	bf00      	nop
 8000840:	40023800 	.word	0x40023800

08000844 <RCC_APB1PeriphClockCmd>:
  * @param  NewState: new state of the specified peripheral clock.
  *          This parameter can be: ENABLE or DISABLE.
  * @retval None
  */
void RCC_APB1PeriphClockCmd(uint32_t RCC_APB1Periph, FunctionalState NewState)
{
 8000844:	b480      	push	{r7}
 8000846:	b083      	sub	sp, #12
 8000848:	af00      	add	r7, sp, #0
 800084a:	6078      	str	r0, [r7, #4]
 800084c:	460b      	mov	r3, r1
 800084e:	70fb      	strb	r3, [r7, #3]
  /* Check the parameters */
  assert_param(IS_RCC_APB1_PERIPH(RCC_APB1Periph));
  assert_param(IS_FUNCTIONAL_STATE(NewState));

  if (NewState != DISABLE)
 8000850:	78fb      	ldrb	r3, [r7, #3]
 8000852:	2b00      	cmp	r3, #0
 8000854:	d006      	beq.n	8000864 <RCC_APB1PeriphClockCmd+0x20>
  {
    RCC->APB1ENR |= RCC_APB1Periph;
 8000856:	4b0a      	ldr	r3, [pc, #40]	@ (8000880 <RCC_APB1PeriphClockCmd+0x3c>)
 8000858:	6c1a      	ldr	r2, [r3, #64]	@ 0x40
 800085a:	4909      	ldr	r1, [pc, #36]	@ (8000880 <RCC_APB1PeriphClockCmd+0x3c>)
 800085c:	687b      	ldr	r3, [r7, #4]
 800085e:	4313      	orrs	r3, r2
 8000860:	640b      	str	r3, [r1, #64]	@ 0x40
  }
  else
  {
    RCC->APB1ENR &= ~RCC_APB1Periph;
  }
}
 8000862:	e006      	b.n	8000872 <RCC_APB1PeriphClockCmd+0x2e>
    RCC->APB1ENR &= ~RCC_APB1Periph;
 8000864:	4b06      	ldr	r3, [pc, #24]	@ (8000880 <RCC_APB1PeriphClockCmd+0x3c>)
 8000866:	6c1a      	ldr	r2, [r3, #64]	@ 0x40
 8000868:	687b      	ldr	r3, [r7, #4]
 800086a:	43db      	mvns	r3, r3
 800086c:	4904      	ldr	r1, [pc, #16]	@ (8000880 <RCC_APB1PeriphClockCmd+0x3c>)
 800086e:	4013      	ands	r3, r2
 8000870:	640b      	str	r3, [r1, #64]	@ 0x40
}
 8000872:	bf00      	nop
 8000874:	370c      	adds	r7, #12
 8000876:	46bd      	mov	sp, r7
 8000878:	f85d 7b04 	ldr.w	r7, [sp], #4
 800087c:	4770      	bx	lr
 800087e:	bf00      	nop
 8000880:	40023800 	.word	0x40023800

08000884 <RCC_APB2PeriphClockCmd>:
  * @param  NewState: new state of the specified peripheral clock.
  *          This parameter can be: ENABLE or DISABLE.
  * @retval None
  */
void RCC_APB2PeriphClockCmd(uint32_t RCC_APB2Periph, FunctionalState NewState)
{
 8000884:	b480      	push	{r7}
 8000886:	b083      	sub	sp, #12
 8000888:	af00      	add	r7, sp, #0
 800088a:	6078      	str	r0, [r7, #4]
 800088c:	460b      	mov	r3, r1
 800088e:	70fb      	strb	r3, [r7, #3]
  /* Check the parameters */
  assert_param(IS_RCC_APB2_PERIPH(RCC_APB2Periph));
  assert_param(IS_FUNCTIONAL_STATE(NewState));

  if (NewState != DISABLE)
 8000890:	78fb      	ldrb	r3, [r7, #3]
 8000892:	2b00      	cmp	r3, #0
 8000894:	d006      	beq.n	80008a4 <RCC_APB2PeriphClockCmd+0x20>
  {
    RCC->APB2ENR |= RCC_APB2Periph;
 8000896:	4b0a      	ldr	r3, [pc, #40]	@ (80008c0 <RCC_APB2PeriphClockCmd+0x3c>)
 8000898:	6c5a      	ldr	r2, [r3, #68]	@ 0x44
 800089a:	4909      	ldr	r1, [pc, #36]	@ (80008c0 <RCC_APB2PeriphClockCmd+0x3c>)
 800089c:	687b      	ldr	r3, [r7, #4]
 800089e:	4313      	orrs	r3, r2
 80008a0:	644b      	str	r3, [r1, #68]	@ 0x44
  }
  else
  {
    RCC->APB2ENR &= ~RCC_APB2Periph;
  }
}
 80008a2:	e006      	b.n	80008b2 <RCC_APB2PeriphClockCmd+0x2e>
    RCC->APB2ENR &= ~RCC_APB2Periph;
 80008a4:	4b06      	ldr	r3, [pc, #24]	@ (80008c0 <RCC_APB2PeriphClockCmd+0x3c>)
 80008a6:	6c5a      	ldr	r2, [r3, #68]	@ 0x44
 80008a8:	687b      	ldr	r3, [r7, #4]
 80008aa:	43db      	mvns	r3, r3
 80008ac:	4904      	ldr	r1, [pc, #16]	@ (80008c0 <RCC_APB2PeriphClockCmd+0x3c>)
 80008ae:	4013      	ands	r3, r2
 80008b0:	644b      	str	r3, [r1, #68]	@ 0x44
}
 80008b2:	bf00      	nop
 80008b4:	370c      	adds	r7, #12
 80008b6:	46bd      	mov	sp, r7
 80008b8:	f85d 7b04 	ldr.w	r7, [sp], #4
 80008bc:	4770      	bx	lr
 80008be:	bf00      	nop
 80008c0:	40023800 	.word	0x40023800

080008c4 <TIM_TimeBaseInit>:
  * @param  TIM_TimeBaseInitStruct: pointer to a TIM_TimeBaseInitTypeDef structure
  *         that contains the configuration information for the specified TIM peripheral.
  * @retval None
  */
void TIM_TimeBaseInit(TIM_TypeDef* TIMx, TIM_TimeBaseInitTypeDef* TIM_TimeBaseInitStruct)
{
 80008c4:	b480      	push	{r7}
 80008c6:	b085      	sub	sp, #20
 80008c8:	af00      	add	r7, sp, #0
 80008ca:	6078      	str	r0, [r7, #4]
 80008cc:	6039      	str	r1, [r7, #0]
  uint16_t tmpcr1 = 0;
 80008ce:	2300      	movs	r3, #0
 80008d0:	81fb      	strh	r3, [r7, #14]
  /* Check the parameters */
  assert_param(IS_TIM_ALL_PERIPH(TIMx));
  assert_param(IS_TIM_COUNTER_MODE(TIM_TimeBaseInitStruct->TIM_CounterMode));
  assert_param(IS_TIM_CKD_DIV(TIM_TimeBaseInitStruct->TIM_ClockDivision));

  tmpcr1 = TIMx->CR1;
 80008d2:	687b      	ldr	r3, [r7, #4]
 80008d4:	881b      	ldrh	r3, [r3, #0]
 80008d6:	81fb      	strh	r3, [r7, #14]

  if((TIMx == TIM1) || (TIMx == TIM8)||
 80008d8:	687b      	ldr	r3, [r7, #4]
 80008da:	4a29      	ldr	r2, [pc, #164]	@ (8000980 <TIM_TimeBaseInit+0xbc>)
 80008dc:	4293      	cmp	r3, r2
 80008de:	d013      	beq.n	8000908 <TIM_TimeBaseInit+0x44>
 80008e0:	687b      	ldr	r3, [r7, #4]
 80008e2:	4a28      	ldr	r2, [pc, #160]	@ (8000984 <TIM_TimeBaseInit+0xc0>)
 80008e4:	4293      	cmp	r3, r2
 80008e6:	d00f      	beq.n	8000908 <TIM_TimeBaseInit+0x44>
 80008e8:	687b      	ldr	r3, [r7, #4]
 80008ea:	f1b3 4f80 	cmp.w	r3, #1073741824	@ 0x40000000
 80008ee:	d00b      	beq.n	8000908 <TIM_TimeBaseInit+0x44>
     (TIMx == TIM2) || (TIMx == TIM3)||
 80008f0:	687b      	ldr	r3, [r7, #4]
 80008f2:	4a25      	ldr	r2, [pc, #148]	@ (8000988 <TIM_TimeBaseInit+0xc4>)
 80008f4:	4293      	cmp	r3, r2
 80008f6:	d007      	beq.n	8000908 <TIM_TimeBaseInit+0x44>
 80008f8:	687b      	ldr	r3, [r7, #4]
 80008fa:	4a24      	ldr	r2, [pc, #144]	@ (800098c <TIM_TimeBaseInit+0xc8>)
 80008fc:	4293      	cmp	r3, r2
 80008fe:	d003      	beq.n	8000908 <TIM_TimeBaseInit+0x44>
     (TIMx == TIM4) || (TIMx == TIM5))
 8000900:	687b      	ldr	r3, [r7, #4]
 8000902:	4a23      	ldr	r2, [pc, #140]	@ (8000990 <TIM_TimeBaseInit+0xcc>)
 8000904:	4293      	cmp	r3, r2
 8000906:	d108      	bne.n	800091a <TIM_TimeBaseInit+0x56>
  {
    /* Select the Counter Mode */
    tmpcr1 &= (uint16_t)(~(TIM_CR1_DIR | TIM_CR1_CMS));
 8000908:	89fb      	ldrh	r3, [r7, #14]
 800090a:	f023 0370 	bic.w	r3, r3, #112	@ 0x70
 800090e:	81fb      	strh	r3, [r7, #14]
    tmpcr1 |= (uint32_t)TIM_TimeBaseInitStruct->TIM_CounterMode;
 8000910:	683b      	ldr	r3, [r7, #0]
 8000912:	885a      	ldrh	r2, [r3, #2]
 8000914:	89fb      	ldrh	r3, [r7, #14]
 8000916:	4313      	orrs	r3, r2
 8000918:	81fb      	strh	r3, [r7, #14]
  }

  if((TIMx != TIM6) && (TIMx != TIM7))
 800091a:	687b      	ldr	r3, [r7, #4]
 800091c:	4a1d      	ldr	r2, [pc, #116]	@ (8000994 <TIM_TimeBaseInit+0xd0>)
 800091e:	4293      	cmp	r3, r2
 8000920:	d00c      	beq.n	800093c <TIM_TimeBaseInit+0x78>
 8000922:	687b      	ldr	r3, [r7, #4]
 8000924:	4a1c      	ldr	r2, [pc, #112]	@ (8000998 <TIM_TimeBaseInit+0xd4>)
 8000926:	4293      	cmp	r3, r2
 8000928:	d008      	beq.n	800093c <TIM_TimeBaseInit+0x78>
  {
    /* Set the clock division */
    tmpcr1 &=  (uint16_t)(~TIM_CR1_CKD);
 800092a:	89fb      	ldrh	r3, [r7, #14]
 800092c:	f423 7340 	bic.w	r3, r3, #768	@ 0x300
 8000930:	81fb      	strh	r3, [r7, #14]
    tmpcr1 |= (uint32_t)TIM_TimeBaseInitStruct->TIM_ClockDivision;
 8000932:	683b      	ldr	r3, [r7, #0]
 8000934:	891a      	ldrh	r2, [r3, #8]
 8000936:	89fb      	ldrh	r3, [r7, #14]
 8000938:	4313      	orrs	r3, r2
 800093a:	81fb      	strh	r3, [r7, #14]
  }

  TIMx->CR1 = tmpcr1;
 800093c:	687b      	ldr	r3, [r7, #4]
 800093e:	89fa      	ldrh	r2, [r7, #14]
 8000940:	801a      	strh	r2, [r3, #0]

  /* Set the Autoreload value */
  TIMx->ARR = TIM_TimeBaseInitStruct->TIM_Period ;
 8000942:	683b      	ldr	r3, [r7, #0]
 8000944:	685a      	ldr	r2, [r3, #4]
 8000946:	687b      	ldr	r3, [r7, #4]
 8000948:	62da      	str	r2, [r3, #44]	@ 0x2c

  /* Set the Prescaler value */
  TIMx->PSC = TIM_TimeBaseInitStruct->TIM_Prescaler;
 800094a:	683b      	ldr	r3, [r7, #0]
 800094c:	881a      	ldrh	r2, [r3, #0]
 800094e:	687b      	ldr	r3, [r7, #4]
 8000950:	851a      	strh	r2, [r3, #40]	@ 0x28

  if ((TIMx == TIM1) || (TIMx == TIM8))
 8000952:	687b      	ldr	r3, [r7, #4]
 8000954:	4a0a      	ldr	r2, [pc, #40]	@ (8000980 <TIM_TimeBaseInit+0xbc>)
 8000956:	4293      	cmp	r3, r2
 8000958:	d003      	beq.n	8000962 <TIM_TimeBaseInit+0x9e>
 800095a:	687b      	ldr	r3, [r7, #4]
 800095c:	4a09      	ldr	r2, [pc, #36]	@ (8000984 <TIM_TimeBaseInit+0xc0>)
 800095e:	4293      	cmp	r3, r2
 8000960:	d104      	bne.n	800096c <TIM_TimeBaseInit+0xa8>
  {
    /* Set the Repetition Counter value */
    TIMx->RCR = TIM_TimeBaseInitStruct->TIM_RepetitionCounter;
 8000962:	683b      	ldr	r3, [r7, #0]
 8000964:	7a9b      	ldrb	r3, [r3, #10]
 8000966:	461a      	mov	r2, r3
 8000968:	687b      	ldr	r3, [r7, #4]
 800096a:	861a      	strh	r2, [r3, #48]	@ 0x30
  }

  /* Generate an update event to reload the Prescaler
     and the repetition counter(only for TIM1 and TIM8) value immediately */
  TIMx->EGR = TIM_PSCReloadMode_Immediate;
 800096c:	687b      	ldr	r3, [r7, #4]
 800096e:	2201      	movs	r2, #1
 8000970:	829a      	strh	r2, [r3, #20]
}
 8000972:	bf00      	nop
 8000974:	3714      	adds	r7, #20
 8000976:	46bd      	mov	sp, r7
 8000978:	f85d 7b04 	ldr.w	r7, [sp], #4
 800097c:	4770      	bx	lr
 800097e:	bf00      	nop
 8000980:	40010000 	.word	0x40010000
 8000984:	40010400 	.word	0x40010400
 8000988:	40000400 	.word	0x40000400
 800098c:	40000800 	.word	0x40000800
 8000990:	40000c00 	.word	0x40000c00
 8000994:	40001000 	.word	0x40001000
 8000998:	40001400 	.word	0x40001400

0800099c <TIM_Cmd>:
  * @param  NewState: new state of the TIMx peripheral.
  *          This parameter can be: ENABLE or DISABLE.
  * @retval None
  */
void TIM_Cmd(TIM_TypeDef* TIMx, FunctionalState NewState)
{
 800099c:	b480      	push	{r7}
 800099e:	b083      	sub	sp, #12
 80009a0:	af00      	add	r7, sp, #0
 80009a2:	6078      	str	r0, [r7, #4]
 80009a4:	460b      	mov	r3, r1
 80009a6:	70fb      	strb	r3, [r7, #3]
  /* Check the parameters */
  assert_param(IS_TIM_ALL_PERIPH(TIMx));
  assert_param(IS_FUNCTIONAL_STATE(NewState));

  if (NewState != DISABLE)
 80009a8:	78fb      	ldrb	r3, [r7, #3]
 80009aa:	2b00      	cmp	r3, #0
 80009ac:	d008      	beq.n	80009c0 <TIM_Cmd+0x24>
  {
    /* Enable the TIM Counter */
    TIMx->CR1 |= TIM_CR1_CEN;
 80009ae:	687b      	ldr	r3, [r7, #4]
 80009b0:	881b      	ldrh	r3, [r3, #0]
 80009b2:	b29b      	uxth	r3, r3
 80009b4:	f043 0301 	orr.w	r3, r3, #1
 80009b8:	b29a      	uxth	r2, r3
 80009ba:	687b      	ldr	r3, [r7, #4]
 80009bc:	801a      	strh	r2, [r3, #0]
  else
  {
    /* Disable the TIM Counter */
    TIMx->CR1 &= (uint16_t)~TIM_CR1_CEN;
  }
}
 80009be:	e007      	b.n	80009d0 <TIM_Cmd+0x34>
    TIMx->CR1 &= (uint16_t)~TIM_CR1_CEN;
 80009c0:	687b      	ldr	r3, [r7, #4]
 80009c2:	881b      	ldrh	r3, [r3, #0]
 80009c4:	b29b      	uxth	r3, r3
 80009c6:	f023 0301 	bic.w	r3, r3, #1
 80009ca:	b29a      	uxth	r2, r3
 80009cc:	687b      	ldr	r3, [r7, #4]
 80009ce:	801a      	strh	r2, [r3, #0]
}
 80009d0:	bf00      	nop
 80009d2:	370c      	adds	r7, #12
 80009d4:	46bd      	mov	sp, r7
 80009d6:	f85d 7b04 	ldr.w	r7, [sp], #4
 80009da:	4770      	bx	lr

080009dc <TIM_OC1Init>:
  * @param  TIM_OCInitStruct: pointer to a TIM_OCInitTypeDef structure that contains
  *         the configuration information for the specified TIM peripheral.
  * @retval None
  */
void TIM_OC1Init(TIM_TypeDef* TIMx, TIM_OCInitTypeDef* TIM_OCInitStruct)
{
 80009dc:	b480      	push	{r7}
 80009de:	b085      	sub	sp, #20
 80009e0:	af00      	add	r7, sp, #0
 80009e2:	6078      	str	r0, [r7, #4]
 80009e4:	6039      	str	r1, [r7, #0]
  uint16_t tmpccmrx = 0, tmpccer = 0, tmpcr2 = 0;
 80009e6:	2300      	movs	r3, #0
 80009e8:	817b      	strh	r3, [r7, #10]
 80009ea:	2300      	movs	r3, #0
 80009ec:	81fb      	strh	r3, [r7, #14]
 80009ee:	2300      	movs	r3, #0
 80009f0:	81bb      	strh	r3, [r7, #12]
  assert_param(IS_TIM_OC_MODE(TIM_OCInitStruct->TIM_OCMode));
  assert_param(IS_TIM_OUTPUT_STATE(TIM_OCInitStruct->TIM_OutputState));
  assert_param(IS_TIM_OC_POLARITY(TIM_OCInitStruct->TIM_OCPolarity));

  /* Disable the Channel 1: Reset the CC1E Bit */
  TIMx->CCER &= (uint16_t)~TIM_CCER_CC1E;
 80009f2:	687b      	ldr	r3, [r7, #4]
 80009f4:	8c1b      	ldrh	r3, [r3, #32]
 80009f6:	b29b      	uxth	r3, r3
 80009f8:	f023 0301 	bic.w	r3, r3, #1
 80009fc:	b29a      	uxth	r2, r3
 80009fe:	687b      	ldr	r3, [r7, #4]
 8000a00:	841a      	strh	r2, [r3, #32]

  /* Get the TIMx CCER register value */
  tmpccer = TIMx->CCER;
 8000a02:	687b      	ldr	r3, [r7, #4]
 8000a04:	8c1b      	ldrh	r3, [r3, #32]
 8000a06:	81fb      	strh	r3, [r7, #14]
  /* Get the TIMx CR2 register value */
  tmpcr2 =  TIMx->CR2;
 8000a08:	687b      	ldr	r3, [r7, #4]
 8000a0a:	889b      	ldrh	r3, [r3, #4]
 8000a0c:	81bb      	strh	r3, [r7, #12]

  /* Get the TIMx CCMR1 register value */
  tmpccmrx = TIMx->CCMR1;
 8000a0e:	687b      	ldr	r3, [r7, #4]
 8000a10:	8b1b      	ldrh	r3, [r3, #24]
 8000a12:	817b      	strh	r3, [r7, #10]

  /* Reset the Output Compare Mode Bits */
  tmpccmrx &= (uint16_t)~TIM_CCMR1_OC1M;
 8000a14:	897b      	ldrh	r3, [r7, #10]
 8000a16:	f023 0370 	bic.w	r3, r3, #112	@ 0x70
 8000a1a:	817b      	strh	r3, [r7, #10]
  tmpccmrx &= (uint16_t)~TIM_CCMR1_CC1S;
 8000a1c:	897b      	ldrh	r3, [r7, #10]
 8000a1e:	f023 0303 	bic.w	r3, r3, #3
 8000a22:	817b      	strh	r3, [r7, #10]
  /* Select the Output Compare Mode */
  tmpccmrx |= TIM_OCInitStruct->TIM_OCMode;
 8000a24:	683b      	ldr	r3, [r7, #0]
 8000a26:	881a      	ldrh	r2, [r3, #0]
 8000a28:	897b      	ldrh	r3, [r7, #10]
 8000a2a:	4313      	orrs	r3, r2
 8000a2c:	817b      	strh	r3, [r7, #10]

  /* Reset the Output Polarity level */
  tmpccer &= (uint16_t)~TIM_CCER_CC1P;
 8000a2e:	89fb      	ldrh	r3, [r7, #14]
 8000a30:	f023 0302 	bic.w	r3, r3, #2
 8000a34:	81fb      	strh	r3, [r7, #14]
  /* Set the Output Compare Polarity */
  tmpccer |= TIM_OCInitStruct->TIM_OCPolarity;
 8000a36:	683b      	ldr	r3, [r7, #0]
 8000a38:	899a      	ldrh	r2, [r3, #12]
 8000a3a:	89fb      	ldrh	r3, [r7, #14]
 8000a3c:	4313      	orrs	r3, r2
 8000a3e:	81fb      	strh	r3, [r7, #14]

  /* Set the Output State */
  tmpccer |= TIM_OCInitStruct->TIM_OutputState;
 8000a40:	683b      	ldr	r3, [r7, #0]
 8000a42:	885a      	ldrh	r2, [r3, #2]
 8000a44:	89fb      	ldrh	r3, [r7, #14]
 8000a46:	4313      	orrs	r3, r2
 8000a48:	81fb      	strh	r3, [r7, #14]

  if((TIMx == TIM1) || (TIMx == TIM8))
 8000a4a:	687b      	ldr	r3, [r7, #4]
 8000a4c:	4a1e      	ldr	r2, [pc, #120]	@ (8000ac8 <TIM_OC1Init+0xec>)
 8000a4e:	4293      	cmp	r3, r2
 8000a50:	d003      	beq.n	8000a5a <TIM_OC1Init+0x7e>
 8000a52:	687b      	ldr	r3, [r7, #4]
 8000a54:	4a1d      	ldr	r2, [pc, #116]	@ (8000acc <TIM_OC1Init+0xf0>)
 8000a56:	4293      	cmp	r3, r2
 8000a58:	d123      	bne.n	8000aa2 <TIM_OC1Init+0xc6>
    assert_param(IS_TIM_OCN_POLARITY(TIM_OCInitStruct->TIM_OCNPolarity));
    assert_param(IS_TIM_OCNIDLE_STATE(TIM_OCInitStruct->TIM_OCNIdleState));
    assert_param(IS_TIM_OCIDLE_STATE(TIM_OCInitStruct->TIM_OCIdleState));

    /* Reset the Output N Polarity level */
    tmpccer &= (uint16_t)~TIM_CCER_CC1NP;
 8000a5a:	89fb      	ldrh	r3, [r7, #14]
 8000a5c:	f023 0308 	bic.w	r3, r3, #8
 8000a60:	81fb      	strh	r3, [r7, #14]
    /* Set the Output N Polarity */
    tmpccer |= TIM_OCInitStruct->TIM_OCNPolarity;
 8000a62:	683b      	ldr	r3, [r7, #0]
 8000a64:	89da      	ldrh	r2, [r3, #14]
 8000a66:	89fb      	ldrh	r3, [r7, #14]
 8000a68:	4313      	orrs	r3, r2
 8000a6a:	81fb      	strh	r3, [r7, #14]
    /* Reset the Output N State */
    tmpccer &= (uint16_t)~TIM_CCER_CC1NE;
 8000a6c:	89fb      	ldrh	r3, [r7, #14]
 8000a6e:	f023 0304 	bic.w	r3, r3, #4
 8000a72:	81fb      	strh	r3, [r7, #14]

    /* Set the Output N State */
    tmpccer |= TIM_OCInitStruct->TIM_OutputNState;
 8000a74:	683b      	ldr	r3, [r7, #0]
 8000a76:	889a      	ldrh	r2, [r3, #4]
 8000a78:	89fb      	ldrh	r3, [r7, #14]
 8000a7a:	4313      	orrs	r3, r2
 8000a7c:	81fb      	strh	r3, [r7, #14]
    /* Reset the Output Compare and Output Compare N IDLE State */
    tmpcr2 &= (uint16_t)~TIM_CR2_OIS1;
 8000a7e:	89bb      	ldrh	r3, [r7, #12]
 8000a80:	f423 7380 	bic.w	r3, r3, #256	@ 0x100
 8000a84:	81bb      	strh	r3, [r7, #12]
    tmpcr2 &= (uint16_t)~TIM_CR2_OIS1N;
 8000a86:	89bb      	ldrh	r3, [r7, #12]
 8000a88:	f423 7300 	bic.w	r3, r3, #512	@ 0x200
 8000a8c:	81bb      	strh	r3, [r7, #12]
    /* Set the Output Idle state */
    tmpcr2 |= TIM_OCInitStruct->TIM_OCIdleState;
 8000a8e:	683b      	ldr	r3, [r7, #0]
 8000a90:	8a1a      	ldrh	r2, [r3, #16]
 8000a92:	89bb      	ldrh	r3, [r7, #12]
 8000a94:	4313      	orrs	r3, r2
 8000a96:	81bb      	strh	r3, [r7, #12]
    /* Set the Output N Idle state */
    tmpcr2 |= TIM_OCInitStruct->TIM_OCNIdleState;
 8000a98:	683b      	ldr	r3, [r7, #0]
 8000a9a:	8a5a      	ldrh	r2, [r3, #18]
 8000a9c:	89bb      	ldrh	r3, [r7, #12]
 8000a9e:	4313      	orrs	r3, r2
 8000aa0:	81bb      	strh	r3, [r7, #12]
  }
  /* Write to TIMx CR2 */
  TIMx->CR2 = tmpcr2;
 8000aa2:	687b      	ldr	r3, [r7, #4]
 8000aa4:	89ba      	ldrh	r2, [r7, #12]
 8000aa6:	809a      	strh	r2, [r3, #4]

  /* Write to TIMx CCMR1 */
  TIMx->CCMR1 = tmpccmrx;
 8000aa8:	687b      	ldr	r3, [r7, #4]
 8000aaa:	897a      	ldrh	r2, [r7, #10]
 8000aac:	831a      	strh	r2, [r3, #24]

  /* Set the Capture Compare Register value */
  TIMx->CCR1 = TIM_OCInitStruct->TIM_Pulse;
 8000aae:	683b      	ldr	r3, [r7, #0]
 8000ab0:	689a      	ldr	r2, [r3, #8]
 8000ab2:	687b      	ldr	r3, [r7, #4]
 8000ab4:	635a      	str	r2, [r3, #52]	@ 0x34

  /* Write to TIMx CCER */
  TIMx->CCER = tmpccer;
 8000ab6:	687b      	ldr	r3, [r7, #4]
 8000ab8:	89fa      	ldrh	r2, [r7, #14]
 8000aba:	841a      	strh	r2, [r3, #32]
}
 8000abc:	bf00      	nop
 8000abe:	3714      	adds	r7, #20
 8000ac0:	46bd      	mov	sp, r7
 8000ac2:	f85d 7b04 	ldr.w	r7, [sp], #4
 8000ac6:	4770      	bx	lr
 8000ac8:	40010000 	.word	0x40010000
 8000acc:	40010400 	.word	0x40010400

08000ad0 <TIM_OC2Init>:
  * @param  TIM_OCInitStruct: pointer to a TIM_OCInitTypeDef structure that contains
  *         the configuration information for the specified TIM peripheral.
  * @retval None
  */
void TIM_OC2Init(TIM_TypeDef* TIMx, TIM_OCInitTypeDef* TIM_OCInitStruct)
{
 8000ad0:	b480      	push	{r7}
 8000ad2:	b085      	sub	sp, #20
 8000ad4:	af00      	add	r7, sp, #0
 8000ad6:	6078      	str	r0, [r7, #4]
 8000ad8:	6039      	str	r1, [r7, #0]
  uint16_t tmpccmrx = 0, tmpccer = 0, tmpcr2 = 0;
 8000ada:	2300      	movs	r3, #0
 8000adc:	817b      	strh	r3, [r7, #10]
 8000ade:	2300      	movs	r3, #0
 8000ae0:	81fb      	strh	r3, [r7, #14]
 8000ae2:	2300      	movs	r3, #0
 8000ae4:	81bb      	strh	r3, [r7, #12]
  assert_param(IS_TIM_OC_MODE(TIM_OCInitStruct->TIM_OCMode));
  assert_param(IS_TIM_OUTPUT_STATE(TIM_OCInitStruct->TIM_OutputState));
  assert_param(IS_TIM_OC_POLARITY(TIM_OCInitStruct->TIM_OCPolarity));

  /* Disable the Channel 2: Reset the CC2E Bit */
  TIMx->CCER &= (uint16_t)~TIM_CCER_CC2E;
 8000ae6:	687b      	ldr	r3, [r7, #4]
 8000ae8:	8c1b      	ldrh	r3, [r3, #32]
 8000aea:	b29b      	uxth	r3, r3
 8000aec:	f023 0310 	bic.w	r3, r3, #16
 8000af0:	b29a      	uxth	r2, r3
 8000af2:	687b      	ldr	r3, [r7, #4]
 8000af4:	841a      	strh	r2, [r3, #32]

  /* Get the TIMx CCER register value */
  tmpccer = TIMx->CCER;
 8000af6:	687b      	ldr	r3, [r7, #4]
 8000af8:	8c1b      	ldrh	r3, [r3, #32]
 8000afa:	81fb      	strh	r3, [r7, #14]
  /* Get the TIMx CR2 register value */
  tmpcr2 =  TIMx->CR2;
 8000afc:	687b      	ldr	r3, [r7, #4]
 8000afe:	889b      	ldrh	r3, [r3, #4]
 8000b00:	81bb      	strh	r3, [r7, #12]

  /* Get the TIMx CCMR1 register value */
  tmpccmrx = TIMx->CCMR1;
 8000b02:	687b      	ldr	r3, [r7, #4]
 8000b04:	8b1b      	ldrh	r3, [r3, #24]
 8000b06:	817b      	strh	r3, [r7, #10]

  /* Reset the Output Compare mode and Capture/Compare selection Bits */
  tmpccmrx &= (uint16_t)~TIM_CCMR1_OC2M;
 8000b08:	897b      	ldrh	r3, [r7, #10]
 8000b0a:	f423 43e0 	bic.w	r3, r3, #28672	@ 0x7000
 8000b0e:	817b      	strh	r3, [r7, #10]
  tmpccmrx &= (uint16_t)~TIM_CCMR1_CC2S;
 8000b10:	897b      	ldrh	r3, [r7, #10]
 8000b12:	f423 7340 	bic.w	r3, r3, #768	@ 0x300
 8000b16:	817b      	strh	r3, [r7, #10]

  /* Select the Output Compare Mode */
  tmpccmrx |= (uint16_t)(TIM_OCInitStruct->TIM_OCMode << 8);
 8000b18:	683b      	ldr	r3, [r7, #0]
 8000b1a:	881b      	ldrh	r3, [r3, #0]
 8000b1c:	021b      	lsls	r3, r3, #8
 8000b1e:	b29a      	uxth	r2, r3
 8000b20:	897b      	ldrh	r3, [r7, #10]
 8000b22:	4313      	orrs	r3, r2
 8000b24:	817b      	strh	r3, [r7, #10]

  /* Reset the Output Polarity level */
  tmpccer &= (uint16_t)~TIM_CCER_CC2P;
 8000b26:	89fb      	ldrh	r3, [r7, #14]
 8000b28:	f023 0320 	bic.w	r3, r3, #32
 8000b2c:	81fb      	strh	r3, [r7, #14]
  /* Set the Output Compare Polarity */
  tmpccer |= (uint16_t)(TIM_OCInitStruct->TIM_OCPolarity << 4);
 8000b2e:	683b      	ldr	r3, [r7, #0]
 8000b30:	899b      	ldrh	r3, [r3, #12]
 8000b32:	011b      	lsls	r3, r3, #4
 8000b34:	b29a      	uxth	r2, r3
 8000b36:	89fb      	ldrh	r3, [r7, #14]
 8000b38:	4313      	orrs	r3, r2
 8000b3a:	81fb      	strh	r3, [r7, #14]

  /* Set the Output State */
  tmpccer |= (uint16_t)(TIM_OCInitStruct->TIM_OutputState << 4);
 8000b3c:	683b      	ldr	r3, [r7, #0]
 8000b3e:	885b      	ldrh	r3, [r3, #2]
 8000b40:	011b      	lsls	r3, r3, #4
 8000b42:	b29a      	uxth	r2, r3
 8000b44:	89fb      	ldrh	r3, [r7, #14]
 8000b46:	4313      	orrs	r3, r2
 8000b48:	81fb      	strh	r3, [r7, #14]

  if((TIMx == TIM1) || (TIMx == TIM8))
 8000b4a:	687b      	ldr	r3, [r7, #4]
 8000b4c:	4a22      	ldr	r2, [pc, #136]	@ (8000bd8 <TIM_OC2Init+0x108>)
 8000b4e:	4293      	cmp	r3, r2
 8000b50:	d003      	beq.n	8000b5a <TIM_OC2Init+0x8a>
 8000b52:	687b      	ldr	r3, [r7, #4]
 8000b54:	4a21      	ldr	r2, [pc, #132]	@ (8000bdc <TIM_OC2Init+0x10c>)
 8000b56:	4293      	cmp	r3, r2
 8000b58:	d12b      	bne.n	8000bb2 <TIM_OC2Init+0xe2>
    assert_param(IS_TIM_OCN_POLARITY(TIM_OCInitStruct->TIM_OCNPolarity));
    assert_param(IS_TIM_OCNIDLE_STATE(TIM_OCInitStruct->TIM_OCNIdleState));
    assert_param(IS_TIM_OCIDLE_STATE(TIM_OCInitStruct->TIM_OCIdleState));

    /* Reset the Output N Polarity level */
    tmpccer &= (uint16_t)~TIM_CCER_CC2NP;
 8000b5a:	89fb      	ldrh	r3, [r7, #14]
 8000b5c:	f023 0380 	bic.w	r3, r3, #128	@ 0x80
 8000b60:	81fb      	strh	r3, [r7, #14]
    /* Set the Output N Polarity */
    tmpccer |= (uint16_t)(TIM_OCInitStruct->TIM_OCNPolarity << 4);
 8000b62:	683b      	ldr	r3, [r7, #0]
 8000b64:	89db      	ldrh	r3, [r3, #14]
 8000b66:	011b      	lsls	r3, r3, #4
 8000b68:	b29a      	uxth	r2, r3
 8000b6a:	89fb      	ldrh	r3, [r7, #14]
 8000b6c:	4313      	orrs	r3, r2
 8000b6e:	81fb      	strh	r3, [r7, #14]
    /* Reset the Output N State */
    tmpccer &= (uint16_t)~TIM_CCER_CC2NE;
 8000b70:	89fb      	ldrh	r3, [r7, #14]
 8000b72:	f023 0340 	bic.w	r3, r3, #64	@ 0x40
 8000b76:	81fb      	strh	r3, [r7, #14]

    /* Set the Output N State */
    tmpccer |= (uint16_t)(TIM_OCInitStruct->TIM_OutputNState << 4);
 8000b78:	683b      	ldr	r3, [r7, #0]
 8000b7a:	889b      	ldrh	r3, [r3, #4]
 8000b7c:	011b      	lsls	r3, r3, #4
 8000b7e:	b29a      	uxth	r2, r3
 8000b80:	89fb      	ldrh	r3, [r7, #14]
 8000b82:	4313      	orrs	r3, r2
 8000b84:	81fb      	strh	r3, [r7, #14]
    /* Reset the Output Compare and Output Compare N IDLE State */
    tmpcr2 &= (uint16_t)~TIM_CR2_OIS2;
 8000b86:	89bb      	ldrh	r3, [r7, #12]
 8000b88:	f423 6380 	bic.w	r3, r3, #1024	@ 0x400
 8000b8c:	81bb      	strh	r3, [r7, #12]
    tmpcr2 &= (uint16_t)~TIM_CR2_OIS2N;
 8000b8e:	89bb      	ldrh	r3, [r7, #12]
 8000b90:	f423 6300 	bic.w	r3, r3, #2048	@ 0x800
 8000b94:	81bb      	strh	r3, [r7, #12]
    /* Set the Output Idle state */
    tmpcr2 |= (uint16_t)(TIM_OCInitStruct->TIM_OCIdleState << 2);
 8000b96:	683b      	ldr	r3, [r7, #0]
 8000b98:	8a1b      	ldrh	r3, [r3, #16]
 8000b9a:	009b      	lsls	r3, r3, #2
 8000b9c:	b29a      	uxth	r2, r3
 8000b9e:	89bb      	ldrh	r3, [r7, #12]
 8000ba0:	4313      	orrs	r3, r2
 8000ba2:	81bb      	strh	r3, [r7, #12]
    /* Set the Output N Idle state */
    tmpcr2 |= (uint16_t)(TIM_OCInitStruct->TIM_OCNIdleState << 2);
 8000ba4:	683b      	ldr	r3, [r7, #0]
 8000ba6:	8a5b      	ldrh	r3, [r3, #18]
 8000ba8:	009b      	lsls	r3, r3, #2
 8000baa:	b29a      	uxth	r2, r3
 8000bac:	89bb      	ldrh	r3, [r7, #12]
 8000bae:	4313      	orrs	r3, r2
 8000bb0:	81bb      	strh	r3, [r7, #12]
  }
  /* Write to TIMx CR2 */
  TIMx->CR2 = tmpcr2;
 8000bb2:	687b      	ldr	r3, [r7, #4]
 8000bb4:	89ba      	ldrh	r2, [r7, #12]
 8000bb6:	809a      	strh	r2, [r3, #4]

  /* Write to TIMx CCMR1 */
  TIMx->CCMR1 = tmpccmrx;
 8000bb8:	687b      	ldr	r3, [r7, #4]
 8000bba:	897a      	ldrh	r2, [r7, #10]
 8000bbc:	831a      	strh	r2, [r3, #24]

  /* Set the Capture Compare Register value */
  TIMx->CCR2 = TIM_OCInitStruct->TIM_Pulse;
 8000bbe:	683b      	ldr	r3, [r7, #0]
 8000bc0:	689a      	ldr	r2, [r3, #8]
 8000bc2:	687b      	ldr	r3, [r7, #4]
 8000bc4:	639a      	str	r2, [r3, #56]	@ 0x38

  /* Write to TIMx CCER */
  TIMx->CCER = tmpccer;
 8000bc6:	687b      	ldr	r3, [r7, #4]
 8000bc8:	89fa      	ldrh	r2, [r7, #14]
 8000bca:	841a      	strh	r2, [r3, #32]
}
 8000bcc:	bf00      	nop
 8000bce:	3714      	adds	r7, #20
 8000bd0:	46bd      	mov	sp, r7
 8000bd2:	f85d 7b04 	ldr.w	r7, [sp], #4
 8000bd6:	4770      	bx	lr
 8000bd8:	40010000 	.word	0x40010000
 8000bdc:	40010400 	.word	0x40010400

08000be0 <TIM_OC3Init>:
  * @param  TIM_OCInitStruct: pointer to a TIM_OCInitTypeDef structure that contains
  *         the configuration information for the specified TIM peripheral.
  * @retval None
  */
void TIM_OC3Init(TIM_TypeDef* TIMx, TIM_OCInitTypeDef* TIM_OCInitStruct)
{
 8000be0:	b480      	push	{r7}
 8000be2:	b085      	sub	sp, #20
 8000be4:	af00      	add	r7, sp, #0
 8000be6:	6078      	str	r0, [r7, #4]
 8000be8:	6039      	str	r1, [r7, #0]
  uint16_t tmpccmrx = 0, tmpccer = 0, tmpcr2 = 0;
 8000bea:	2300      	movs	r3, #0
 8000bec:	817b      	strh	r3, [r7, #10]
 8000bee:	2300      	movs	r3, #0
 8000bf0:	81fb      	strh	r3, [r7, #14]
 8000bf2:	2300      	movs	r3, #0
 8000bf4:	81bb      	strh	r3, [r7, #12]
  assert_param(IS_TIM_OC_MODE(TIM_OCInitStruct->TIM_OCMode));
  assert_param(IS_TIM_OUTPUT_STATE(TIM_OCInitStruct->TIM_OutputState));
  assert_param(IS_TIM_OC_POLARITY(TIM_OCInitStruct->TIM_OCPolarity));

  /* Disable the Channel 3: Reset the CC2E Bit */
  TIMx->CCER &= (uint16_t)~TIM_CCER_CC3E;
 8000bf6:	687b      	ldr	r3, [r7, #4]
 8000bf8:	8c1b      	ldrh	r3, [r3, #32]
 8000bfa:	b29b      	uxth	r3, r3
 8000bfc:	f423 7380 	bic.w	r3, r3, #256	@ 0x100
 8000c00:	b29a      	uxth	r2, r3
 8000c02:	687b      	ldr	r3, [r7, #4]
 8000c04:	841a      	strh	r2, [r3, #32]

  /* Get the TIMx CCER register value */
  tmpccer = TIMx->CCER;
 8000c06:	687b      	ldr	r3, [r7, #4]
 8000c08:	8c1b      	ldrh	r3, [r3, #32]
 8000c0a:	81fb      	strh	r3, [r7, #14]
  /* Get the TIMx CR2 register value */
  tmpcr2 =  TIMx->CR2;
 8000c0c:	687b      	ldr	r3, [r7, #4]
 8000c0e:	889b      	ldrh	r3, [r3, #4]
 8000c10:	81bb      	strh	r3, [r7, #12]

  /* Get the TIMx CCMR2 register value */
  tmpccmrx = TIMx->CCMR2;
 8000c12:	687b      	ldr	r3, [r7, #4]
 8000c14:	8b9b      	ldrh	r3, [r3, #28]
 8000c16:	817b      	strh	r3, [r7, #10]

  /* Reset the Output Compare mode and Capture/Compare selection Bits */
  tmpccmrx &= (uint16_t)~TIM_CCMR2_OC3M;
 8000c18:	897b      	ldrh	r3, [r7, #10]
 8000c1a:	f023 0370 	bic.w	r3, r3, #112	@ 0x70
 8000c1e:	817b      	strh	r3, [r7, #10]
  tmpccmrx &= (uint16_t)~TIM_CCMR2_CC3S;
 8000c20:	897b      	ldrh	r3, [r7, #10]
 8000c22:	f023 0303 	bic.w	r3, r3, #3
 8000c26:	817b      	strh	r3, [r7, #10]
  /* Select the Output Compare Mode */
  tmpccmrx |= TIM_OCInitStruct->TIM_OCMode;
 8000c28:	683b      	ldr	r3, [r7, #0]
 8000c2a:	881a      	ldrh	r2, [r3, #0]
 8000c2c:	897b      	ldrh	r3, [r7, #10]
 8000c2e:	4313      	orrs	r3, r2
 8000c30:	817b      	strh	r3, [r7, #10]

  /* Reset the Output Polarity level */
  tmpccer &= (uint16_t)~TIM_CCER_CC3P;
 8000c32:	89fb      	ldrh	r3, [r7, #14]
 8000c34:	f423 7300 	bic.w	r3, r3, #512	@ 0x200
 8000c38:	81fb      	strh	r3, [r7, #14]
  /* Set the Output Compare Polarity */
  tmpccer |= (uint16_t)(TIM_OCInitStruct->TIM_OCPolarity << 8);
 8000c3a:	683b      	ldr	r3, [r7, #0]
 8000c3c:	899b      	ldrh	r3, [r3, #12]
 8000c3e:	021b      	lsls	r3, r3, #8
 8000c40:	b29a      	uxth	r2, r3
 8000c42:	89fb      	ldrh	r3, [r7, #14]
 8000c44:	4313      	orrs	r3, r2
 8000c46:	81fb      	strh	r3, [r7, #14]

  /* Set the Output State */
  tmpccer |= (uint16_t)(TIM_OCInitStruct->TIM_OutputState << 8);
 8000c48:	683b      	ldr	r3, [r7, #0]
 8000c4a:	885b      	ldrh	r3, [r3, #2]
 8000c4c:	021b      	lsls	r3, r3, #8
 8000c4e:	b29a      	uxth	r2, r3
 8000c50:	89fb      	ldrh	r3, [r7, #14]
 8000c52:	4313      	orrs	r3, r2
 8000c54:	81fb      	strh	r3, [r7, #14]

  if((TIMx == TIM1) || (TIMx == TIM8))
 8000c56:	687b      	ldr	r3, [r7, #4]
 8000c58:	4a22      	ldr	r2, [pc, #136]	@ (8000ce4 <TIM_OC3Init+0x104>)
 8000c5a:	4293      	cmp	r3, r2
 8000c5c:	d003      	beq.n	8000c66 <TIM_OC3Init+0x86>
 8000c5e:	687b      	ldr	r3, [r7, #4]
 8000c60:	4a21      	ldr	r2, [pc, #132]	@ (8000ce8 <TIM_OC3Init+0x108>)
 8000c62:	4293      	cmp	r3, r2
 8000c64:	d12b      	bne.n	8000cbe <TIM_OC3Init+0xde>
    assert_param(IS_TIM_OCN_POLARITY(TIM_OCInitStruct->TIM_OCNPolarity));
    assert_param(IS_TIM_OCNIDLE_STATE(TIM_OCInitStruct->TIM_OCNIdleState));
    assert_param(IS_TIM_OCIDLE_STATE(TIM_OCInitStruct->TIM_OCIdleState));

    /* Reset the Output N Polarity level */
    tmpccer &= (uint16_t)~TIM_CCER_CC3NP;
 8000c66:	89fb      	ldrh	r3, [r7, #14]
 8000c68:	f423 6300 	bic.w	r3, r3, #2048	@ 0x800
 8000c6c:	81fb      	strh	r3, [r7, #14]
    /* Set the Output N Polarity */
    tmpccer |= (uint16_t)(TIM_OCInitStruct->TIM_OCNPolarity << 8);
 8000c6e:	683b      	ldr	r3, [r7, #0]
 8000c70:	89db      	ldrh	r3, [r3, #14]
 8000c72:	021b      	lsls	r3, r3, #8
 8000c74:	b29a      	uxth	r2, r3
 8000c76:	89fb      	ldrh	r3, [r7, #14]
 8000c78:	4313      	orrs	r3, r2
 8000c7a:	81fb      	strh	r3, [r7, #14]
    /* Reset the Output N State */
    tmpccer &= (uint16_t)~TIM_CCER_CC3NE;
 8000c7c:	89fb      	ldrh	r3, [r7, #14]
 8000c7e:	f423 6380 	bic.w	r3, r3, #1024	@ 0x400
 8000c82:	81fb      	strh	r3, [r7, #14]

    /* Set the Output N State */
    tmpccer |= (uint16_t)(TIM_OCInitStruct->TIM_OutputNState << 8);
 8000c84:	683b      	ldr	r3, [r7, #0]
 8000c86:	889b      	ldrh	r3, [r3, #4]
 8000c88:	021b      	lsls	r3, r3, #8
 8000c8a:	b29a      	uxth	r2, r3
 8000c8c:	89fb      	ldrh	r3, [r7, #14]
 8000c8e:	4313      	orrs	r3, r2
 8000c90:	81fb      	strh	r3, [r7, #14]
    /* Reset the Output Compare and Output Compare N IDLE State */
    tmpcr2 &= (uint16_t)~TIM_CR2_OIS3;
 8000c92:	89bb      	ldrh	r3, [r7, #12]
 8000c94:	f423 5380 	bic.w	r3, r3, #4096	@ 0x1000
 8000c98:	81bb      	strh	r3, [r7, #12]
    tmpcr2 &= (uint16_t)~TIM_CR2_OIS3N;
 8000c9a:	89bb      	ldrh	r3, [r7, #12]
 8000c9c:	f423 5300 	bic.w	r3, r3, #8192	@ 0x2000
 8000ca0:	81bb      	strh	r3, [r7, #12]
    /* Set the Output Idle state */
    tmpcr2 |= (uint16_t)(TIM_OCInitStruct->TIM_OCIdleState << 4);
 8000ca2:	683b      	ldr	r3, [r7, #0]
 8000ca4:	8a1b      	ldrh	r3, [r3, #16]
 8000ca6:	011b      	lsls	r3, r3, #4
 8000ca8:	b29a      	uxth	r2, r3
 8000caa:	89bb      	ldrh	r3, [r7, #12]
 8000cac:	4313      	orrs	r3, r2
 8000cae:	81bb      	strh	r3, [r7, #12]
    /* Set the Output N Idle state */
    tmpcr2 |= (uint16_t)(TIM_OCInitStruct->TIM_OCNIdleState << 4);
 8000cb0:	683b      	ldr	r3, [r7, #0]
 8000cb2:	8a5b      	ldrh	r3, [r3, #18]
 8000cb4:	011b      	lsls	r3, r3, #4
 8000cb6:	b29a      	uxth	r2, r3
 8000cb8:	89bb      	ldrh	r3, [r7, #12]
 8000cba:	4313      	orrs	r3, r2
 8000cbc:	81bb      	strh	r3, [r7, #12]
  }
  /* Write to TIMx CR2 */
  TIMx->CR2 = tmpcr2;
 8000cbe:	687b      	ldr	r3, [r7, #4]
 8000cc0:	89ba      	ldrh	r2, [r7, #12]
 8000cc2:	809a      	strh	r2, [r3, #4]

  /* Write to TIMx CCMR2 */
  TIMx->CCMR2 = tmpccmrx;
 8000cc4:	687b      	ldr	r3, [r7, #4]
 8000cc6:	897a      	ldrh	r2, [r7, #10]
 8000cc8:	839a      	strh	r2, [r3, #28]

  /* Set the Capture Compare Register value */
  TIMx->CCR3 = TIM_OCInitStruct->TIM_Pulse;
 8000cca:	683b      	ldr	r3, [r7, #0]
 8000ccc:	689a      	ldr	r2, [r3, #8]
 8000cce:	687b      	ldr	r3, [r7, #4]
 8000cd0:	63da      	str	r2, [r3, #60]	@ 0x3c

  /* Write to TIMx CCER */
  TIMx->CCER = tmpccer;
 8000cd2:	687b      	ldr	r3, [r7, #4]
 8000cd4:	89fa      	ldrh	r2, [r7, #14]
 8000cd6:	841a      	strh	r2, [r3, #32]
}
 8000cd8:	bf00      	nop
 8000cda:	3714      	adds	r7, #20
 8000cdc:	46bd      	mov	sp, r7
 8000cde:	f85d 7b04 	ldr.w	r7, [sp], #4
 8000ce2:	4770      	bx	lr
 8000ce4:	40010000 	.word	0x40010000
 8000ce8:	40010400 	.word	0x40010400

08000cec <TIM_OC4Init>:
  * @param  TIM_OCInitStruct: pointer to a TIM_OCInitTypeDef structure that contains
  *         the configuration information for the specified TIM peripheral.
  * @retval None
  */
void TIM_OC4Init(TIM_TypeDef* TIMx, TIM_OCInitTypeDef* TIM_OCInitStruct)
{
 8000cec:	b480      	push	{r7}
 8000cee:	b085      	sub	sp, #20
 8000cf0:	af00      	add	r7, sp, #0
 8000cf2:	6078      	str	r0, [r7, #4]
 8000cf4:	6039      	str	r1, [r7, #0]
  uint16_t tmpccmrx = 0, tmpccer = 0, tmpcr2 = 0;
 8000cf6:	2300      	movs	r3, #0
 8000cf8:	81bb      	strh	r3, [r7, #12]
 8000cfa:	2300      	movs	r3, #0
 8000cfc:	817b      	strh	r3, [r7, #10]
 8000cfe:	2300      	movs	r3, #0
 8000d00:	81fb      	strh	r3, [r7, #14]
  assert_param(IS_TIM_OC_MODE(TIM_OCInitStruct->TIM_OCMode));
  assert_param(IS_TIM_OUTPUT_STATE(TIM_OCInitStruct->TIM_OutputState));
  assert_param(IS_TIM_OC_POLARITY(TIM_OCInitStruct->TIM_OCPolarity));

  /* Disable the Channel 4: Reset the CC4E Bit */
  TIMx->CCER &= (uint16_t)~TIM_CCER_CC4E;
 8000d02:	687b      	ldr	r3, [r7, #4]
 8000d04:	8c1b      	ldrh	r3, [r3, #32]
 8000d06:	b29b      	uxth	r3, r3
 8000d08:	f423 5380 	bic.w	r3, r3, #4096	@ 0x1000
 8000d0c:	b29a      	uxth	r2, r3
 8000d0e:	687b      	ldr	r3, [r7, #4]
 8000d10:	841a      	strh	r2, [r3, #32]

  /* Get the TIMx CCER register value */
  tmpccer = TIMx->CCER;
 8000d12:	687b      	ldr	r3, [r7, #4]
 8000d14:	8c1b      	ldrh	r3, [r3, #32]
 8000d16:	817b      	strh	r3, [r7, #10]
  /* Get the TIMx CR2 register value */
  tmpcr2 =  TIMx->CR2;
 8000d18:	687b      	ldr	r3, [r7, #4]
 8000d1a:	889b      	ldrh	r3, [r3, #4]
 8000d1c:	81fb      	strh	r3, [r7, #14]

  /* Get the TIMx CCMR2 register value */
  tmpccmrx = TIMx->CCMR2;
 8000d1e:	687b      	ldr	r3, [r7, #4]
 8000d20:	8b9b      	ldrh	r3, [r3, #28]
 8000d22:	81bb      	strh	r3, [r7, #12]

  /* Reset the Output Compare mode and Capture/Compare selection Bits */
  tmpccmrx &= (uint16_t)~TIM_CCMR2_OC4M;
 8000d24:	89bb      	ldrh	r3, [r7, #12]
 8000d26:	f423 43e0 	bic.w	r3, r3, #28672	@ 0x7000
 8000d2a:	81bb      	strh	r3, [r7, #12]
  tmpccmrx &= (uint16_t)~TIM_CCMR2_CC4S;
 8000d2c:	89bb      	ldrh	r3, [r7, #12]
 8000d2e:	f423 7340 	bic.w	r3, r3, #768	@ 0x300
 8000d32:	81bb      	strh	r3, [r7, #12]

  /* Select the Output Compare Mode */
  tmpccmrx |= (uint16_t)(TIM_OCInitStruct->TIM_OCMode << 8);
 8000d34:	683b      	ldr	r3, [r7, #0]
 8000d36:	881b      	ldrh	r3, [r3, #0]
 8000d38:	021b      	lsls	r3, r3, #8
 8000d3a:	b29a      	uxth	r2, r3
 8000d3c:	89bb      	ldrh	r3, [r7, #12]
 8000d3e:	4313      	orrs	r3, r2
 8000d40:	81bb      	strh	r3, [r7, #12]

  /* Reset the Output Polarity level */
  tmpccer &= (uint16_t)~TIM_CCER_CC4P;
 8000d42:	897b      	ldrh	r3, [r7, #10]
 8000d44:	f423 5300 	bic.w	r3, r3, #8192	@ 0x2000
 8000d48:	817b      	strh	r3, [r7, #10]
  /* Set the Output Compare Polarity */
  tmpccer |= (uint16_t)(TIM_OCInitStruct->TIM_OCPolarity << 12);
 8000d4a:	683b      	ldr	r3, [r7, #0]
 8000d4c:	899b      	ldrh	r3, [r3, #12]
 8000d4e:	031b      	lsls	r3, r3, #12
 8000d50:	b29a      	uxth	r2, r3
 8000d52:	897b      	ldrh	r3, [r7, #10]
 8000d54:	4313      	orrs	r3, r2
 8000d56:	817b      	strh	r3, [r7, #10]

  /* Set the Output State */
  tmpccer |= (uint16_t)(TIM_OCInitStruct->TIM_OutputState << 12);
 8000d58:	683b      	ldr	r3, [r7, #0]
 8000d5a:	885b      	ldrh	r3, [r3, #2]
 8000d5c:	031b      	lsls	r3, r3, #12
 8000d5e:	b29a      	uxth	r2, r3
 8000d60:	897b      	ldrh	r3, [r7, #10]
 8000d62:	4313      	orrs	r3, r2
 8000d64:	817b      	strh	r3, [r7, #10]

  if((TIMx == TIM1) || (TIMx == TIM8))
 8000d66:	687b      	ldr	r3, [r7, #4]
 8000d68:	4a12      	ldr	r2, [pc, #72]	@ (8000db4 <TIM_OC4Init+0xc8>)
 8000d6a:	4293      	cmp	r3, r2
 8000d6c:	d003      	beq.n	8000d76 <TIM_OC4Init+0x8a>
 8000d6e:	687b      	ldr	r3, [r7, #4]
 8000d70:	4a11      	ldr	r2, [pc, #68]	@ (8000db8 <TIM_OC4Init+0xcc>)
 8000d72:	4293      	cmp	r3, r2
 8000d74:	d10a      	bne.n	8000d8c <TIM_OC4Init+0xa0>
  {
    assert_param(IS_TIM_OCIDLE_STATE(TIM_OCInitStruct->TIM_OCIdleState));
    /* Reset the Output Compare IDLE State */
    tmpcr2 &=(uint16_t) ~TIM_CR2_OIS4;
 8000d76:	89fb      	ldrh	r3, [r7, #14]
 8000d78:	f423 4380 	bic.w	r3, r3, #16384	@ 0x4000
 8000d7c:	81fb      	strh	r3, [r7, #14]
    /* Set the Output Idle state */
    tmpcr2 |= (uint16_t)(TIM_OCInitStruct->TIM_OCIdleState << 6);
 8000d7e:	683b      	ldr	r3, [r7, #0]
 8000d80:	8a1b      	ldrh	r3, [r3, #16]
 8000d82:	019b      	lsls	r3, r3, #6
 8000d84:	b29a      	uxth	r2, r3
 8000d86:	89fb      	ldrh	r3, [r7, #14]
 8000d88:	4313      	orrs	r3, r2
 8000d8a:	81fb      	strh	r3, [r7, #14]
  }
  /* Write to TIMx CR2 */
  TIMx->CR2 = tmpcr2;
 8000d8c:	687b      	ldr	r3, [r7, #4]
 8000d8e:	89fa      	ldrh	r2, [r7, #14]
 8000d90:	809a      	strh	r2, [r3, #4]

  /* Write to TIMx CCMR2 */
  TIMx->CCMR2 = tmpccmrx;
 8000d92:	687b      	ldr	r3, [r7, #4]
 8000d94:	89ba      	ldrh	r2, [r7, #12]
 8000d96:	839a      	strh	r2, [r3, #28]

  /* Set the Capture Compare Register value */
  TIMx->CCR4 = TIM_OCInitStruct->TIM_Pulse;
 8000d98:	683b      	ldr	r3, [r7, #0]
 8000d9a:	689a      	ldr	r2, [r3, #8]
 8000d9c:	687b      	ldr	r3, [r7, #4]
 8000d9e:	641a      	str	r2, [r3, #64]	@ 0x40

  /* Write to TIMx CCER */
  TIMx->CCER = tmpccer;
 8000da0:	687b      	ldr	r3, [r7, #4]
 8000da2:	897a      	ldrh	r2, [r7, #10]
 8000da4:	841a      	strh	r2, [r3, #32]
}
 8000da6:	bf00      	nop
 8000da8:	3714      	adds	r7, #20
 8000daa:	46bd      	mov	sp, r7
 8000dac:	f85d 7b04 	ldr.w	r7, [sp], #4
 8000db0:	4770      	bx	lr
 8000db2:	bf00      	nop
 8000db4:	40010000 	.word	0x40010000
 8000db8:	40010400 	.word	0x40010400

08000dbc <TIM_SetCompare4>:
  * @param  TIMx: where x can be 1, 2, 3, 4, 5 or 8 to select the TIM peripheral.
  * @param  Compare4: specifies the Capture Compare4 register new value.
  * @retval None
  */
void TIM_SetCompare4(TIM_TypeDef* TIMx, uint32_t Compare4)
{
 8000dbc:	b480      	push	{r7}
 8000dbe:	b083      	sub	sp, #12
 8000dc0:	af00      	add	r7, sp, #0
 8000dc2:	6078      	str	r0, [r7, #4]
 8000dc4:	6039      	str	r1, [r7, #0]
  /* Check the parameters */
  assert_param(IS_TIM_LIST3_PERIPH(TIMx));

  /* Set the Capture Compare4 Register value */
  TIMx->CCR4 = Compare4;
 8000dc6:	687b      	ldr	r3, [r7, #4]
 8000dc8:	683a      	ldr	r2, [r7, #0]
 8000dca:	641a      	str	r2, [r3, #64]	@ 0x40
}
 8000dcc:	bf00      	nop
 8000dce:	370c      	adds	r7, #12
 8000dd0:	46bd      	mov	sp, r7
 8000dd2:	f85d 7b04 	ldr.w	r7, [sp], #4
 8000dd6:	4770      	bx	lr

08000dd8 <TIM_CtrlPWMOutputs>:
  * @param  NewState: new state of the TIM peripheral Main Outputs.
  *          This parameter can be: ENABLE or DISABLE.
  * @retval None
  */
void TIM_CtrlPWMOutputs(TIM_TypeDef* TIMx, FunctionalState NewState)
{
 8000dd8:	b480      	push	{r7}
 8000dda:	b083      	sub	sp, #12
 8000ddc:	af00      	add	r7, sp, #0
 8000dde:	6078      	str	r0, [r7, #4]
 8000de0:	460b      	mov	r3, r1
 8000de2:	70fb      	strb	r3, [r7, #3]
  /* Check the parameters */
  assert_param(IS_TIM_LIST4_PERIPH(TIMx));
  assert_param(IS_FUNCTIONAL_STATE(NewState));

  if (NewState != DISABLE)
 8000de4:	78fb      	ldrb	r3, [r7, #3]
 8000de6:	2b00      	cmp	r3, #0
 8000de8:	d00c      	beq.n	8000e04 <TIM_CtrlPWMOutputs+0x2c>
  {
    /* Enable the TIM Main Output */
    TIMx->BDTR |= TIM_BDTR_MOE;
 8000dea:	687b      	ldr	r3, [r7, #4]
 8000dec:	f8b3 3044 	ldrh.w	r3, [r3, #68]	@ 0x44
 8000df0:	b29b      	uxth	r3, r3
 8000df2:	ea6f 4343 	mvn.w	r3, r3, lsl #17
 8000df6:	ea6f 4353 	mvn.w	r3, r3, lsr #17
 8000dfa:	b29a      	uxth	r2, r3
 8000dfc:	687b      	ldr	r3, [r7, #4]
 8000dfe:	f8a3 2044 	strh.w	r2, [r3, #68]	@ 0x44
  else
  {
    /* Disable the TIM Main Output */
    TIMx->BDTR &= (uint16_t)~TIM_BDTR_MOE;
  }
}
 8000e02:	e009      	b.n	8000e18 <TIM_CtrlPWMOutputs+0x40>
    TIMx->BDTR &= (uint16_t)~TIM_BDTR_MOE;
 8000e04:	687b      	ldr	r3, [r7, #4]
 8000e06:	f8b3 3044 	ldrh.w	r3, [r3, #68]	@ 0x44
 8000e0a:	b29b      	uxth	r3, r3
 8000e0c:	f3c3 030e 	ubfx	r3, r3, #0, #15
 8000e10:	b29a      	uxth	r2, r3
 8000e12:	687b      	ldr	r3, [r7, #4]
 8000e14:	f8a3 2044 	strh.w	r2, [r3, #68]	@ 0x44
}
 8000e18:	bf00      	nop
 8000e1a:	370c      	adds	r7, #12
 8000e1c:	46bd      	mov	sp, r7
 8000e1e:	f85d 7b04 	ldr.w	r7, [sp], #4
 8000e22:	4770      	bx	lr

08000e24 <USART_ReceiveData>:
  * @param  USARTx: where x can be 1, 2, 3, 4, 5, 6, 7 or 8 to select the USART or 
  *         UART peripheral.
  * @retval The received data.
  */
uint16_t USART_ReceiveData(USART_TypeDef* USARTx)
{
 8000e24:	b480      	push	{r7}
 8000e26:	b083      	sub	sp, #12
 8000e28:	af00      	add	r7, sp, #0
 8000e2a:	6078      	str	r0, [r7, #4]
  /* Check the parameters */
  assert_param(IS_USART_ALL_PERIPH(USARTx));
  
  /* Receive Data */
  return (uint16_t)(USARTx->DR & (uint16_t)0x01FF);
 8000e2c:	687b      	ldr	r3, [r7, #4]
 8000e2e:	889b      	ldrh	r3, [r3, #4]
 8000e30:	b29b      	uxth	r3, r3
 8000e32:	f3c3 0308 	ubfx	r3, r3, #0, #9
 8000e36:	b29b      	uxth	r3, r3
}
 8000e38:	4618      	mov	r0, r3
 8000e3a:	370c      	adds	r7, #12
 8000e3c:	46bd      	mov	sp, r7
 8000e3e:	f85d 7b04 	ldr.w	r7, [sp], #4
 8000e42:	4770      	bx	lr

08000e44 <USART_GetITStatus>:
  *            @arg USART_IT_FE:   Framing Error interrupt
  *            @arg USART_IT_PE:   Parity Error interrupt
  * @retval The new state of USART_IT (SET or RESET).
  */
ITStatus USART_GetITStatus(USART_TypeDef* USARTx, uint16_t USART_IT)
{
 8000e44:	b480      	push	{r7}
 8000e46:	b087      	sub	sp, #28
 8000e48:	af00      	add	r7, sp, #0
 8000e4a:	6078      	str	r0, [r7, #4]
 8000e4c:	460b      	mov	r3, r1
 8000e4e:	807b      	strh	r3, [r7, #2]
  uint32_t bitpos = 0x00, itmask = 0x00, usartreg = 0x00;
 8000e50:	2300      	movs	r3, #0
 8000e52:	60fb      	str	r3, [r7, #12]
 8000e54:	2300      	movs	r3, #0
 8000e56:	617b      	str	r3, [r7, #20]
 8000e58:	2300      	movs	r3, #0
 8000e5a:	60bb      	str	r3, [r7, #8]
  ITStatus bitstatus = RESET;
 8000e5c:	2300      	movs	r3, #0
 8000e5e:	74fb      	strb	r3, [r7, #19]
  {
    assert_param(IS_USART_1236_PERIPH(USARTx));
  } 
    
  /* Get the USART register index */
  usartreg = (((uint8_t)USART_IT) >> 0x05);
 8000e60:	887b      	ldrh	r3, [r7, #2]
 8000e62:	b2db      	uxtb	r3, r3
 8000e64:	095b      	lsrs	r3, r3, #5
 8000e66:	b2db      	uxtb	r3, r3
 8000e68:	60bb      	str	r3, [r7, #8]
  /* Get the interrupt position */
  itmask = USART_IT & IT_MASK;
 8000e6a:	887b      	ldrh	r3, [r7, #2]
 8000e6c:	f003 031f 	and.w	r3, r3, #31
 8000e70:	617b      	str	r3, [r7, #20]
  itmask = (uint32_t)0x01 << itmask;
 8000e72:	2201      	movs	r2, #1
 8000e74:	697b      	ldr	r3, [r7, #20]
 8000e76:	fa02 f303 	lsl.w	r3, r2, r3
 8000e7a:	617b      	str	r3, [r7, #20]
  
  if (usartreg == 0x01) /* The IT  is in CR1 register */
 8000e7c:	68bb      	ldr	r3, [r7, #8]
 8000e7e:	2b01      	cmp	r3, #1
 8000e80:	d107      	bne.n	8000e92 <USART_GetITStatus+0x4e>
  {
    itmask &= USARTx->CR1;
 8000e82:	687b      	ldr	r3, [r7, #4]
 8000e84:	899b      	ldrh	r3, [r3, #12]
 8000e86:	b29b      	uxth	r3, r3
 8000e88:	461a      	mov	r2, r3
 8000e8a:	697b      	ldr	r3, [r7, #20]
 8000e8c:	4013      	ands	r3, r2
 8000e8e:	617b      	str	r3, [r7, #20]
 8000e90:	e011      	b.n	8000eb6 <USART_GetITStatus+0x72>
  }
  else if (usartreg == 0x02) /* The IT  is in CR2 register */
 8000e92:	68bb      	ldr	r3, [r7, #8]
 8000e94:	2b02      	cmp	r3, #2
 8000e96:	d107      	bne.n	8000ea8 <USART_GetITStatus+0x64>
  {
    itmask &= USARTx->CR2;
 8000e98:	687b      	ldr	r3, [r7, #4]
 8000e9a:	8a1b      	ldrh	r3, [r3, #16]
 8000e9c:	b29b      	uxth	r3, r3
 8000e9e:	461a      	mov	r2, r3
 8000ea0:	697b      	ldr	r3, [r7, #20]
 8000ea2:	4013      	ands	r3, r2
 8000ea4:	617b      	str	r3, [r7, #20]
 8000ea6:	e006      	b.n	8000eb6 <USART_GetITStatus+0x72>
  }
  else /* The IT  is in CR3 register */
  {
    itmask &= USARTx->CR3;
 8000ea8:	687b      	ldr	r3, [r7, #4]
 8000eaa:	8a9b      	ldrh	r3, [r3, #20]
 8000eac:	b29b      	uxth	r3, r3
 8000eae:	461a      	mov	r2, r3
 8000eb0:	697b      	ldr	r3, [r7, #20]
 8000eb2:	4013      	ands	r3, r2
 8000eb4:	617b      	str	r3, [r7, #20]
  }
  
  bitpos = USART_IT >> 0x08;
 8000eb6:	887b      	ldrh	r3, [r7, #2]
 8000eb8:	0a1b      	lsrs	r3, r3, #8
 8000eba:	b29b      	uxth	r3, r3
 8000ebc:	60fb      	str	r3, [r7, #12]
  bitpos = (uint32_t)0x01 << bitpos;
 8000ebe:	2201      	movs	r2, #1
 8000ec0:	68fb      	ldr	r3, [r7, #12]
 8000ec2:	fa02 f303 	lsl.w	r3, r2, r3
 8000ec6:	60fb      	str	r3, [r7, #12]
  bitpos &= USARTx->SR;
 8000ec8:	687b      	ldr	r3, [r7, #4]
 8000eca:	881b      	ldrh	r3, [r3, #0]
 8000ecc:	b29b      	uxth	r3, r3
 8000ece:	461a      	mov	r2, r3
 8000ed0:	68fb      	ldr	r3, [r7, #12]
 8000ed2:	4013      	ands	r3, r2
 8000ed4:	60fb      	str	r3, [r7, #12]
  if ((itmask != (uint16_t)RESET)&&(bitpos != (uint16_t)RESET))
 8000ed6:	697b      	ldr	r3, [r7, #20]
 8000ed8:	2b00      	cmp	r3, #0
 8000eda:	d005      	beq.n	8000ee8 <USART_GetITStatus+0xa4>
 8000edc:	68fb      	ldr	r3, [r7, #12]
 8000ede:	2b00      	cmp	r3, #0
 8000ee0:	d002      	beq.n	8000ee8 <USART_GetITStatus+0xa4>
  {
    bitstatus = SET;
 8000ee2:	2301      	movs	r3, #1
 8000ee4:	74fb      	strb	r3, [r7, #19]
 8000ee6:	e001      	b.n	8000eec <USART_GetITStatus+0xa8>
  }
  else
  {
    bitstatus = RESET;
 8000ee8:	2300      	movs	r3, #0
 8000eea:	74fb      	strb	r3, [r7, #19]
  }
  
  return bitstatus;  
 8000eec:	7cfb      	ldrb	r3, [r7, #19]
}
 8000eee:	4618      	mov	r0, r3
 8000ef0:	371c      	adds	r7, #28
 8000ef2:	46bd      	mov	sp, r7
 8000ef4:	f85d 7b04 	ldr.w	r7, [sp], #4
 8000ef8:	4770      	bx	lr

08000efa <USART_ClearITPendingBit>:
  *          (USART_SendData()).
  *  
  * @retval None
  */
void USART_ClearITPendingBit(USART_TypeDef* USARTx, uint16_t USART_IT)
{
 8000efa:	b480      	push	{r7}
 8000efc:	b085      	sub	sp, #20
 8000efe:	af00      	add	r7, sp, #0
 8000f00:	6078      	str	r0, [r7, #4]
 8000f02:	460b      	mov	r3, r1
 8000f04:	807b      	strh	r3, [r7, #2]
  uint16_t bitpos = 0x00, itmask = 0x00;
 8000f06:	2300      	movs	r3, #0
 8000f08:	81fb      	strh	r3, [r7, #14]
 8000f0a:	2300      	movs	r3, #0
 8000f0c:	81bb      	strh	r3, [r7, #12]
  if (USART_IT == USART_IT_CTS)
  {
    assert_param(IS_USART_1236_PERIPH(USARTx));
  } 
    
  bitpos = USART_IT >> 0x08;
 8000f0e:	887b      	ldrh	r3, [r7, #2]
 8000f10:	0a1b      	lsrs	r3, r3, #8
 8000f12:	81fb      	strh	r3, [r7, #14]
  itmask = ((uint16_t)0x01 << (uint16_t)bitpos);
 8000f14:	89fb      	ldrh	r3, [r7, #14]
 8000f16:	2201      	movs	r2, #1
 8000f18:	fa02 f303 	lsl.w	r3, r2, r3
 8000f1c:	81bb      	strh	r3, [r7, #12]
  USARTx->SR = (uint16_t)~itmask;
 8000f1e:	89bb      	ldrh	r3, [r7, #12]
 8000f20:	43db      	mvns	r3, r3
 8000f22:	b29a      	uxth	r2, r3
 8000f24:	687b      	ldr	r3, [r7, #4]
 8000f26:	801a      	strh	r2, [r3, #0]
}
 8000f28:	bf00      	nop
 8000f2a:	3714      	adds	r7, #20
 8000f2c:	46bd      	mov	sp, r7
 8000f2e:	f85d 7b04 	ldr.w	r7, [sp], #4
 8000f32:	4770      	bx	lr

08000f34 <Button_Init>:
 * @brief  Initialize module button
 * @param  None
 * @retval None
 */
void
Button_Init(void) {
 8000f34:	b580      	push	{r7, lr}
 8000f36:	b084      	sub	sp, #16
 8000f38:	af02      	add	r7, sp, #8
    // Initialize gpio
	BTNGPIO_Init();
 8000f3a:	f000 f9b1 	bl	80012a0 <BTNGPIO_Init>


    for (uint8_t i = 0; i < BUTTON_MAX; i++) {
 8000f3e:	2300      	movs	r3, #0
 8000f40:	71fb      	strb	r3, [r7, #7]
 8000f42:	e036      	b.n	8000fb2 <Button_Init+0x7e>
		kpad[i].index = i;
 8000f44:	79fa      	ldrb	r2, [r7, #7]
 8000f46:	4924      	ldr	r1, [pc, #144]	@ (8000fd8 <Button_Init+0xa4>)
 8000f48:	4613      	mov	r3, r2
 8000f4a:	009b      	lsls	r3, r3, #2
 8000f4c:	4413      	add	r3, r2
 8000f4e:	009b      	lsls	r3, r3, #2
 8000f50:	440b      	add	r3, r1
 8000f52:	330a      	adds	r3, #10
 8000f54:	79fa      	ldrb	r2, [r7, #7]
 8000f56:	701a      	strb	r2, [r3, #0]
		kpad[i].scanBtnFunc = ButtonScanTypeEdge;
 8000f58:	79fa      	ldrb	r2, [r7, #7]
 8000f5a:	491f      	ldr	r1, [pc, #124]	@ (8000fd8 <Button_Init+0xa4>)
 8000f5c:	4613      	mov	r3, r2
 8000f5e:	009b      	lsls	r3, r3, #2
 8000f60:	4413      	add	r3, r2
 8000f62:	009b      	lsls	r3, r3, #2
 8000f64:	440b      	add	r3, r1
 8000f66:	3310      	adds	r3, #16
 8000f68:	4a1c      	ldr	r2, [pc, #112]	@ (8000fdc <Button_Init+0xa8>)
 8000f6a:	601a      	str	r2, [r3, #0]
		if (GPIO_ReadInputDataBit(pinBtnPad[i].port, pinBtnPad[i].pin) == pinBtnPad[i].logicPress) {
 8000f6c:	79fb      	ldrb	r3, [r7, #7]
 8000f6e:	4a1c      	ldr	r2, [pc, #112]	@ (8000fe0 <Button_Init+0xac>)
 8000f70:	f852 2033 	ldr.w	r2, [r2, r3, lsl #3]
 8000f74:	79fb      	ldrb	r3, [r7, #7]
 8000f76:	491a      	ldr	r1, [pc, #104]	@ (8000fe0 <Button_Init+0xac>)
 8000f78:	00db      	lsls	r3, r3, #3
 8000f7a:	440b      	add	r3, r1
 8000f7c:	889b      	ldrh	r3, [r3, #4]
 8000f7e:	4619      	mov	r1, r3
 8000f80:	4610      	mov	r0, r2
 8000f82:	f7ff fb16 	bl	80005b2 <GPIO_ReadInputDataBit>
 8000f86:	4603      	mov	r3, r0
 8000f88:	4619      	mov	r1, r3
 8000f8a:	79fb      	ldrb	r3, [r7, #7]
 8000f8c:	4a14      	ldr	r2, [pc, #80]	@ (8000fe0 <Button_Init+0xac>)
 8000f8e:	00db      	lsls	r3, r3, #3
 8000f90:	4413      	add	r3, r2
 8000f92:	799b      	ldrb	r3, [r3, #6]
 8000f94:	4299      	cmp	r1, r3
 8000f96:	d109      	bne.n	8000fac <Button_Init+0x78>
			kpad[i].sold = PIN_ACTIVE;
 8000f98:	79fa      	ldrb	r2, [r7, #7]
 8000f9a:	490f      	ldr	r1, [pc, #60]	@ (8000fd8 <Button_Init+0xa4>)
 8000f9c:	4613      	mov	r3, r2
 8000f9e:	009b      	lsls	r3, r3, #2
 8000fa0:	4413      	add	r3, r2
 8000fa2:	009b      	lsls	r3, r3, #2
 8000fa4:	440b      	add	r3, r1
 8000fa6:	3309      	adds	r3, #9
 8000fa8:	2201      	movs	r2, #1
 8000faa:	701a      	strb	r2, [r3, #0]
    for (uint8_t i = 0; i < BUTTON_MAX; i++) {
 8000fac:	79fb      	ldrb	r3, [r7, #7]
 8000fae:	3301      	adds	r3, #1
 8000fb0:	71fb      	strb	r3, [r7, #7]
 8000fb2:	79fb      	ldrb	r3, [r7, #7]
 8000fb4:	2b05      	cmp	r3, #5
 8000fb6:	d9c5      	bls.n	8000f44 <Button_Init+0x10>
		}
	}

    idTaskScanButton = TimerStart("", KEY_TIME_SCAN, TIMER_REPEAT_FOREVER, ButtonScan, NULL);
 8000fb8:	2300      	movs	r3, #0
 8000fba:	9300      	str	r3, [sp, #0]
 8000fbc:	4b09      	ldr	r3, [pc, #36]	@ (8000fe4 <Button_Init+0xb0>)
 8000fbe:	22ff      	movs	r2, #255	@ 0xff
 8000fc0:	2105      	movs	r1, #5
 8000fc2:	4809      	ldr	r0, [pc, #36]	@ (8000fe8 <Button_Init+0xb4>)
 8000fc4:	f000 fd44 	bl	8001a50 <TimerStart>
 8000fc8:	4603      	mov	r3, r0
 8000fca:	461a      	mov	r2, r3
 8000fcc:	4b07      	ldr	r3, [pc, #28]	@ (8000fec <Button_Init+0xb8>)
 8000fce:	701a      	strb	r2, [r3, #0]
}
 8000fd0:	bf00      	nop
 8000fd2:	3708      	adds	r7, #8
 8000fd4:	46bd      	mov	sp, r7
 8000fd6:	bd80      	pop	{r7, pc}
 8000fd8:	200000e0 	.word	0x200000e0
 8000fdc:	08001055 	.word	0x08001055
 8000fe0:	20000024 	.word	0x20000024
 8000fe4:	08001255 	.word	0x08001255
 8000fe8:	08005a68 	.word	0x08005a68
 8000fec:	20000054 	.word	0x20000054

08000ff0 <Button_SetMode>:
 */
void
Button_SetMode(
    uint8_t id,
    uint8_t mode
) {
 8000ff0:	b480      	push	{r7}
 8000ff2:	b083      	sub	sp, #12
 8000ff4:	af00      	add	r7, sp, #0
 8000ff6:	4603      	mov	r3, r0
 8000ff8:	460a      	mov	r2, r1
 8000ffa:	71fb      	strb	r3, [r7, #7]
 8000ffc:	4613      	mov	r3, r2
 8000ffe:	71bb      	strb	r3, [r7, #6]
    if (id >= BUTTON_MAX) return;
 8001000:	79fb      	ldrb	r3, [r7, #7]
 8001002:	2b05      	cmp	r3, #5
 8001004:	d80a      	bhi.n	800101c <Button_SetMode+0x2c>
    kpad[id].mode = mode;
 8001006:	79fa      	ldrb	r2, [r7, #7]
 8001008:	4907      	ldr	r1, [pc, #28]	@ (8001028 <Button_SetMode+0x38>)
 800100a:	4613      	mov	r3, r2
 800100c:	009b      	lsls	r3, r3, #2
 800100e:	4413      	add	r3, r2
 8001010:	009b      	lsls	r3, r3, #2
 8001012:	440b      	add	r3, r1
 8001014:	330b      	adds	r3, #11
 8001016:	79ba      	ldrb	r2, [r7, #6]
 8001018:	701a      	strb	r2, [r3, #0]
 800101a:	e000      	b.n	800101e <Button_SetMode+0x2e>
    if (id >= BUTTON_MAX) return;
 800101c:	bf00      	nop
}
 800101e:	370c      	adds	r7, #12
 8001020:	46bd      	mov	sp, r7
 8001022:	f85d 7b04 	ldr.w	r7, [sp], #4
 8001026:	4770      	bx	lr
 8001028:	200000e0 	.word	0x200000e0

0800102c <Button_RegisterEventCallback>:
 */
void
Button_RegisterEventCallback(
    button_event_t buttonEvent,
    button_event_callback procbuttonEvent
) {
 800102c:	b480      	push	{r7}
 800102e:	b083      	sub	sp, #12
 8001030:	af00      	add	r7, sp, #0
 8001032:	4603      	mov	r3, r0
 8001034:	6039      	str	r1, [r7, #0]
 8001036:	71fb      	strb	r3, [r7, #7]
    pEventCallbacks[buttonEvent] = procbuttonEvent;
 8001038:	79fb      	ldrb	r3, [r7, #7]
 800103a:	4905      	ldr	r1, [pc, #20]	@ (8001050 <Button_RegisterEventCallback+0x24>)
 800103c:	683a      	ldr	r2, [r7, #0]
 800103e:	f841 2023 	str.w	r2, [r1, r3, lsl #2]
}
 8001042:	bf00      	nop
 8001044:	370c      	adds	r7, #12
 8001046:	46bd      	mov	sp, r7
 8001048:	f85d 7b04 	ldr.w	r7, [sp], #4
 800104c:	4770      	bx	lr
 800104e:	bf00      	nop
 8001050:	20000158 	.word	0x20000158

08001054 <ButtonScanTypeEdge>:
 * @retval None
 */
void
ButtonScanTypeEdge(
    void *arg
) {
 8001054:	b580      	push	{r7, lr}
 8001056:	b084      	sub	sp, #16
 8001058:	af00      	add	r7, sp, #0
 800105a:	6078      	str	r0, [r7, #4]
	buttondat_p bt = (buttondat_p)arg;
 800105c:	687b      	ldr	r3, [r7, #4]
 800105e:	60fb      	str	r3, [r7, #12]
    uint8_t i = bt->index;
 8001060:	68fb      	ldr	r3, [r7, #12]
 8001062:	7a9b      	ldrb	r3, [r3, #10]
 8001064:	72fb      	strb	r3, [r7, #11]
    
    if (GPIO_ReadInputDataBit(pinBtnPad[i].port, pinBtnPad[i].pin) == pinBtnPad[i].logicPress) {
 8001066:	7afb      	ldrb	r3, [r7, #11]
 8001068:	4a78      	ldr	r2, [pc, #480]	@ (800124c <ButtonScanTypeEdge+0x1f8>)
 800106a:	f852 2033 	ldr.w	r2, [r2, r3, lsl #3]
 800106e:	7afb      	ldrb	r3, [r7, #11]
 8001070:	4976      	ldr	r1, [pc, #472]	@ (800124c <ButtonScanTypeEdge+0x1f8>)
 8001072:	00db      	lsls	r3, r3, #3
 8001074:	440b      	add	r3, r1
 8001076:	889b      	ldrh	r3, [r3, #4]
 8001078:	4619      	mov	r1, r3
 800107a:	4610      	mov	r0, r2
 800107c:	f7ff fa99 	bl	80005b2 <GPIO_ReadInputDataBit>
 8001080:	4603      	mov	r3, r0
 8001082:	4619      	mov	r1, r3
 8001084:	7afb      	ldrb	r3, [r7, #11]
 8001086:	4a71      	ldr	r2, [pc, #452]	@ (800124c <ButtonScanTypeEdge+0x1f8>)
 8001088:	00db      	lsls	r3, r3, #3
 800108a:	4413      	add	r3, r2
 800108c:	799b      	ldrb	r3, [r3, #6]
 800108e:	4299      	cmp	r1, r3
 8001090:	d10a      	bne.n	80010a8 <ButtonScanTypeEdge+0x54>
        if (bt->countActive != 0xFFU) {
 8001092:	68fb      	ldr	r3, [r7, #12]
 8001094:	7b5b      	ldrb	r3, [r3, #13]
 8001096:	2bff      	cmp	r3, #255	@ 0xff
 8001098:	d013      	beq.n	80010c2 <ButtonScanTypeEdge+0x6e>
            bt->countActive++;
 800109a:	68fb      	ldr	r3, [r7, #12]
 800109c:	7b5b      	ldrb	r3, [r3, #13]
 800109e:	3301      	adds	r3, #1
 80010a0:	b2da      	uxtb	r2, r3
 80010a2:	68fb      	ldr	r3, [r7, #12]
 80010a4:	735a      	strb	r2, [r3, #13]
 80010a6:	e00c      	b.n	80010c2 <ButtonScanTypeEdge+0x6e>
        }
    }
    else {
        if (bt->countInactive != 0xFFU) {
 80010a8:	68fb      	ldr	r3, [r7, #12]
 80010aa:	7b1b      	ldrb	r3, [r3, #12]
 80010ac:	2bff      	cmp	r3, #255	@ 0xff
 80010ae:	d005      	beq.n	80010bc <ButtonScanTypeEdge+0x68>
            bt->countInactive++;
 80010b0:	68fb      	ldr	r3, [r7, #12]
 80010b2:	7b1b      	ldrb	r3, [r3, #12]
 80010b4:	3301      	adds	r3, #1
 80010b6:	b2da      	uxtb	r2, r3
 80010b8:	68fb      	ldr	r3, [r7, #12]
 80010ba:	731a      	strb	r2, [r3, #12]
        }
        
        bt->countActive = 0;
 80010bc:	68fb      	ldr	r3, [r7, #12]
 80010be:	2200      	movs	r2, #0
 80010c0:	735a      	strb	r2, [r3, #13]
    }
    
    if (bt->countInactive >= KEY_COUNT_IS_PRESS) {
 80010c2:	68fb      	ldr	r3, [r7, #12]
 80010c4:	7b1b      	ldrb	r3, [r3, #12]
 80010c6:	2b09      	cmp	r3, #9
 80010c8:	d958      	bls.n	800117c <ButtonScanTypeEdge+0x128>
        if (bt->sold == PIN_ACTIVE) {
 80010ca:	68fb      	ldr	r3, [r7, #12]
 80010cc:	7a5b      	ldrb	r3, [r3, #9]
 80010ce:	2b01      	cmp	r3, #1
 80010d0:	d118      	bne.n	8001104 <ButtonScanTypeEdge+0xb0>
            bt->sold = PIN_UNACTIVE;
 80010d2:	68fb      	ldr	r3, [r7, #12]
 80010d4:	2200      	movs	r2, #0
 80010d6:	725a      	strb	r2, [r3, #9]
            
            if ((pEventCallbacks[BUTTON_EVENT_EDGE] != NULL) && (bt->mode & BUTTON_TYPE_EDGE)) {
 80010d8:	4b5d      	ldr	r3, [pc, #372]	@ (8001250 <ButtonScanTypeEdge+0x1fc>)
 80010da:	681b      	ldr	r3, [r3, #0]
 80010dc:	2b00      	cmp	r3, #0
 80010de:	d00b      	beq.n	80010f8 <ButtonScanTypeEdge+0xa4>
 80010e0:	68fb      	ldr	r3, [r7, #12]
 80010e2:	7adb      	ldrb	r3, [r3, #11]
 80010e4:	f003 0302 	and.w	r3, r3, #2
 80010e8:	2b00      	cmp	r3, #0
 80010ea:	d005      	beq.n	80010f8 <ButtonScanTypeEdge+0xa4>
                pEventCallbacks[BUTTON_EVENT_EDGE](i, BUTTON_EDGE_FALLING);
 80010ec:	4b58      	ldr	r3, [pc, #352]	@ (8001250 <ButtonScanTypeEdge+0x1fc>)
 80010ee:	681b      	ldr	r3, [r3, #0]
 80010f0:	7afa      	ldrb	r2, [r7, #11]
 80010f2:	2101      	movs	r1, #1
 80010f4:	4610      	mov	r0, r2
 80010f6:	4798      	blx	r3
            }
            
            bt->time = bt->countInactive;
 80010f8:	68fb      	ldr	r3, [r7, #12]
 80010fa:	7b1b      	ldrb	r3, [r3, #12]
 80010fc:	461a      	mov	r2, r3
 80010fe:	68fb      	ldr	r3, [r7, #12]
 8001100:	601a      	str	r2, [r3, #0]
 8001102:	e03b      	b.n	800117c <ButtonScanTypeEdge+0x128>
        } else {
            bt->time++;
 8001104:	68fb      	ldr	r3, [r7, #12]
 8001106:	681b      	ldr	r3, [r3, #0]
 8001108:	1c5a      	adds	r2, r3, #1
 800110a:	68fb      	ldr	r3, [r7, #12]
 800110c:	601a      	str	r2, [r3, #0]
            if (bt->time >= TIMECNT_BW2PRESS) {
 800110e:	68fb      	ldr	r3, [r7, #12]
 8001110:	681b      	ldr	r3, [r3, #0]
 8001112:	2b4f      	cmp	r3, #79	@ 0x4f
 8001114:	d932      	bls.n	800117c <ButtonScanTypeEdge+0x128>
                if (bt->holdCnt != 0) {
 8001116:	68fb      	ldr	r3, [r7, #12]
 8001118:	685b      	ldr	r3, [r3, #4]
 800111a:	2b00      	cmp	r3, #0
 800111c:	d012      	beq.n	8001144 <ButtonScanTypeEdge+0xf0>
                    if ((pEventCallbacks[BUTTON_EVENT_RELEASE] != NULL) && (bt->mode & BUTTON_TYPE_LOGIC)) {
 800111e:	4b4c      	ldr	r3, [pc, #304]	@ (8001250 <ButtonScanTypeEdge+0x1fc>)
 8001120:	68db      	ldr	r3, [r3, #12]
 8001122:	2b00      	cmp	r3, #0
 8001124:	d024      	beq.n	8001170 <ButtonScanTypeEdge+0x11c>
 8001126:	68fb      	ldr	r3, [r7, #12]
 8001128:	7adb      	ldrb	r3, [r3, #11]
 800112a:	f003 0301 	and.w	r3, r3, #1
 800112e:	2b00      	cmp	r3, #0
 8001130:	d01e      	beq.n	8001170 <ButtonScanTypeEdge+0x11c>
                        pEventCallbacks[BUTTON_EVENT_RELEASE](i, bt->holdCnt);
 8001132:	4b47      	ldr	r3, [pc, #284]	@ (8001250 <ButtonScanTypeEdge+0x1fc>)
 8001134:	68db      	ldr	r3, [r3, #12]
 8001136:	68fa      	ldr	r2, [r7, #12]
 8001138:	6852      	ldr	r2, [r2, #4]
 800113a:	b291      	uxth	r1, r2
 800113c:	7afa      	ldrb	r2, [r7, #11]
 800113e:	4610      	mov	r0, r2
 8001140:	4798      	blx	r3
 8001142:	e015      	b.n	8001170 <ButtonScanTypeEdge+0x11c>
                    }
                }
                else if ((pEventCallbacks[BUTTON_EVENT_PRESS] != NULL) && (bt->mode & BUTTON_TYPE_LOGIC) \
 8001144:	4b42      	ldr	r3, [pc, #264]	@ (8001250 <ButtonScanTypeEdge+0x1fc>)
 8001146:	685b      	ldr	r3, [r3, #4]
 8001148:	2b00      	cmp	r3, #0
 800114a:	d011      	beq.n	8001170 <ButtonScanTypeEdge+0x11c>
 800114c:	68fb      	ldr	r3, [r7, #12]
 800114e:	7adb      	ldrb	r3, [r3, #11]
 8001150:	f003 0301 	and.w	r3, r3, #1
 8001154:	2b00      	cmp	r3, #0
 8001156:	d00b      	beq.n	8001170 <ButtonScanTypeEdge+0x11c>
                         && bt->pressCnt != 0) 
 8001158:	68fb      	ldr	r3, [r7, #12]
 800115a:	7a1b      	ldrb	r3, [r3, #8]
 800115c:	2b00      	cmp	r3, #0
 800115e:	d007      	beq.n	8001170 <ButtonScanTypeEdge+0x11c>
                {
                    pEventCallbacks[BUTTON_EVENT_PRESS](i, bt->pressCnt);
 8001160:	4b3b      	ldr	r3, [pc, #236]	@ (8001250 <ButtonScanTypeEdge+0x1fc>)
 8001162:	685b      	ldr	r3, [r3, #4]
 8001164:	68fa      	ldr	r2, [r7, #12]
 8001166:	7a12      	ldrb	r2, [r2, #8]
 8001168:	4611      	mov	r1, r2
 800116a:	7afa      	ldrb	r2, [r7, #11]
 800116c:	4610      	mov	r0, r2
 800116e:	4798      	blx	r3
                }
                
                bt->holdCnt = 0;
 8001170:	68fb      	ldr	r3, [r7, #12]
 8001172:	2200      	movs	r2, #0
 8001174:	605a      	str	r2, [r3, #4]
                bt->pressCnt = 0;
 8001176:	68fb      	ldr	r3, [r7, #12]
 8001178:	2200      	movs	r2, #0
 800117a:	721a      	strb	r2, [r3, #8]
            }
        }
    }
    
    if (bt->countActive >= KEY_COUNT_IS_PRESS) {
 800117c:	68fb      	ldr	r3, [r7, #12]
 800117e:	7b5b      	ldrb	r3, [r3, #13]
 8001180:	2b09      	cmp	r3, #9
 8001182:	d95e      	bls.n	8001242 <ButtonScanTypeEdge+0x1ee>
        /* reset count inactive */
        bt->countInactive = 0; 
 8001184:	68fb      	ldr	r3, [r7, #12]
 8001186:	2200      	movs	r2, #0
 8001188:	731a      	strb	r2, [r3, #12]
        
        if (bt->sold == PIN_UNACTIVE) {
 800118a:	68fb      	ldr	r3, [r7, #12]
 800118c:	7a5b      	ldrb	r3, [r3, #9]
 800118e:	2b00      	cmp	r3, #0
 8001190:	d11e      	bne.n	80011d0 <ButtonScanTypeEdge+0x17c>
            bt->sold = PIN_ACTIVE;
 8001192:	68fb      	ldr	r3, [r7, #12]
 8001194:	2201      	movs	r2, #1
 8001196:	725a      	strb	r2, [r3, #9]
            
            if ((pEventCallbacks[BUTTON_EVENT_EDGE] != NULL) && (bt->mode & BUTTON_TYPE_EDGE)) {
 8001198:	4b2d      	ldr	r3, [pc, #180]	@ (8001250 <ButtonScanTypeEdge+0x1fc>)
 800119a:	681b      	ldr	r3, [r3, #0]
 800119c:	2b00      	cmp	r3, #0
 800119e:	d00b      	beq.n	80011b8 <ButtonScanTypeEdge+0x164>
 80011a0:	68fb      	ldr	r3, [r7, #12]
 80011a2:	7adb      	ldrb	r3, [r3, #11]
 80011a4:	f003 0302 	and.w	r3, r3, #2
 80011a8:	2b00      	cmp	r3, #0
 80011aa:	d005      	beq.n	80011b8 <ButtonScanTypeEdge+0x164>
                pEventCallbacks[BUTTON_EVENT_EDGE](i, BUTTON_EDGE_RISING);
 80011ac:	4b28      	ldr	r3, [pc, #160]	@ (8001250 <ButtonScanTypeEdge+0x1fc>)
 80011ae:	681b      	ldr	r3, [r3, #0]
 80011b0:	7afa      	ldrb	r2, [r7, #11]
 80011b2:	2100      	movs	r1, #0
 80011b4:	4610      	mov	r0, r2
 80011b6:	4798      	blx	r3
            }
            
            bt->time = bt->countActive;
 80011b8:	68fb      	ldr	r3, [r7, #12]
 80011ba:	7b5b      	ldrb	r3, [r3, #13]
 80011bc:	461a      	mov	r2, r3
 80011be:	68fb      	ldr	r3, [r7, #12]
 80011c0:	601a      	str	r2, [r3, #0]
            bt->pressCnt++;
 80011c2:	68fb      	ldr	r3, [r7, #12]
 80011c4:	7a1b      	ldrb	r3, [r3, #8]
 80011c6:	3301      	adds	r3, #1
 80011c8:	b2da      	uxtb	r2, r3
 80011ca:	68fb      	ldr	r3, [r7, #12]
 80011cc:	721a      	strb	r2, [r3, #8]
                    }
                }
            }
        }
    }
}
 80011ce:	e038      	b.n	8001242 <ButtonScanTypeEdge+0x1ee>
            bt->time++;
 80011d0:	68fb      	ldr	r3, [r7, #12]
 80011d2:	681b      	ldr	r3, [r3, #0]
 80011d4:	1c5a      	adds	r2, r3, #1
 80011d6:	68fb      	ldr	r3, [r7, #12]
 80011d8:	601a      	str	r2, [r3, #0]
            if (bt->time >= TIMECNT_IS_HOLD) {
 80011da:	68fb      	ldr	r3, [r7, #12]
 80011dc:	681b      	ldr	r3, [r3, #0]
 80011de:	2b77      	cmp	r3, #119	@ 0x77
 80011e0:	d92f      	bls.n	8001242 <ButtonScanTypeEdge+0x1ee>
                bt->pressCnt = 0;
 80011e2:	68fb      	ldr	r3, [r7, #12]
 80011e4:	2200      	movs	r2, #0
 80011e6:	721a      	strb	r2, [r3, #8]
                bt->holdCnt = bt->time;
 80011e8:	68fb      	ldr	r3, [r7, #12]
 80011ea:	681a      	ldr	r2, [r3, #0]
 80011ec:	68fb      	ldr	r3, [r7, #12]
 80011ee:	605a      	str	r2, [r3, #4]
                if ((bt->holdCnt == TIMECNT_IS_HOLD) || (bt->holdCnt == TIMECNT_HOLD1S) || (bt->holdCnt == TIMECNT_HOLD3S) ||
 80011f0:	68fb      	ldr	r3, [r7, #12]
 80011f2:	685b      	ldr	r3, [r3, #4]
 80011f4:	2b78      	cmp	r3, #120	@ 0x78
 80011f6:	d012      	beq.n	800121e <ButtonScanTypeEdge+0x1ca>
 80011f8:	68fb      	ldr	r3, [r7, #12]
 80011fa:	685b      	ldr	r3, [r3, #4]
 80011fc:	2bc8      	cmp	r3, #200	@ 0xc8
 80011fe:	d00e      	beq.n	800121e <ButtonScanTypeEdge+0x1ca>
 8001200:	68fb      	ldr	r3, [r7, #12]
 8001202:	685b      	ldr	r3, [r3, #4]
 8001204:	f5b3 7f16 	cmp.w	r3, #600	@ 0x258
 8001208:	d009      	beq.n	800121e <ButtonScanTypeEdge+0x1ca>
                    (bt->holdCnt == TIMECNT_HOLD5S) || (bt->holdCnt == TIMECNT_HOLD10S)) 
 800120a:	68fb      	ldr	r3, [r7, #12]
 800120c:	685b      	ldr	r3, [r3, #4]
                if ((bt->holdCnt == TIMECNT_IS_HOLD) || (bt->holdCnt == TIMECNT_HOLD1S) || (bt->holdCnt == TIMECNT_HOLD3S) ||
 800120e:	f5b3 7f7a 	cmp.w	r3, #1000	@ 0x3e8
 8001212:	d004      	beq.n	800121e <ButtonScanTypeEdge+0x1ca>
                    (bt->holdCnt == TIMECNT_HOLD5S) || (bt->holdCnt == TIMECNT_HOLD10S)) 
 8001214:	68fb      	ldr	r3, [r7, #12]
 8001216:	685b      	ldr	r3, [r3, #4]
 8001218:	f5b3 6ffa 	cmp.w	r3, #2000	@ 0x7d0
 800121c:	d111      	bne.n	8001242 <ButtonScanTypeEdge+0x1ee>
                    if (pEventCallbacks[BUTTON_EVENT_HOLD] != NULL && (bt->mode & BUTTON_TYPE_LOGIC)) {
 800121e:	4b0c      	ldr	r3, [pc, #48]	@ (8001250 <ButtonScanTypeEdge+0x1fc>)
 8001220:	689b      	ldr	r3, [r3, #8]
 8001222:	2b00      	cmp	r3, #0
 8001224:	d00d      	beq.n	8001242 <ButtonScanTypeEdge+0x1ee>
 8001226:	68fb      	ldr	r3, [r7, #12]
 8001228:	7adb      	ldrb	r3, [r3, #11]
 800122a:	f003 0301 	and.w	r3, r3, #1
 800122e:	2b00      	cmp	r3, #0
 8001230:	d007      	beq.n	8001242 <ButtonScanTypeEdge+0x1ee>
                        pEventCallbacks[BUTTON_EVENT_HOLD](i, bt->holdCnt);
 8001232:	4b07      	ldr	r3, [pc, #28]	@ (8001250 <ButtonScanTypeEdge+0x1fc>)
 8001234:	689b      	ldr	r3, [r3, #8]
 8001236:	68fa      	ldr	r2, [r7, #12]
 8001238:	6852      	ldr	r2, [r2, #4]
 800123a:	b291      	uxth	r1, r2
 800123c:	7afa      	ldrb	r2, [r7, #11]
 800123e:	4610      	mov	r0, r2
 8001240:	4798      	blx	r3
}
 8001242:	bf00      	nop
 8001244:	3710      	adds	r7, #16
 8001246:	46bd      	mov	sp, r7
 8001248:	bd80      	pop	{r7, pc}
 800124a:	bf00      	nop
 800124c:	20000024 	.word	0x20000024
 8001250:	20000158 	.word	0x20000158

08001254 <ButtonScan>:
 * @retval None
 */
void
ButtonScan(
    void *arg
) {
 8001254:	b580      	push	{r7, lr}
 8001256:	b084      	sub	sp, #16
 8001258:	af00      	add	r7, sp, #0
 800125a:	6078      	str	r0, [r7, #4]
    for (uint8_t i = 0; i < MAX_ELEMENT; i++) {
 800125c:	2300      	movs	r3, #0
 800125e:	73fb      	strb	r3, [r7, #15]
 8001260:	e014      	b.n	800128c <ButtonScan+0x38>
        kpad[i].scanBtnFunc(&kpad[i]);
 8001262:	7bfa      	ldrb	r2, [r7, #15]
 8001264:	490d      	ldr	r1, [pc, #52]	@ (800129c <ButtonScan+0x48>)
 8001266:	4613      	mov	r3, r2
 8001268:	009b      	lsls	r3, r3, #2
 800126a:	4413      	add	r3, r2
 800126c:	009b      	lsls	r3, r3, #2
 800126e:	440b      	add	r3, r1
 8001270:	3310      	adds	r3, #16
 8001272:	6819      	ldr	r1, [r3, #0]
 8001274:	7bfa      	ldrb	r2, [r7, #15]
 8001276:	4613      	mov	r3, r2
 8001278:	009b      	lsls	r3, r3, #2
 800127a:	4413      	add	r3, r2
 800127c:	009b      	lsls	r3, r3, #2
 800127e:	4a07      	ldr	r2, [pc, #28]	@ (800129c <ButtonScan+0x48>)
 8001280:	4413      	add	r3, r2
 8001282:	4618      	mov	r0, r3
 8001284:	4788      	blx	r1
    for (uint8_t i = 0; i < MAX_ELEMENT; i++) {
 8001286:	7bfb      	ldrb	r3, [r7, #15]
 8001288:	3301      	adds	r3, #1
 800128a:	73fb      	strb	r3, [r7, #15]
 800128c:	7bfb      	ldrb	r3, [r7, #15]
 800128e:	2b05      	cmp	r3, #5
 8001290:	d9e7      	bls.n	8001262 <ButtonScan+0xe>
    }
}
 8001292:	bf00      	nop
 8001294:	bf00      	nop
 8001296:	3710      	adds	r7, #16
 8001298:	46bd      	mov	sp, r7
 800129a:	bd80      	pop	{r7, pc}
 800129c:	200000e0 	.word	0x200000e0

080012a0 <BTNGPIO_Init>:
 * @brief  Initializes module button
 * @param  None
 * @retval None
 */
static void BTNGPIO_Init(void)
{
 80012a0:	b580      	push	{r7, lr}
 80012a2:	b082      	sub	sp, #8
 80012a4:	af00      	add	r7, sp, #0
	GPIO_InitTypeDef GPIO_InitStructure;

	/* GPIOA, GPIOB and GPIOC Clocks enable */
	RCC_AHB1PeriphClockCmd(RCC_AHB1Periph_GPIOA, ENABLE);
 80012a6:	2101      	movs	r1, #1
 80012a8:	2001      	movs	r0, #1
 80012aa:	f7ff faab 	bl	8000804 <RCC_AHB1PeriphClockCmd>
	RCC_AHB1PeriphClockCmd(RCC_AHB1Periph_GPIOB, ENABLE);
 80012ae:	2101      	movs	r1, #1
 80012b0:	2002      	movs	r0, #2
 80012b2:	f7ff faa7 	bl	8000804 <RCC_AHB1PeriphClockCmd>
	RCC_AHB1PeriphClockCmd(RCC_AHB1Periph_GPIOC, ENABLE);
 80012b6:	2101      	movs	r1, #1
 80012b8:	2004      	movs	r0, #4
 80012ba:	f7ff faa3 	bl	8000804 <RCC_AHB1PeriphClockCmd>

	/* GPIOA Configuration: Channel 1 and 3 as alternate function push-pull */
	GPIO_InitStructure.GPIO_Mode = GPIO_Mode_IN;
 80012be:	2300      	movs	r3, #0
 80012c0:	713b      	strb	r3, [r7, #4]
	GPIO_InitStructure.GPIO_Speed = GPIO_Speed_100MHz;
 80012c2:	2303      	movs	r3, #3
 80012c4:	717b      	strb	r3, [r7, #5]
	GPIO_InitStructure.GPIO_PuPd = GPIO_PuPd_UP ;
 80012c6:	2301      	movs	r3, #1
 80012c8:	71fb      	strb	r3, [r7, #7]

	GPIO_InitStructure.GPIO_Pin = GPIO_Pin_13;
 80012ca:	f44f 5300 	mov.w	r3, #8192	@ 0x2000
 80012ce:	603b      	str	r3, [r7, #0]
	GPIO_Init(GPIOC, &GPIO_InitStructure);
 80012d0:	463b      	mov	r3, r7
 80012d2:	4619      	mov	r1, r3
 80012d4:	480a      	ldr	r0, [pc, #40]	@ (8001300 <BTNGPIO_Init+0x60>)
 80012d6:	f7ff f8dd 	bl	8000494 <GPIO_Init>

	GPIO_InitStructure.GPIO_Pin = GPIO_Pin_0 | GPIO_Pin_3 | GPIO_Pin_4 | GPIO_Pin_5;
 80012da:	2339      	movs	r3, #57	@ 0x39
 80012dc:	603b      	str	r3, [r7, #0]
	GPIO_Init(GPIOB, &GPIO_InitStructure);
 80012de:	463b      	mov	r3, r7
 80012e0:	4619      	mov	r1, r3
 80012e2:	4808      	ldr	r0, [pc, #32]	@ (8001304 <BTNGPIO_Init+0x64>)
 80012e4:	f7ff f8d6 	bl	8000494 <GPIO_Init>

	GPIO_InitStructure.GPIO_Pin = GPIO_Pin_4;
 80012e8:	2310      	movs	r3, #16
 80012ea:	603b      	str	r3, [r7, #0]
	GPIO_Init(GPIOA, &GPIO_InitStructure);
 80012ec:	463b      	mov	r3, r7
 80012ee:	4619      	mov	r1, r3
 80012f0:	4805      	ldr	r0, [pc, #20]	@ (8001308 <BTNGPIO_Init+0x68>)
 80012f2:	f7ff f8cf 	bl	8000494 <GPIO_Init>
}
 80012f6:	bf00      	nop
 80012f8:	3708      	adds	r7, #8
 80012fa:	46bd      	mov	sp, r7
 80012fc:	bd80      	pop	{r7, pc}
 80012fe:	bf00      	nop
 8001300:	40020800 	.word	0x40020800
 8001304:	40020400 	.word	0x40020400
 8001308:	40020000 	.word	0x40020000

0800130c <EventButton_Init>:
 * @brief  Initialize events of button
 * @param  pFuncAppProcEvent: funtion callback
 * @retval None
 */
void
EventButton_Init(void) {
 800130c:	b580      	push	{r7, lr}
 800130e:	af00      	add	r7, sp, #0
    /* Init callback functions */
	Button_RegisterEventCallback(BUTTON_EVENT_EDGE, ButtonProcessEventEdge);
 8001310:	4915      	ldr	r1, [pc, #84]	@ (8001368 <EventButton_Init+0x5c>)
 8001312:	2000      	movs	r0, #0
 8001314:	f7ff fe8a 	bl	800102c <Button_RegisterEventCallback>
	Button_RegisterEventCallback(BUTTON_EVENT_PRESS, ButtonProcessEventPress);
 8001318:	4914      	ldr	r1, [pc, #80]	@ (800136c <EventButton_Init+0x60>)
 800131a:	2001      	movs	r0, #1
 800131c:	f7ff fe86 	bl	800102c <Button_RegisterEventCallback>
	Button_RegisterEventCallback(BUTTON_EVENT_HOLD, ButtonProcessEventHold);
 8001320:	4913      	ldr	r1, [pc, #76]	@ (8001370 <EventButton_Init+0x64>)
 8001322:	2002      	movs	r0, #2
 8001324:	f7ff fe82 	bl	800102c <Button_RegisterEventCallback>
	Button_RegisterEventCallback(BUTTON_EVENT_RELEASE, ButtonProcessEventRelease);
 8001328:	4912      	ldr	r1, [pc, #72]	@ (8001374 <EventButton_Init+0x68>)
 800132a:	2003      	movs	r0, #3
 800132c:	f7ff fe7e 	bl	800102c <Button_RegisterEventCallback>
    
    /* Init mode of buttons */
    Button_SetMode(BUTTON_BOARD_ID, BUTTON_TYPE_LOGIC);
 8001330:	2101      	movs	r1, #1
 8001332:	2000      	movs	r0, #0
 8001334:	f7ff fe5c 	bl	8000ff0 <Button_SetMode>
    Button_SetMode(BUTTON_KIT_ID1, BUTTON_TYPE_LOGIC);
 8001338:	2101      	movs	r1, #1
 800133a:	2001      	movs	r0, #1
 800133c:	f7ff fe58 	bl	8000ff0 <Button_SetMode>
    Button_SetMode(BUTTON_KIT_ID2, BUTTON_TYPE_LOGIC);
 8001340:	2101      	movs	r1, #1
 8001342:	2002      	movs	r0, #2
 8001344:	f7ff fe54 	bl	8000ff0 <Button_SetMode>
    Button_SetMode(BUTTON_KIT_ID3, BUTTON_TYPE_LOGIC);
 8001348:	2101      	movs	r1, #1
 800134a:	2003      	movs	r0, #3
 800134c:	f7ff fe50 	bl	8000ff0 <Button_SetMode>
	Button_SetMode(BUTTON_KIT_ID4, BUTTON_TYPE_LOGIC);
 8001350:	2101      	movs	r1, #1
 8001352:	2004      	movs	r0, #4
 8001354:	f7ff fe4c 	bl	8000ff0 <Button_SetMode>
    Button_SetMode(BUTTON_KIT_ID5, BUTTON_TYPE_LOGIC);
 8001358:	2101      	movs	r1, #1
 800135a:	2005      	movs	r0, #5
 800135c:	f7ff fe48 	bl	8000ff0 <Button_SetMode>

    Button_Init();
 8001360:	f7ff fde8 	bl	8000f34 <Button_Init>
}
 8001364:	bf00      	nop
 8001366:	bd80      	pop	{r7, pc}
 8001368:	08001379 	.word	0x08001379
 800136c:	080013ad 	.word	0x080013ad
 8001370:	080013f5 	.word	0x080013f5
 8001374:	08001453 	.word	0x08001453

08001378 <ButtonProcessEventEdge>:
 */
static void 
ButtonProcessEventEdge(
    uint8_t btnID,
    uint16_t edge
) {
 8001378:	b580      	push	{r7, lr}
 800137a:	b084      	sub	sp, #16
 800137c:	af00      	add	r7, sp, #0
 800137e:	4603      	mov	r3, r0
 8001380:	460a      	mov	r2, r1
 8001382:	71fb      	strb	r3, [r7, #7]
 8001384:	4613      	mov	r3, r2
 8001386:	80bb      	strh	r3, [r7, #4]
	uint8_t event;

    if (edge == BUTTON_EDGE_RISING)
 8001388:	88bb      	ldrh	r3, [r7, #4]
 800138a:	2b00      	cmp	r3, #0
 800138c:	d103      	bne.n	8001396 <ButtonProcessEventEdge+0x1e>
    {
    	event = EVENT_OF_BUTTON_0_PRESS_EDGE_RISING + btnID;
 800138e:	79fb      	ldrb	r3, [r7, #7]
 8001390:	3306      	adds	r3, #6
 8001392:	73fb      	strb	r3, [r7, #15]
 8001394:	e002      	b.n	800139c <ButtonProcessEventEdge+0x24>
    }
    else /* (edge == BUTTON_EDGE_FAILING) */
    {
    	event = EVENT_OF_BUTTON_0_PRESS_EDGE_FALLING + btnID;
 8001396:	79fb      	ldrb	r3, [r7, #7]
 8001398:	330c      	adds	r3, #12
 800139a:	73fb      	strb	r3, [r7, #15]
    }

    EventSchedulerAdd(event);
 800139c:	7bfb      	ldrb	r3, [r7, #15]
 800139e:	4618      	mov	r0, r3
 80013a0:	f000 fab6 	bl	8001910 <EventSchedulerAdd>
}
 80013a4:	bf00      	nop
 80013a6:	3710      	adds	r7, #16
 80013a8:	46bd      	mov	sp, r7
 80013aa:	bd80      	pop	{r7, pc}

080013ac <ButtonProcessEventPress>:
 */
static void 
ButtonProcessEventPress(
    uint8_t btnID,
    uint16_t time
) {
 80013ac:	b580      	push	{r7, lr}
 80013ae:	b084      	sub	sp, #16
 80013b0:	af00      	add	r7, sp, #0
 80013b2:	4603      	mov	r3, r0
 80013b4:	460a      	mov	r2, r1
 80013b6:	71fb      	strb	r3, [r7, #7]
 80013b8:	4613      	mov	r3, r2
 80013ba:	80bb      	strh	r3, [r7, #4]
	uint8_t event;

	if (time == 1)
 80013bc:	88bb      	ldrh	r3, [r7, #4]
 80013be:	2b01      	cmp	r3, #1
 80013c0:	d102      	bne.n	80013c8 <ButtonProcessEventPress+0x1c>
	{
		event = EVENT_OF_BUTTON_0_PRESS_LOGIC + btnID;
 80013c2:	79fb      	ldrb	r3, [r7, #7]
 80013c4:	73fb      	strb	r3, [r7, #15]
 80013c6:	e00c      	b.n	80013e2 <ButtonProcessEventPress+0x36>
	}
	else if (time == 2)
 80013c8:	88bb      	ldrh	r3, [r7, #4]
 80013ca:	2b02      	cmp	r3, #2
 80013cc:	d103      	bne.n	80013d6 <ButtonProcessEventPress+0x2a>
	{
		event = EVENT_OF_BUTTON_0_PRESS_2_TIMES + btnID;
 80013ce:	79fb      	ldrb	r3, [r7, #7]
 80013d0:	3312      	adds	r3, #18
 80013d2:	73fb      	strb	r3, [r7, #15]
 80013d4:	e005      	b.n	80013e2 <ButtonProcessEventPress+0x36>
	}
	else if (time == 5)
 80013d6:	88bb      	ldrh	r3, [r7, #4]
 80013d8:	2b05      	cmp	r3, #5
 80013da:	d107      	bne.n	80013ec <ButtonProcessEventPress+0x40>
	{
		event = EVENT_OF_BUTTON_0_PRESS_5_TIMES + btnID;
 80013dc:	79fb      	ldrb	r3, [r7, #7]
 80013de:	3318      	adds	r3, #24
 80013e0:	73fb      	strb	r3, [r7, #15]
	}
	else return;

    EventSchedulerAdd(event);
 80013e2:	7bfb      	ldrb	r3, [r7, #15]
 80013e4:	4618      	mov	r0, r3
 80013e6:	f000 fa93 	bl	8001910 <EventSchedulerAdd>
 80013ea:	e000      	b.n	80013ee <ButtonProcessEventPress+0x42>
	else return;
 80013ec:	bf00      	nop
}
 80013ee:	3710      	adds	r7, #16
 80013f0:	46bd      	mov	sp, r7
 80013f2:	bd80      	pop	{r7, pc}

080013f4 <ButtonProcessEventHold>:
 */
static void 
ButtonProcessEventHold(
    uint8_t btnID,
    uint16_t time
) {
 80013f4:	b580      	push	{r7, lr}
 80013f6:	b084      	sub	sp, #16
 80013f8:	af00      	add	r7, sp, #0
 80013fa:	4603      	mov	r3, r0
 80013fc:	460a      	mov	r2, r1
 80013fe:	71fb      	strb	r3, [r7, #7]
 8001400:	4613      	mov	r3, r2
 8001402:	80bb      	strh	r3, [r7, #4]
	uint8_t event;

	if (time == TIMECNT_HOLD10S)
 8001404:	88bb      	ldrh	r3, [r7, #4]
 8001406:	f5b3 6ffa 	cmp.w	r3, #2000	@ 0x7d0
 800140a:	d103      	bne.n	8001414 <ButtonProcessEventHold+0x20>
	{
		event = EVENT_OF_BUTTON_0_HOLD_10S + btnID;
 800140c:	79fb      	ldrb	r3, [r7, #7]
 800140e:	3330      	adds	r3, #48	@ 0x30
 8001410:	73fb      	strb	r3, [r7, #15]
 8001412:	e015      	b.n	8001440 <ButtonProcessEventHold+0x4c>
	}
	else if (time == TIMECNT_HOLD5S)
 8001414:	88bb      	ldrh	r3, [r7, #4]
 8001416:	f5b3 7f7a 	cmp.w	r3, #1000	@ 0x3e8
 800141a:	d103      	bne.n	8001424 <ButtonProcessEventHold+0x30>
	{
		event = EVENT_OF_BUTTON_0_HOLD_5S + btnID;
 800141c:	79fb      	ldrb	r3, [r7, #7]
 800141e:	332a      	adds	r3, #42	@ 0x2a
 8001420:	73fb      	strb	r3, [r7, #15]
 8001422:	e00d      	b.n	8001440 <ButtonProcessEventHold+0x4c>
	}
	else if (time == TIMECNT_HOLD3S)
 8001424:	88bb      	ldrh	r3, [r7, #4]
 8001426:	f5b3 7f16 	cmp.w	r3, #600	@ 0x258
 800142a:	d103      	bne.n	8001434 <ButtonProcessEventHold+0x40>
	{
		event = EVENT_OF_BUTTON_0_HOLD_3S + btnID;
 800142c:	79fb      	ldrb	r3, [r7, #7]
 800142e:	3324      	adds	r3, #36	@ 0x24
 8001430:	73fb      	strb	r3, [r7, #15]
 8001432:	e005      	b.n	8001440 <ButtonProcessEventHold+0x4c>
	}
	else if (time == TIMECNT_HOLD1S)
 8001434:	88bb      	ldrh	r3, [r7, #4]
 8001436:	2bc8      	cmp	r3, #200	@ 0xc8
 8001438:	d107      	bne.n	800144a <ButtonProcessEventHold+0x56>
	{
		event = EVENT_OF_BUTTON_0_HOLD_1S + btnID;
 800143a:	79fb      	ldrb	r3, [r7, #7]
 800143c:	331e      	adds	r3, #30
 800143e:	73fb      	strb	r3, [r7, #15]
	}
	else return;

	EventSchedulerAdd(event);
 8001440:	7bfb      	ldrb	r3, [r7, #15]
 8001442:	4618      	mov	r0, r3
 8001444:	f000 fa64 	bl	8001910 <EventSchedulerAdd>
 8001448:	e000      	b.n	800144c <ButtonProcessEventHold+0x58>
	else return;
 800144a:	bf00      	nop
}
 800144c:	3710      	adds	r7, #16
 800144e:	46bd      	mov	sp, r7
 8001450:	bd80      	pop	{r7, pc}

08001452 <ButtonProcessEventRelease>:
 */
static void 
ButtonProcessEventRelease(
    uint8_t btnID,
    uint16_t time
) {
 8001452:	b580      	push	{r7, lr}
 8001454:	b084      	sub	sp, #16
 8001456:	af00      	add	r7, sp, #0
 8001458:	4603      	mov	r3, r0
 800145a:	460a      	mov	r2, r1
 800145c:	71fb      	strb	r3, [r7, #7]
 800145e:	4613      	mov	r3, r2
 8001460:	80bb      	strh	r3, [r7, #4]
	uint8_t event;

	if (time >= TIMECNT_HOLD10S)
 8001462:	88bb      	ldrh	r3, [r7, #4]
 8001464:	f5b3 6ffa 	cmp.w	r3, #2000	@ 0x7d0
 8001468:	d303      	bcc.n	8001472 <ButtonProcessEventRelease+0x20>
	{
		event = EVENT_OF_BUTTON_0_RELEASED_10S + btnID;
 800146a:	79fb      	ldrb	r3, [r7, #7]
 800146c:	3348      	adds	r3, #72	@ 0x48
 800146e:	73fb      	strb	r3, [r7, #15]
 8001470:	e015      	b.n	800149e <ButtonProcessEventRelease+0x4c>
	}
	else if (time >= TIMECNT_HOLD5S)
 8001472:	88bb      	ldrh	r3, [r7, #4]
 8001474:	f5b3 7f7a 	cmp.w	r3, #1000	@ 0x3e8
 8001478:	d303      	bcc.n	8001482 <ButtonProcessEventRelease+0x30>
	{
		event = EVENT_OF_BUTTON_0_RELEASED_5S + btnID;
 800147a:	79fb      	ldrb	r3, [r7, #7]
 800147c:	3342      	adds	r3, #66	@ 0x42
 800147e:	73fb      	strb	r3, [r7, #15]
 8001480:	e00d      	b.n	800149e <ButtonProcessEventRelease+0x4c>
	}
	else if (time >= TIMECNT_HOLD3S)
 8001482:	88bb      	ldrh	r3, [r7, #4]
 8001484:	f5b3 7f16 	cmp.w	r3, #600	@ 0x258
 8001488:	d303      	bcc.n	8001492 <ButtonProcessEventRelease+0x40>
	{
		event = EVENT_OF_BUTTON_0_RELEASED_3S + btnID;
 800148a:	79fb      	ldrb	r3, [r7, #7]
 800148c:	333c      	adds	r3, #60	@ 0x3c
 800148e:	73fb      	strb	r3, [r7, #15]
 8001490:	e005      	b.n	800149e <ButtonProcessEventRelease+0x4c>
	}
	else if (time >= TIMECNT_HOLD1S)
 8001492:	88bb      	ldrh	r3, [r7, #4]
 8001494:	2bc7      	cmp	r3, #199	@ 0xc7
 8001496:	d907      	bls.n	80014a8 <ButtonProcessEventRelease+0x56>
	{
		event = EVENT_OF_BUTTON_0_RELEASED_1S + btnID;
 8001498:	79fb      	ldrb	r3, [r7, #7]
 800149a:	3336      	adds	r3, #54	@ 0x36
 800149c:	73fb      	strb	r3, [r7, #15]
	}
	else return;

	EventSchedulerAdd(event);
 800149e:	7bfb      	ldrb	r3, [r7, #15]
 80014a0:	4618      	mov	r0, r3
 80014a2:	f000 fa35 	bl	8001910 <EventSchedulerAdd>
 80014a6:	e000      	b.n	80014aa <ButtonProcessEventRelease+0x58>
	else return;
 80014a8:	bf00      	nop
}
 80014aa:	3710      	adds	r7, #16
 80014ac:	46bd      	mov	sp, r7
 80014ae:	bd80      	pop	{r7, pc}

080014b0 <BuzzerControl_Init>:
 * @brief  Initialize module buzzer
 * @param  None
 * @retval None
 */
void
BuzzerControl_Init(void) {
 80014b0:	b580      	push	{r7, lr}
 80014b2:	af00      	add	r7, sp, #0
	BUZZTIM_InitTimer(0, 32, 5000);
 80014b4:	f241 3288 	movw	r2, #5000	@ 0x1388
 80014b8:	2120      	movs	r1, #32
 80014ba:	2000      	movs	r0, #0
 80014bc:	f000 f8a6 	bl	800160c <BUZZTIM_InitTimer>
	BUZZTIM_InitPWMChannel(pinBuzz);
 80014c0:	4b04      	ldr	r3, [pc, #16]	@ (80014d4 <BuzzerControl_Init+0x24>)
 80014c2:	e893 0003 	ldmia.w	r3, {r0, r1}
 80014c6:	f000 f8c9 	bl	800165c <BUZZTIM_InitPWMChannel>
    bBuzzInit = 1;
 80014ca:	4b03      	ldr	r3, [pc, #12]	@ (80014d8 <BuzzerControl_Init+0x28>)
 80014cc:	2201      	movs	r2, #1
 80014ce:	701a      	strb	r2, [r3, #0]
}
 80014d0:	bf00      	nop
 80014d2:	bd80      	pop	{r7, pc}
 80014d4:	08005b68 	.word	0x08005b68
 80014d8:	20000168 	.word	0x20000168

080014dc <BuzzOff>:
 * @retval None
 */
static void
BuzzOff(
    void *arg
) {
 80014dc:	b580      	push	{r7, lr}
 80014de:	b082      	sub	sp, #8
 80014e0:	af00      	add	r7, sp, #0
 80014e2:	6078      	str	r0, [r7, #4]
    idBuzz = NO_TIMER;
 80014e4:	4b12      	ldr	r3, [pc, #72]	@ (8001530 <BuzzOff+0x54>)
 80014e6:	22ff      	movs	r2, #255	@ 0xff
 80014e8:	701a      	strb	r2, [r3, #0]
    gpToneList++;  /* Next Element */
 80014ea:	4b12      	ldr	r3, [pc, #72]	@ (8001534 <BuzzOff+0x58>)
 80014ec:	681b      	ldr	r3, [r3, #0]
 80014ee:	3304      	adds	r3, #4
 80014f0:	4a10      	ldr	r2, [pc, #64]	@ (8001534 <BuzzOff+0x58>)
 80014f2:	6013      	str	r3, [r2, #0]
    if ((gpToneList->freq == 0) && (gpToneList->duration == 0)) {
 80014f4:	4b0f      	ldr	r3, [pc, #60]	@ (8001534 <BuzzOff+0x58>)
 80014f6:	681b      	ldr	r3, [r3, #0]
 80014f8:	881b      	ldrh	r3, [r3, #0]
 80014fa:	2b00      	cmp	r3, #0
 80014fc:	d108      	bne.n	8001510 <BuzzOff+0x34>
 80014fe:	4b0d      	ldr	r3, [pc, #52]	@ (8001534 <BuzzOff+0x58>)
 8001500:	681b      	ldr	r3, [r3, #0]
 8001502:	885b      	ldrh	r3, [r3, #2]
 8001504:	2b00      	cmp	r3, #0
 8001506:	d103      	bne.n	8001510 <BuzzOff+0x34>
    	BuzzerControl_SetDutyCycle(0);
 8001508:	2000      	movs	r0, #0
 800150a:	f000 f8ef 	bl	80016ec <BuzzerControl_SetDutyCycle>
 800150e:	e00a      	b.n	8001526 <BuzzOff+0x4a>
    }
    else {
        BuzzPlay(gpToneList->freq, gpToneList->duration);
 8001510:	4b08      	ldr	r3, [pc, #32]	@ (8001534 <BuzzOff+0x58>)
 8001512:	681b      	ldr	r3, [r3, #0]
 8001514:	881a      	ldrh	r2, [r3, #0]
 8001516:	4b07      	ldr	r3, [pc, #28]	@ (8001534 <BuzzOff+0x58>)
 8001518:	681b      	ldr	r3, [r3, #0]
 800151a:	885b      	ldrh	r3, [r3, #2]
 800151c:	4619      	mov	r1, r3
 800151e:	4610      	mov	r0, r2
 8001520:	f000 f80a 	bl	8001538 <BuzzPlay>
    }
}
 8001524:	bf00      	nop
 8001526:	bf00      	nop
 8001528:	3708      	adds	r7, #8
 800152a:	46bd      	mov	sp, r7
 800152c:	bd80      	pop	{r7, pc}
 800152e:	bf00      	nop
 8001530:	20000055 	.word	0x20000055
 8001534:	2000016c 	.word	0x2000016c

08001538 <BuzzPlay>:
 */
static void
BuzzPlay(
    uint16_t freq,
	uint16_t duration
) {
 8001538:	b580      	push	{r7, lr}
 800153a:	b086      	sub	sp, #24
 800153c:	af02      	add	r7, sp, #8
 800153e:	4603      	mov	r3, r0
 8001540:	460a      	mov	r2, r1
 8001542:	80fb      	strh	r3, [r7, #6]
 8001544:	4613      	mov	r3, r2
 8001546:	80bb      	strh	r3, [r7, #4]
    if (freq == 0) {
 8001548:	88fb      	ldrh	r3, [r7, #6]
 800154a:	2b00      	cmp	r3, #0
 800154c:	d103      	bne.n	8001556 <BuzzPlay+0x1e>
    	BuzzerControl_SetDutyCycle(0);
 800154e:	2000      	movs	r0, #0
 8001550:	f000 f8cc 	bl	80016ec <BuzzerControl_SetDutyCycle>
 8001554:	e017      	b.n	8001586 <BuzzPlay+0x4e>
    }
    else if (freq == 0xFFFFU) {
 8001556:	88fb      	ldrh	r3, [r7, #6]
 8001558:	f64f 72ff 	movw	r2, #65535	@ 0xffff
 800155c:	4293      	cmp	r3, r2
 800155e:	d107      	bne.n	8001570 <BuzzPlay+0x38>
    	BuzzerControl_SetPreriod(5000);
 8001560:	f241 3088 	movw	r0, #5000	@ 0x1388
 8001564:	f000 f8e0 	bl	8001728 <BuzzerControl_SetPreriod>
    	BuzzerControl_SetDutyCycle(101);
 8001568:	2065      	movs	r0, #101	@ 0x65
 800156a:	f000 f8bf 	bl	80016ec <BuzzerControl_SetDutyCycle>
 800156e:	e00a      	b.n	8001586 <BuzzPlay+0x4e>
    }
    else {
        uint32_t period = 750000 / freq;
 8001570:	88fb      	ldrh	r3, [r7, #6]
 8001572:	4a13      	ldr	r2, [pc, #76]	@ (80015c0 <BuzzPlay+0x88>)
 8001574:	fb92 f3f3 	sdiv	r3, r2, r3
 8001578:	60fb      	str	r3, [r7, #12]
        BuzzerControl_SetPreriod(period);
 800157a:	68f8      	ldr	r0, [r7, #12]
 800157c:	f000 f8d4 	bl	8001728 <BuzzerControl_SetPreriod>
        BuzzerControl_SetDutyCycle(5);
 8001580:	2005      	movs	r0, #5
 8001582:	f000 f8b3 	bl	80016ec <BuzzerControl_SetDutyCycle>
    }

    if (idBuzz != NO_TIMER) {
 8001586:	4b0f      	ldr	r3, [pc, #60]	@ (80015c4 <BuzzPlay+0x8c>)
 8001588:	781b      	ldrb	r3, [r3, #0]
 800158a:	2bff      	cmp	r3, #255	@ 0xff
 800158c:	d007      	beq.n	800159e <BuzzPlay+0x66>
        TimerStop(idBuzz);
 800158e:	4b0d      	ldr	r3, [pc, #52]	@ (80015c4 <BuzzPlay+0x8c>)
 8001590:	781b      	ldrb	r3, [r3, #0]
 8001592:	4618      	mov	r0, r3
 8001594:	f000 fabe 	bl	8001b14 <TimerStop>
        idBuzz = NO_TIMER;
 8001598:	4b0a      	ldr	r3, [pc, #40]	@ (80015c4 <BuzzPlay+0x8c>)
 800159a:	22ff      	movs	r2, #255	@ 0xff
 800159c:	701a      	strb	r2, [r3, #0]
    }

    idBuzz = TimerStart("buzz", duration, TIMER_REPEAT_ONE_TIME, BuzzOff, NULL);
 800159e:	88b9      	ldrh	r1, [r7, #4]
 80015a0:	2300      	movs	r3, #0
 80015a2:	9300      	str	r3, [sp, #0]
 80015a4:	4b08      	ldr	r3, [pc, #32]	@ (80015c8 <BuzzPlay+0x90>)
 80015a6:	2200      	movs	r2, #0
 80015a8:	4808      	ldr	r0, [pc, #32]	@ (80015cc <BuzzPlay+0x94>)
 80015aa:	f000 fa51 	bl	8001a50 <TimerStart>
 80015ae:	4603      	mov	r3, r0
 80015b0:	461a      	mov	r2, r3
 80015b2:	4b04      	ldr	r3, [pc, #16]	@ (80015c4 <BuzzPlay+0x8c>)
 80015b4:	701a      	strb	r2, [r3, #0]
}
 80015b6:	bf00      	nop
 80015b8:	3710      	adds	r7, #16
 80015ba:	46bd      	mov	sp, r7
 80015bc:	bd80      	pop	{r7, pc}
 80015be:	bf00      	nop
 80015c0:	000b71b0 	.word	0x000b71b0
 80015c4:	20000055 	.word	0x20000055
 80015c8:	080014dd 	.word	0x080014dd
 80015cc:	08005a6c 	.word	0x08005a6c

080015d0 <BuzzerControl_SetMelody>:
 * @retval None
 */
void 
BuzzerControl_SetMelody(
    tone_p pListTone   
) {
 80015d0:	b580      	push	{r7, lr}
 80015d2:	b082      	sub	sp, #8
 80015d4:	af00      	add	r7, sp, #0
 80015d6:	6078      	str	r0, [r7, #4]
    if (!bBuzzInit) return;
 80015d8:	4b0a      	ldr	r3, [pc, #40]	@ (8001604 <BuzzerControl_SetMelody+0x34>)
 80015da:	781b      	ldrb	r3, [r3, #0]
 80015dc:	2b00      	cmp	r3, #0
 80015de:	d00d      	beq.n	80015fc <BuzzerControl_SetMelody+0x2c>
    gpToneList = pListTone;
 80015e0:	4a09      	ldr	r2, [pc, #36]	@ (8001608 <BuzzerControl_SetMelody+0x38>)
 80015e2:	687b      	ldr	r3, [r7, #4]
 80015e4:	6013      	str	r3, [r2, #0]
    BuzzPlay(gpToneList->freq, gpToneList->duration); 
 80015e6:	4b08      	ldr	r3, [pc, #32]	@ (8001608 <BuzzerControl_SetMelody+0x38>)
 80015e8:	681b      	ldr	r3, [r3, #0]
 80015ea:	881a      	ldrh	r2, [r3, #0]
 80015ec:	4b06      	ldr	r3, [pc, #24]	@ (8001608 <BuzzerControl_SetMelody+0x38>)
 80015ee:	681b      	ldr	r3, [r3, #0]
 80015f0:	885b      	ldrh	r3, [r3, #2]
 80015f2:	4619      	mov	r1, r3
 80015f4:	4610      	mov	r0, r2
 80015f6:	f7ff ff9f 	bl	8001538 <BuzzPlay>
 80015fa:	e000      	b.n	80015fe <BuzzerControl_SetMelody+0x2e>
    if (!bBuzzInit) return;
 80015fc:	bf00      	nop
}
 80015fe:	3708      	adds	r7, #8
 8001600:	46bd      	mov	sp, r7
 8001602:	bd80      	pop	{r7, pc}
 8001604:	20000168 	.word	0x20000168
 8001608:	2000016c 	.word	0x2000016c

0800160c <BUZZTIM_InitTimer>:
static void
BUZZTIM_InitTimer(
    uint8_t timidx,
	uint32_t prescale,
	uint32_t period
) {
 800160c:	b580      	push	{r7, lr}
 800160e:	b088      	sub	sp, #32
 8001610:	af00      	add	r7, sp, #0
 8001612:	4603      	mov	r3, r0
 8001614:	60b9      	str	r1, [r7, #8]
 8001616:	607a      	str	r2, [r7, #4]
 8001618:	73fb      	strb	r3, [r7, #15]
    TIM_TimeBaseInitTypeDef TimeBaseStructure;

	RCC_APB1PeriphClockCmd(RCC_APB1Periph_TIM3, ENABLE);
 800161a:	2101      	movs	r1, #1
 800161c:	2002      	movs	r0, #2
 800161e:	f7ff f911 	bl	8000844 <RCC_APB1PeriphClockCmd>

    /* NOT For TIM 1 & TIM8 */
    TimeBaseStructure.TIM_Prescaler = prescale - 1;
 8001622:	68bb      	ldr	r3, [r7, #8]
 8001624:	b29b      	uxth	r3, r3
 8001626:	3b01      	subs	r3, #1
 8001628:	b29b      	uxth	r3, r3
 800162a:	82bb      	strh	r3, [r7, #20]
    TimeBaseStructure.TIM_Period = period - 1;
 800162c:	687b      	ldr	r3, [r7, #4]
 800162e:	3b01      	subs	r3, #1
 8001630:	61bb      	str	r3, [r7, #24]
    TimeBaseStructure.TIM_ClockDivision = 0;
 8001632:	2300      	movs	r3, #0
 8001634:	83bb      	strh	r3, [r7, #28]
    TimeBaseStructure.TIM_CounterMode = TIM_CounterMode_Up;
 8001636:	2300      	movs	r3, #0
 8001638:	82fb      	strh	r3, [r7, #22]
    TIM_TimeBaseInit(TIM3, &TimeBaseStructure);
 800163a:	f107 0314 	add.w	r3, r7, #20
 800163e:	4619      	mov	r1, r3
 8001640:	4805      	ldr	r0, [pc, #20]	@ (8001658 <BUZZTIM_InitTimer+0x4c>)
 8001642:	f7ff f93f 	bl	80008c4 <TIM_TimeBaseInit>

    TIM_Cmd(TIM3, ENABLE);
 8001646:	2101      	movs	r1, #1
 8001648:	4803      	ldr	r0, [pc, #12]	@ (8001658 <BUZZTIM_InitTimer+0x4c>)
 800164a:	f7ff f9a7 	bl	800099c <TIM_Cmd>
}
 800164e:	bf00      	nop
 8001650:	3720      	adds	r7, #32
 8001652:	46bd      	mov	sp, r7
 8001654:	bd80      	pop	{r7, pc}
 8001656:	bf00      	nop
 8001658:	40000400 	.word	0x40000400

0800165c <BUZZTIM_InitPWMChannel>:
 * @retval None
 */
static void
BUZZTIM_InitPWMChannel(
    pwmPin pin
) {
 800165c:	b580      	push	{r7, lr}
 800165e:	b08a      	sub	sp, #40	@ 0x28
 8001660:	af00      	add	r7, sp, #0
 8001662:	463b      	mov	r3, r7
 8001664:	e883 0003 	stmia.w	r3, {r0, r1}
    GPIO_InitTypeDef GPIO_InitStructure;
    TIM_OCInitTypeDef TIM_OCInitStructure;

    /* GPIO Peripheral clock enable */
    RCC_AHB1PeriphClockCmd(RCC_AHB1Periph_GPIOC, ENABLE);
 8001668:	2101      	movs	r1, #1
 800166a:	2004      	movs	r0, #4
 800166c:	f7ff f8ca 	bl	8000804 <RCC_AHB1PeriphClockCmd>

    /* Configure pin in output push-pull mode */
    GPIO_InitStructure.GPIO_Pin = BUZZER_PIN;
 8001670:	f44f 7300 	mov.w	r3, #512	@ 0x200
 8001674:	623b      	str	r3, [r7, #32]
    GPIO_InitStructure.GPIO_Speed = GPIO_Speed_50MHz;
 8001676:	2302      	movs	r3, #2
 8001678:	f887 3025 	strb.w	r3, [r7, #37]	@ 0x25
    GPIO_InitStructure.GPIO_Mode = GPIO_Mode_AF;
 800167c:	2302      	movs	r3, #2
 800167e:	f887 3024 	strb.w	r3, [r7, #36]	@ 0x24
	GPIO_InitStructure.GPIO_OType = GPIO_OType_PP;
 8001682:	2300      	movs	r3, #0
 8001684:	f887 3026 	strb.w	r3, [r7, #38]	@ 0x26
	GPIO_InitStructure.GPIO_PuPd = GPIO_PuPd_UP ;
 8001688:	2301      	movs	r3, #1
 800168a:	f887 3027 	strb.w	r3, [r7, #39]	@ 0x27
    GPIO_Init(BUZZER_PORT, &GPIO_InitStructure);
 800168e:	f107 0320 	add.w	r3, r7, #32
 8001692:	4619      	mov	r1, r3
 8001694:	4813      	ldr	r0, [pc, #76]	@ (80016e4 <BUZZTIM_InitPWMChannel+0x88>)
 8001696:	f7fe fefd 	bl	8000494 <GPIO_Init>

    GPIO_PinAFConfig(BUZZER_PORT, GPIO_PinSource9, GPIO_AF_TIM3);
 800169a:	2202      	movs	r2, #2
 800169c:	2109      	movs	r1, #9
 800169e:	4811      	ldr	r0, [pc, #68]	@ (80016e4 <BUZZTIM_InitPWMChannel+0x88>)
 80016a0:	f7fe ffb9 	bl	8000616 <GPIO_PinAFConfig>

    TIM_OCInitStructure.TIM_OCMode = TIM_OCMode_PWM1; /* PWM1 Mode */
 80016a4:	2360      	movs	r3, #96	@ 0x60
 80016a6:	81bb      	strh	r3, [r7, #12]
    TIM_OCInitStructure.TIM_OutputState = TIM_OutputState_Enable;
 80016a8:	2301      	movs	r3, #1
 80016aa:	81fb      	strh	r3, [r7, #14]
    TIM_OCInitStructure.TIM_OutputNState = TIM_OutputNState_Enable;
 80016ac:	2304      	movs	r3, #4
 80016ae:	823b      	strh	r3, [r7, #16]
    TIM_OCInitStructure.TIM_OCPolarity = TIM_OCPolarity_High;
 80016b0:	2300      	movs	r3, #0
 80016b2:	833b      	strh	r3, [r7, #24]
    TIM_OCInitStructure.TIM_OCNPolarity = TIM_OCNPolarity_Low;
 80016b4:	2308      	movs	r3, #8
 80016b6:	837b      	strh	r3, [r7, #26]
    TIM_OCInitStructure.TIM_OCIdleState = TIM_OCIdleState_Set;
 80016b8:	f44f 7380 	mov.w	r3, #256	@ 0x100
 80016bc:	83bb      	strh	r3, [r7, #28]
    TIM_OCInitStructure.TIM_OCNIdleState = TIM_OCIdleState_Reset;
 80016be:	2300      	movs	r3, #0
 80016c0:	83fb      	strh	r3, [r7, #30]
    TIM_OCInitStructure.TIM_Pulse = 0;
 80016c2:	2300      	movs	r3, #0
 80016c4:	617b      	str	r3, [r7, #20]

    TIM_OC4Init(TIM3, &TIM_OCInitStructure);
 80016c6:	f107 030c 	add.w	r3, r7, #12
 80016ca:	4619      	mov	r1, r3
 80016cc:	4806      	ldr	r0, [pc, #24]	@ (80016e8 <BUZZTIM_InitPWMChannel+0x8c>)
 80016ce:	f7ff fb0d 	bl	8000cec <TIM_OC4Init>

    TIM_CtrlPWMOutputs(TIM3, ENABLE);
 80016d2:	2101      	movs	r1, #1
 80016d4:	4804      	ldr	r0, [pc, #16]	@ (80016e8 <BUZZTIM_InitPWMChannel+0x8c>)
 80016d6:	f7ff fb7f 	bl	8000dd8 <TIM_CtrlPWMOutputs>
}
 80016da:	bf00      	nop
 80016dc:	3728      	adds	r7, #40	@ 0x28
 80016de:	46bd      	mov	sp, r7
 80016e0:	bd80      	pop	{r7, pc}
 80016e2:	bf00      	nop
 80016e4:	40020800 	.word	0x40020800
 80016e8:	40000400 	.word	0x40000400

080016ec <BuzzerControl_SetDutyCycle>:
 * @retval None
 */
void
BuzzerControl_SetDutyCycle(
    uint8_t dutycycle
) {
 80016ec:	b580      	push	{r7, lr}
 80016ee:	b084      	sub	sp, #16
 80016f0:	af00      	add	r7, sp, #0
 80016f2:	4603      	mov	r3, r0
 80016f4:	71fb      	strb	r3, [r7, #7]
	uint32_t val;
    uint32_t maxval;

    maxval = TIM3->ARR;
 80016f6:	4b0a      	ldr	r3, [pc, #40]	@ (8001720 <BuzzerControl_SetDutyCycle+0x34>)
 80016f8:	6adb      	ldr	r3, [r3, #44]	@ 0x2c
 80016fa:	60fb      	str	r3, [r7, #12]
    val = dutycycle * maxval / 100;
 80016fc:	79fb      	ldrb	r3, [r7, #7]
 80016fe:	68fa      	ldr	r2, [r7, #12]
 8001700:	fb02 f303 	mul.w	r3, r2, r3
 8001704:	4a07      	ldr	r2, [pc, #28]	@ (8001724 <BuzzerControl_SetDutyCycle+0x38>)
 8001706:	fba2 2303 	umull	r2, r3, r2, r3
 800170a:	095b      	lsrs	r3, r3, #5
 800170c:	60bb      	str	r3, [r7, #8]

	TIM_SetCompare4(TIM3, val);
 800170e:	68b9      	ldr	r1, [r7, #8]
 8001710:	4803      	ldr	r0, [pc, #12]	@ (8001720 <BuzzerControl_SetDutyCycle+0x34>)
 8001712:	f7ff fb53 	bl	8000dbc <TIM_SetCompare4>
}
 8001716:	bf00      	nop
 8001718:	3710      	adds	r7, #16
 800171a:	46bd      	mov	sp, r7
 800171c:	bd80      	pop	{r7, pc}
 800171e:	bf00      	nop
 8001720:	40000400 	.word	0x40000400
 8001724:	51eb851f 	.word	0x51eb851f

08001728 <BuzzerControl_SetPreriod>:
 * @retval None
 */
void
BuzzerControl_SetPreriod(
	uint32_t period
) {
 8001728:	b480      	push	{r7}
 800172a:	b083      	sub	sp, #12
 800172c:	af00      	add	r7, sp, #0
 800172e:	6078      	str	r0, [r7, #4]
    TIM3->ARR = period - 1;
 8001730:	4a04      	ldr	r2, [pc, #16]	@ (8001744 <BuzzerControl_SetPreriod+0x1c>)
 8001732:	687b      	ldr	r3, [r7, #4]
 8001734:	3b01      	subs	r3, #1
 8001736:	62d3      	str	r3, [r2, #44]	@ 0x2c
}
 8001738:	bf00      	nop
 800173a:	370c      	adds	r7, #12
 800173c:	46bd      	mov	sp, r7
 800173e:	f85d 7b04 	ldr.w	r7, [sp], #4
 8001742:	4770      	bx	lr
 8001744:	40000400 	.word	0x40000400

08001748 <LedControl_Init>:
 * @brief  Initializes module led
 * @param  None
 * @retval None
 */
void
LedControl_Init(void) {
 8001748:	b580      	push	{r7, lr}
 800174a:	af00      	add	r7, sp, #0
	// Initialize pins GPIO led
	LEDGPIO_Config();
 800174c:	f000 f804 	bl	8001758 <LEDGPIO_Config>

	// Initialize TIMER led
	LEDTIM_Config();
 8001750:	f000 f84c 	bl	80017ec <LEDTIM_Config>
}
 8001754:	bf00      	nop
 8001756:	bd80      	pop	{r7, pc}

08001758 <LEDGPIO_Config>:
  * @brief  Configure GPIO for led
  * @param  None
  * @retval None
  */
static void LEDGPIO_Config(void)
{
 8001758:	b580      	push	{r7, lr}
 800175a:	b082      	sub	sp, #8
 800175c:	af00      	add	r7, sp, #0
	GPIO_InitTypeDef GPIO_InitStructure;

	/* GPIOA, GPIOB Clocks enable */
	RCC_AHB1PeriphClockCmd(RCC_AHB1Periph_GPIOA | RCC_AHB1Periph_GPIOB, ENABLE);
 800175e:	2101      	movs	r1, #1
 8001760:	2003      	movs	r0, #3
 8001762:	f7ff f84f 	bl	8000804 <RCC_AHB1PeriphClockCmd>

	/* GPIOA Configuration: Channel 0, 1, 3, 10 and 11 as alternate function push-pull */
	GPIO_InitStructure.GPIO_Pin = LED1_GREEN_PIN | LED1_BLUE_PIN | LED2_RED_PIN | LED2_GREEN_PIN;
 8001766:	f640 4303 	movw	r3, #3075	@ 0xc03
 800176a:	603b      	str	r3, [r7, #0]
	GPIO_InitStructure.GPIO_Mode = GPIO_Mode_AF;
 800176c:	2302      	movs	r3, #2
 800176e:	713b      	strb	r3, [r7, #4]
	GPIO_InitStructure.GPIO_Speed = GPIO_Speed_100MHz;
 8001770:	2303      	movs	r3, #3
 8001772:	717b      	strb	r3, [r7, #5]
	GPIO_InitStructure.GPIO_OType = GPIO_OType_PP;
 8001774:	2300      	movs	r3, #0
 8001776:	71bb      	strb	r3, [r7, #6]
	GPIO_InitStructure.GPIO_PuPd = GPIO_PuPd_UP ;
 8001778:	2301      	movs	r3, #1
 800177a:	71fb      	strb	r3, [r7, #7]
	GPIO_Init(GPIOA, &GPIO_InitStructure);
 800177c:	463b      	mov	r3, r7
 800177e:	4619      	mov	r1, r3
 8001780:	4818      	ldr	r0, [pc, #96]	@ (80017e4 <LEDGPIO_Config+0x8c>)
 8001782:	f7fe fe87 	bl	8000494 <GPIO_Init>

	GPIO_PinAFConfig(GPIOA, GPIO_PinSource0, GPIO_AF_TIM2);
 8001786:	2201      	movs	r2, #1
 8001788:	2100      	movs	r1, #0
 800178a:	4816      	ldr	r0, [pc, #88]	@ (80017e4 <LEDGPIO_Config+0x8c>)
 800178c:	f7fe ff43 	bl	8000616 <GPIO_PinAFConfig>
	GPIO_PinAFConfig(GPIOA, GPIO_PinSource1, GPIO_AF_TIM2);
 8001790:	2201      	movs	r2, #1
 8001792:	2101      	movs	r1, #1
 8001794:	4813      	ldr	r0, [pc, #76]	@ (80017e4 <LEDGPIO_Config+0x8c>)
 8001796:	f7fe ff3e 	bl	8000616 <GPIO_PinAFConfig>
	GPIO_PinAFConfig(GPIOA, GPIO_PinSource11, GPIO_AF_TIM1);
 800179a:	2201      	movs	r2, #1
 800179c:	210b      	movs	r1, #11
 800179e:	4811      	ldr	r0, [pc, #68]	@ (80017e4 <LEDGPIO_Config+0x8c>)
 80017a0:	f7fe ff39 	bl	8000616 <GPIO_PinAFConfig>
	GPIO_PinAFConfig(GPIOA, GPIO_PinSource10, GPIO_AF_TIM1);
 80017a4:	2201      	movs	r2, #1
 80017a6:	210a      	movs	r1, #10
 80017a8:	480e      	ldr	r0, [pc, #56]	@ (80017e4 <LEDGPIO_Config+0x8c>)
 80017aa:	f7fe ff34 	bl	8000616 <GPIO_PinAFConfig>

	/* GPIOB Configuration: Channel 13 as alternate function push-pull */
	GPIO_InitStructure.GPIO_Pin = LED1_RED_PIN;
 80017ae:	f44f 5300 	mov.w	r3, #8192	@ 0x2000
 80017b2:	603b      	str	r3, [r7, #0]
	GPIO_Init(GPIOB, &GPIO_InitStructure);
 80017b4:	463b      	mov	r3, r7
 80017b6:	4619      	mov	r1, r3
 80017b8:	480b      	ldr	r0, [pc, #44]	@ (80017e8 <LEDGPIO_Config+0x90>)
 80017ba:	f7fe fe6b 	bl	8000494 <GPIO_Init>

	GPIO_PinAFConfig(GPIOB, GPIO_PinSource13, GPIO_AF_TIM1);
 80017be:	2201      	movs	r2, #1
 80017c0:	210d      	movs	r1, #13
 80017c2:	4809      	ldr	r0, [pc, #36]	@ (80017e8 <LEDGPIO_Config+0x90>)
 80017c4:	f7fe ff27 	bl	8000616 <GPIO_PinAFConfig>

	/* GPIOA Configuration: Board STM32 */
	GPIO_InitStructure.GPIO_Pin = LED_BOARD_PIN;
 80017c8:	2320      	movs	r3, #32
 80017ca:	603b      	str	r3, [r7, #0]
	GPIO_InitStructure.GPIO_Mode = GPIO_Mode_OUT;
 80017cc:	2301      	movs	r3, #1
 80017ce:	713b      	strb	r3, [r7, #4]
	GPIO_Init(LED_BOARD_PORT, &GPIO_InitStructure);
 80017d0:	463b      	mov	r3, r7
 80017d2:	4619      	mov	r1, r3
 80017d4:	4803      	ldr	r0, [pc, #12]	@ (80017e4 <LEDGPIO_Config+0x8c>)
 80017d6:	f7fe fe5d 	bl	8000494 <GPIO_Init>
}
 80017da:	bf00      	nop
 80017dc:	3708      	adds	r7, #8
 80017de:	46bd      	mov	sp, r7
 80017e0:	bd80      	pop	{r7, pc}
 80017e2:	bf00      	nop
 80017e4:	40020000 	.word	0x40020000
 80017e8:	40020400 	.word	0x40020400

080017ec <LEDTIM_Config>:
  * @brief  Configure the TIM1 and TIM2 Pins.
  * @param  None
  * @retval None
  */
static void LEDTIM_Config(void)
{
 80017ec:	b580      	push	{r7, lr}
 80017ee:	b08a      	sub	sp, #40	@ 0x28
 80017f0:	af00      	add	r7, sp, #0
	TIM_TimeBaseInitTypeDef  TIM_TimeBaseStructure;
	TIM_OCInitTypeDef  TIM_OCInitStructure;
	uint16_t ChannelPulse = 0;
 80017f2:	2300      	movs	r3, #0
 80017f4:	84fb      	strh	r3, [r7, #38]	@ 0x26

	/* Compute CCR1 value to generate a duty cycle at 50% for channel 1 and 1N */
	ChannelPulse = (uint16_t) (((uint32_t) 0 * (LED_TIMER_PERIOD - 1)) / 100);
 80017f6:	2300      	movs	r3, #0
 80017f8:	84fb      	strh	r3, [r7, #38]	@ 0x26

	/* TIM1 and TIM2 clock enable */
	RCC_APB2PeriphClockCmd(RCC_APB2Periph_TIM1, ENABLE);
 80017fa:	2101      	movs	r1, #1
 80017fc:	2001      	movs	r0, #1
 80017fe:	f7ff f841 	bl	8000884 <RCC_APB2PeriphClockCmd>
	RCC_APB1PeriphClockCmd(RCC_APB1Periph_TIM2, ENABLE);
 8001802:	2101      	movs	r1, #1
 8001804:	2001      	movs	r0, #1
 8001806:	f7ff f81d 	bl	8000844 <RCC_APB1PeriphClockCmd>

	/* Time Base configuration */
	TIM_TimeBaseStructure.TIM_Prescaler = 0;
 800180a:	2300      	movs	r3, #0
 800180c:	833b      	strh	r3, [r7, #24]
	TIM_TimeBaseStructure.TIM_CounterMode = TIM_CounterMode_Up;
 800180e:	2300      	movs	r3, #0
 8001810:	837b      	strh	r3, [r7, #26]
	TIM_TimeBaseStructure.TIM_Period = LED_TIMER_PERIOD;
 8001812:	4b2e      	ldr	r3, [pc, #184]	@ (80018cc <LEDTIM_Config+0xe0>)
 8001814:	681b      	ldr	r3, [r3, #0]
 8001816:	4a2e      	ldr	r2, [pc, #184]	@ (80018d0 <LEDTIM_Config+0xe4>)
 8001818:	fba2 2303 	umull	r2, r3, r2, r3
 800181c:	0b9b      	lsrs	r3, r3, #14
 800181e:	3b01      	subs	r3, #1
 8001820:	61fb      	str	r3, [r7, #28]
	TIM_TimeBaseStructure.TIM_ClockDivision = 0;
 8001822:	2300      	movs	r3, #0
 8001824:	843b      	strh	r3, [r7, #32]
	TIM_TimeBaseStructure.TIM_RepetitionCounter = 0;
 8001826:	2300      	movs	r3, #0
 8001828:	f887 3022 	strb.w	r3, [r7, #34]	@ 0x22

	TIM_TimeBaseInit(TIM1, &TIM_TimeBaseStructure);
 800182c:	f107 0318 	add.w	r3, r7, #24
 8001830:	4619      	mov	r1, r3
 8001832:	4828      	ldr	r0, [pc, #160]	@ (80018d4 <LEDTIM_Config+0xe8>)
 8001834:	f7ff f846 	bl	80008c4 <TIM_TimeBaseInit>
	TIM_TimeBaseInit(TIM2, &TIM_TimeBaseStructure);
 8001838:	f107 0318 	add.w	r3, r7, #24
 800183c:	4619      	mov	r1, r3
 800183e:	f04f 4080 	mov.w	r0, #1073741824	@ 0x40000000
 8001842:	f7ff f83f 	bl	80008c4 <TIM_TimeBaseInit>

	/* Channel 1, 2, 3 and 4 Configuration in PWM mode */
	TIM_OCInitStructure.TIM_OCMode = TIM_OCMode_PWM2;
 8001846:	2370      	movs	r3, #112	@ 0x70
 8001848:	80bb      	strh	r3, [r7, #4]
	TIM_OCInitStructure.TIM_OutputState = TIM_OutputState_Enable;
 800184a:	2301      	movs	r3, #1
 800184c:	80fb      	strh	r3, [r7, #6]
	TIM_OCInitStructure.TIM_OutputNState = TIM_OutputNState_Enable;
 800184e:	2304      	movs	r3, #4
 8001850:	813b      	strh	r3, [r7, #8]
	TIM_OCInitStructure.TIM_Pulse = ChannelPulse;
 8001852:	8cfb      	ldrh	r3, [r7, #38]	@ 0x26
 8001854:	60fb      	str	r3, [r7, #12]
	TIM_OCInitStructure.TIM_OCPolarity = TIM_OCPolarity_Low;
 8001856:	2302      	movs	r3, #2
 8001858:	823b      	strh	r3, [r7, #16]
	TIM_OCInitStructure.TIM_OCNPolarity = TIM_OCNPolarity_High;
 800185a:	2300      	movs	r3, #0
 800185c:	827b      	strh	r3, [r7, #18]
	TIM_OCInitStructure.TIM_OCIdleState = TIM_OCIdleState_Set;
 800185e:	f44f 7380 	mov.w	r3, #256	@ 0x100
 8001862:	82bb      	strh	r3, [r7, #20]
	TIM_OCInitStructure.TIM_OCNIdleState = TIM_OCIdleState_Reset;
 8001864:	2300      	movs	r3, #0
 8001866:	82fb      	strh	r3, [r7, #22]

	TIM_OC1Init(TIM1, &TIM_OCInitStructure);
 8001868:	1d3b      	adds	r3, r7, #4
 800186a:	4619      	mov	r1, r3
 800186c:	4819      	ldr	r0, [pc, #100]	@ (80018d4 <LEDTIM_Config+0xe8>)
 800186e:	f7ff f8b5 	bl	80009dc <TIM_OC1Init>
	TIM_OC3Init(TIM1, &TIM_OCInitStructure);
 8001872:	1d3b      	adds	r3, r7, #4
 8001874:	4619      	mov	r1, r3
 8001876:	4817      	ldr	r0, [pc, #92]	@ (80018d4 <LEDTIM_Config+0xe8>)
 8001878:	f7ff f9b2 	bl	8000be0 <TIM_OC3Init>
	TIM_OC4Init(TIM1, &TIM_OCInitStructure);
 800187c:	1d3b      	adds	r3, r7, #4
 800187e:	4619      	mov	r1, r3
 8001880:	4814      	ldr	r0, [pc, #80]	@ (80018d4 <LEDTIM_Config+0xe8>)
 8001882:	f7ff fa33 	bl	8000cec <TIM_OC4Init>

	TIM_OC1Init(TIM2, &TIM_OCInitStructure);
 8001886:	1d3b      	adds	r3, r7, #4
 8001888:	4619      	mov	r1, r3
 800188a:	f04f 4080 	mov.w	r0, #1073741824	@ 0x40000000
 800188e:	f7ff f8a5 	bl	80009dc <TIM_OC1Init>
	TIM_OC2Init(TIM2, &TIM_OCInitStructure);
 8001892:	1d3b      	adds	r3, r7, #4
 8001894:	4619      	mov	r1, r3
 8001896:	f04f 4080 	mov.w	r0, #1073741824	@ 0x40000000
 800189a:	f7ff f919 	bl	8000ad0 <TIM_OC2Init>

	/* TIM1 and TIM2 counter enable */
	TIM_Cmd(TIM1, ENABLE);
 800189e:	2101      	movs	r1, #1
 80018a0:	480c      	ldr	r0, [pc, #48]	@ (80018d4 <LEDTIM_Config+0xe8>)
 80018a2:	f7ff f87b 	bl	800099c <TIM_Cmd>
	TIM_Cmd(TIM2, ENABLE);
 80018a6:	2101      	movs	r1, #1
 80018a8:	f04f 4080 	mov.w	r0, #1073741824	@ 0x40000000
 80018ac:	f7ff f876 	bl	800099c <TIM_Cmd>

	/* TIM1 and TIM2 Main Output Enable */
	TIM_CtrlPWMOutputs(TIM1, ENABLE);
 80018b0:	2101      	movs	r1, #1
 80018b2:	4808      	ldr	r0, [pc, #32]	@ (80018d4 <LEDTIM_Config+0xe8>)
 80018b4:	f7ff fa90 	bl	8000dd8 <TIM_CtrlPWMOutputs>
	TIM_CtrlPWMOutputs(TIM2, ENABLE);
 80018b8:	2101      	movs	r1, #1
 80018ba:	f04f 4080 	mov.w	r0, #1073741824	@ 0x40000000
 80018be:	f7ff fa8b 	bl	8000dd8 <TIM_CtrlPWMOutputs>
}
 80018c2:	bf00      	nop
 80018c4:	3728      	adds	r7, #40	@ 0x28
 80018c6:	46bd      	mov	sp, r7
 80018c8:	bd80      	pop	{r7, pc}
 80018ca:	bf00      	nop
 80018cc:	20000000 	.word	0x20000000
 80018d0:	eeb83a0d 	.word	0xeeb83a0d
 80018d4:	40010000 	.word	0x40010000

080018d8 <EventSchedulerInit>:
 * @retval None
 */
void
EventSchedulerInit(
    app_state_callback func
) {
 80018d8:	b580      	push	{r7, lr}
 80018da:	b082      	sub	sp, #8
 80018dc:	af00      	add	r7, sp, #0
 80018de:	6078      	str	r0, [r7, #4]
    if (func != NULL) {
 80018e0:	687b      	ldr	r3, [r7, #4]
 80018e2:	2b00      	cmp	r3, #0
 80018e4:	d009      	beq.n	80018fa <EventSchedulerInit+0x22>
        pAppStateFunc = func;
 80018e6:	4a07      	ldr	r2, [pc, #28]	@ (8001904 <EventSchedulerInit+0x2c>)
 80018e8:	687b      	ldr	r3, [r7, #4]
 80018ea:	6013      	str	r3, [r2, #0]
        bufInit(pBuffEvent, &eventQueue, sizeof(uint8_t), SIZE_EVENT_QUEUE);
 80018ec:	f44f 7380 	mov.w	r3, #256	@ 0x100
 80018f0:	2201      	movs	r2, #1
 80018f2:	4905      	ldr	r1, [pc, #20]	@ (8001908 <EventSchedulerInit+0x30>)
 80018f4:	4805      	ldr	r0, [pc, #20]	@ (800190c <EventSchedulerInit+0x34>)
 80018f6:	f002 fc8d 	bl	8004214 <bufInit>
    }
}
 80018fa:	bf00      	nop
 80018fc:	3708      	adds	r7, #8
 80018fe:	46bd      	mov	sp, r7
 8001900:	bd80      	pop	{r7, pc}
 8001902:	bf00      	nop
 8001904:	20000170 	.word	0x20000170
 8001908:	20000274 	.word	0x20000274
 800190c:	20000174 	.word	0x20000174

08001910 <EventSchedulerAdd>:
 * @retval None
 */
type_status_t
EventSchedulerAdd(
    const uint8_t pvItemToQueue
) {
 8001910:	b580      	push	{r7, lr}
 8001912:	b082      	sub	sp, #8
 8001914:	af00      	add	r7, sp, #0
 8001916:	4603      	mov	r3, r0
 8001918:	71fb      	strb	r3, [r7, #7]
    if (bufEnDat(&eventQueue, (uint8_t *)&pvItemToQueue) == ERR_OK) {
 800191a:	1dfb      	adds	r3, r7, #7
 800191c:	4619      	mov	r1, r3
 800191e:	4806      	ldr	r0, [pc, #24]	@ (8001938 <EventSchedulerAdd+0x28>)
 8001920:	f002 fcde 	bl	80042e0 <bufEnDat>
 8001924:	4603      	mov	r3, r0
 8001926:	2b00      	cmp	r3, #0
 8001928:	d101      	bne.n	800192e <EventSchedulerAdd+0x1e>
        return SUCCESS1;
 800192a:	2301      	movs	r3, #1
 800192c:	e000      	b.n	8001930 <EventSchedulerAdd+0x20>
    }
    
    return FAIL;
 800192e:	2300      	movs	r3, #0
}
 8001930:	4618      	mov	r0, r3
 8001932:	3708      	adds	r7, #8
 8001934:	46bd      	mov	sp, r7
 8001936:	bd80      	pop	{r7, pc}
 8001938:	20000274 	.word	0x20000274

0800193c <processEventScheduler>:
 * @brief  Proccess event in queue
 * @param  None
 * @retval None
 */
void
processEventScheduler(void) {
 800193c:	b580      	push	{r7, lr}
 800193e:	b082      	sub	sp, #8
 8001940:	af00      	add	r7, sp, #0
	uint8_t event;
    
    if (pAppStateFunc != NULL) {
 8001942:	4b0a      	ldr	r3, [pc, #40]	@ (800196c <processEventScheduler+0x30>)
 8001944:	681b      	ldr	r3, [r3, #0]
 8001946:	2b00      	cmp	r3, #0
 8001948:	d00c      	beq.n	8001964 <processEventScheduler+0x28>
        if (bufDeDat(&eventQueue, (uint8_t *)&event) == ERR_OK) {
 800194a:	1dfb      	adds	r3, r7, #7
 800194c:	4619      	mov	r1, r3
 800194e:	4808      	ldr	r0, [pc, #32]	@ (8001970 <processEventScheduler+0x34>)
 8001950:	f002 fd15 	bl	800437e <bufDeDat>
 8001954:	4603      	mov	r3, r0
 8001956:	2b00      	cmp	r3, #0
 8001958:	d104      	bne.n	8001964 <processEventScheduler+0x28>
            pAppStateFunc(event);
 800195a:	4b04      	ldr	r3, [pc, #16]	@ (800196c <processEventScheduler+0x30>)
 800195c:	681b      	ldr	r3, [r3, #0]
 800195e:	79fa      	ldrb	r2, [r7, #7]
 8001960:	4610      	mov	r0, r2
 8001962:	4798      	blx	r3
        }
    }
}
 8001964:	bf00      	nop
 8001966:	3708      	adds	r7, #8
 8001968:	46bd      	mov	sp, r7
 800196a:	bd80      	pop	{r7, pc}
 800196c:	20000170 	.word	0x20000170
 8001970:	20000274 	.word	0x20000274

08001974 <NVIC_SetPriority>:

    \param [in]      IRQn  Interrupt number.
    \param [in]  priority  Priority to set.
 */
__STATIC_INLINE void NVIC_SetPriority(IRQn_Type IRQn, uint32_t priority)
{
 8001974:	b480      	push	{r7}
 8001976:	b083      	sub	sp, #12
 8001978:	af00      	add	r7, sp, #0
 800197a:	4603      	mov	r3, r0
 800197c:	6039      	str	r1, [r7, #0]
 800197e:	71fb      	strb	r3, [r7, #7]
  if((int32_t)IRQn < 0) {
 8001980:	f997 3007 	ldrsb.w	r3, [r7, #7]
 8001984:	2b00      	cmp	r3, #0
 8001986:	da0b      	bge.n	80019a0 <NVIC_SetPriority+0x2c>
    SCB->SHP[(((uint32_t)(int32_t)IRQn) & 0xFUL)-4UL] = (uint8_t)((priority << (8 - __NVIC_PRIO_BITS)) & (uint32_t)0xFFUL);
 8001988:	683b      	ldr	r3, [r7, #0]
 800198a:	b2da      	uxtb	r2, r3
 800198c:	490c      	ldr	r1, [pc, #48]	@ (80019c0 <NVIC_SetPriority+0x4c>)
 800198e:	79fb      	ldrb	r3, [r7, #7]
 8001990:	f003 030f 	and.w	r3, r3, #15
 8001994:	3b04      	subs	r3, #4
 8001996:	0112      	lsls	r2, r2, #4
 8001998:	b2d2      	uxtb	r2, r2
 800199a:	440b      	add	r3, r1
 800199c:	761a      	strb	r2, [r3, #24]
  }
  else {
    NVIC->IP[((uint32_t)(int32_t)IRQn)]               = (uint8_t)((priority << (8 - __NVIC_PRIO_BITS)) & (uint32_t)0xFFUL);
  }
}
 800199e:	e009      	b.n	80019b4 <NVIC_SetPriority+0x40>
    NVIC->IP[((uint32_t)(int32_t)IRQn)]               = (uint8_t)((priority << (8 - __NVIC_PRIO_BITS)) & (uint32_t)0xFFUL);
 80019a0:	683b      	ldr	r3, [r7, #0]
 80019a2:	b2da      	uxtb	r2, r3
 80019a4:	4907      	ldr	r1, [pc, #28]	@ (80019c4 <NVIC_SetPriority+0x50>)
 80019a6:	f997 3007 	ldrsb.w	r3, [r7, #7]
 80019aa:	0112      	lsls	r2, r2, #4
 80019ac:	b2d2      	uxtb	r2, r2
 80019ae:	440b      	add	r3, r1
 80019b0:	f883 2300 	strb.w	r2, [r3, #768]	@ 0x300
}
 80019b4:	bf00      	nop
 80019b6:	370c      	adds	r7, #12
 80019b8:	46bd      	mov	sp, r7
 80019ba:	f85d 7b04 	ldr.w	r7, [sp], #4
 80019be:	4770      	bx	lr
 80019c0:	e000ed00 	.word	0xe000ed00
 80019c4:	e000e100 	.word	0xe000e100

080019c8 <SysTick_Config>:
    function <b>SysTick_Config</b> is not included. In this case, the file <b><i>device</i>.h</b>
    must contain a vendor-specific implementation of this function.

 */
__STATIC_INLINE uint32_t SysTick_Config(uint32_t ticks)
{
 80019c8:	b580      	push	{r7, lr}
 80019ca:	b082      	sub	sp, #8
 80019cc:	af00      	add	r7, sp, #0
 80019ce:	6078      	str	r0, [r7, #4]
  if ((ticks - 1UL) > SysTick_LOAD_RELOAD_Msk) { return (1UL); }    /* Reload value impossible */
 80019d0:	687b      	ldr	r3, [r7, #4]
 80019d2:	3b01      	subs	r3, #1
 80019d4:	f1b3 7f80 	cmp.w	r3, #16777216	@ 0x1000000
 80019d8:	d301      	bcc.n	80019de <SysTick_Config+0x16>
 80019da:	2301      	movs	r3, #1
 80019dc:	e00f      	b.n	80019fe <SysTick_Config+0x36>

  SysTick->LOAD  = (uint32_t)(ticks - 1UL);                         /* set reload register */
 80019de:	4a0a      	ldr	r2, [pc, #40]	@ (8001a08 <SysTick_Config+0x40>)
 80019e0:	687b      	ldr	r3, [r7, #4]
 80019e2:	3b01      	subs	r3, #1
 80019e4:	6053      	str	r3, [r2, #4]
  NVIC_SetPriority (SysTick_IRQn, (1UL << __NVIC_PRIO_BITS) - 1UL); /* set Priority for Systick Interrupt */
 80019e6:	210f      	movs	r1, #15
 80019e8:	f04f 30ff 	mov.w	r0, #4294967295
 80019ec:	f7ff ffc2 	bl	8001974 <NVIC_SetPriority>
  SysTick->VAL   = 0UL;                                             /* Load the SysTick Counter Value */
 80019f0:	4b05      	ldr	r3, [pc, #20]	@ (8001a08 <SysTick_Config+0x40>)
 80019f2:	2200      	movs	r2, #0
 80019f4:	609a      	str	r2, [r3, #8]
  SysTick->CTRL  = SysTick_CTRL_CLKSOURCE_Msk |
 80019f6:	4b04      	ldr	r3, [pc, #16]	@ (8001a08 <SysTick_Config+0x40>)
 80019f8:	2207      	movs	r2, #7
 80019fa:	601a      	str	r2, [r3, #0]
                   SysTick_CTRL_TICKINT_Msk   |
                   SysTick_CTRL_ENABLE_Msk;                         /* Enable SysTick IRQ and SysTick Timer */
  return (0UL);                                                     /* Function successful */
 80019fc:	2300      	movs	r3, #0
}
 80019fe:	4618      	mov	r0, r3
 8001a00:	3708      	adds	r7, #8
 8001a02:	46bd      	mov	sp, r7
 8001a04:	bd80      	pop	{r7, pc}
 8001a06:	bf00      	nop
 8001a08:	e000e010 	.word	0xe000e010

08001a0c <TimerInit>:
 * @brief  None
 * @param  None
 * @retval None
 */
void
TimerInit(void) {
 8001a0c:	b580      	push	{r7, lr}
 8001a0e:	b084      	sub	sp, #16
 8001a10:	af00      	add	r7, sp, #0
    RCC_ClocksTypeDef RCC_Clocks;

    RCC_GetClocksFreq(&RCC_Clocks);
 8001a12:	463b      	mov	r3, r7
 8001a14:	4618      	mov	r0, r3
 8001a16:	f7fe fe47 	bl	80006a8 <RCC_GetClocksFreq>
    SysTick_Config(RCC_Clocks.SYSCLK_Frequency/1000);
 8001a1a:	683b      	ldr	r3, [r7, #0]
 8001a1c:	4a0a      	ldr	r2, [pc, #40]	@ (8001a48 <TimerInit+0x3c>)
 8001a1e:	fba2 2303 	umull	r2, r3, r2, r3
 8001a22:	099b      	lsrs	r3, r3, #6
 8001a24:	4618      	mov	r0, r3
 8001a26:	f7ff ffcf 	bl	80019c8 <SysTick_Config>
    NVIC_SetPriority(SysTick_IRQn, 1);
 8001a2a:	2101      	movs	r1, #1
 8001a2c:	f04f 30ff 	mov.w	r0, #4294967295
 8001a30:	f7ff ffa0 	bl	8001974 <NVIC_SetPriority>
    memsetl((uint8_t *)g_pTimerHandle, 0, sizeof(g_pTimerHandle));
 8001a34:	f44f 72c0 	mov.w	r2, #384	@ 0x180
 8001a38:	2100      	movs	r1, #0
 8001a3a:	4804      	ldr	r0, [pc, #16]	@ (8001a4c <TimerInit+0x40>)
 8001a3c:	f002 fce4 	bl	8004408 <memsetl>
    DBG_TIMER_SEND_STR("$ TimerInit\n");
}
 8001a40:	bf00      	nop
 8001a42:	3710      	adds	r7, #16
 8001a44:	46bd      	mov	sp, r7
 8001a46:	bd80      	pop	{r7, pc}
 8001a48:	10624dd3 	.word	0x10624dd3
 8001a4c:	20000284 	.word	0x20000284

08001a50 <TimerStart>:
    char* name,
	uint32_t wMilSecTick,
	uint8_t byRepeats,
	void (*callback)(void *),
    void *pcallbackData
) {   
 8001a50:	b590      	push	{r4, r7, lr}
 8001a52:	b087      	sub	sp, #28
 8001a54:	af00      	add	r7, sp, #0
 8001a56:	60f8      	str	r0, [r7, #12]
 8001a58:	60b9      	str	r1, [r7, #8]
 8001a5a:	603b      	str	r3, [r7, #0]
 8001a5c:	4613      	mov	r3, r2
 8001a5e:	71fb      	strb	r3, [r7, #7]
    for (uint8_t i = 0; i < MAX_TIMER; i++)
 8001a60:	2300      	movs	r3, #0
 8001a62:	75fb      	strb	r3, [r7, #23]
 8001a64:	e04c      	b.n	8001b00 <TimerStart+0xb0>
    {
        if (g_pTimerHandle[i].callbackFunc == NULL)
 8001a66:	7dfa      	ldrb	r2, [r7, #23]
 8001a68:	4929      	ldr	r1, [pc, #164]	@ (8001b10 <TimerStart+0xc0>)
 8001a6a:	4613      	mov	r3, r2
 8001a6c:	005b      	lsls	r3, r3, #1
 8001a6e:	4413      	add	r3, r2
 8001a70:	00db      	lsls	r3, r3, #3
 8001a72:	440b      	add	r3, r1
 8001a74:	3310      	adds	r3, #16
 8001a76:	681b      	ldr	r3, [r3, #0]
 8001a78:	2b00      	cmp	r3, #0
 8001a7a:	d13e      	bne.n	8001afa <TimerStart+0xaa>
        {
            g_pTimerHandle[i].name = name;
 8001a7c:	7dfa      	ldrb	r2, [r7, #23]
 8001a7e:	4924      	ldr	r1, [pc, #144]	@ (8001b10 <TimerStart+0xc0>)
 8001a80:	4613      	mov	r3, r2
 8001a82:	005b      	lsls	r3, r3, #1
 8001a84:	4413      	add	r3, r2
 8001a86:	00db      	lsls	r3, r3, #3
 8001a88:	440b      	add	r3, r1
 8001a8a:	68fa      	ldr	r2, [r7, #12]
 8001a8c:	601a      	str	r2, [r3, #0]
            g_pTimerHandle[i].callbackFunc = callback;
 8001a8e:	7dfa      	ldrb	r2, [r7, #23]
 8001a90:	491f      	ldr	r1, [pc, #124]	@ (8001b10 <TimerStart+0xc0>)
 8001a92:	4613      	mov	r3, r2
 8001a94:	005b      	lsls	r3, r3, #1
 8001a96:	4413      	add	r3, r2
 8001a98:	00db      	lsls	r3, r3, #3
 8001a9a:	440b      	add	r3, r1
 8001a9c:	3310      	adds	r3, #16
 8001a9e:	683a      	ldr	r2, [r7, #0]
 8001aa0:	601a      	str	r2, [r3, #0]
            g_pTimerHandle[i].repeats = byRepeats;
 8001aa2:	7dfa      	ldrb	r2, [r7, #23]
 8001aa4:	491a      	ldr	r1, [pc, #104]	@ (8001b10 <TimerStart+0xc0>)
 8001aa6:	4613      	mov	r3, r2
 8001aa8:	005b      	lsls	r3, r3, #1
 8001aaa:	4413      	add	r3, r2
 8001aac:	00db      	lsls	r3, r3, #3
 8001aae:	440b      	add	r3, r1
 8001ab0:	330c      	adds	r3, #12
 8001ab2:	79fa      	ldrb	r2, [r7, #7]
 8001ab4:	701a      	strb	r2, [r3, #0]
            g_pTimerHandle[i].pCallbackData = pcallbackData;
 8001ab6:	7dfa      	ldrb	r2, [r7, #23]
 8001ab8:	4915      	ldr	r1, [pc, #84]	@ (8001b10 <TimerStart+0xc0>)
 8001aba:	4613      	mov	r3, r2
 8001abc:	005b      	lsls	r3, r3, #1
 8001abe:	4413      	add	r3, r2
 8001ac0:	00db      	lsls	r3, r3, #3
 8001ac2:	440b      	add	r3, r1
 8001ac4:	3314      	adds	r3, #20
 8001ac6:	6aba      	ldr	r2, [r7, #40]	@ 0x28
 8001ac8:	601a      	str	r2, [r3, #0]
            g_pTimerHandle[i].milSecStart = GetMilSecTick();
 8001aca:	7dfc      	ldrb	r4, [r7, #23]
 8001acc:	f000 f872 	bl	8001bb4 <GetMilSecTick>
 8001ad0:	4602      	mov	r2, r0
 8001ad2:	490f      	ldr	r1, [pc, #60]	@ (8001b10 <TimerStart+0xc0>)
 8001ad4:	4623      	mov	r3, r4
 8001ad6:	005b      	lsls	r3, r3, #1
 8001ad8:	4423      	add	r3, r4
 8001ada:	00db      	lsls	r3, r3, #3
 8001adc:	440b      	add	r3, r1
 8001ade:	3304      	adds	r3, #4
 8001ae0:	601a      	str	r2, [r3, #0]
            g_pTimerHandle[i].milSecTimeout = wMilSecTick;
 8001ae2:	7dfa      	ldrb	r2, [r7, #23]
 8001ae4:	490a      	ldr	r1, [pc, #40]	@ (8001b10 <TimerStart+0xc0>)
 8001ae6:	4613      	mov	r3, r2
 8001ae8:	005b      	lsls	r3, r3, #1
 8001aea:	4413      	add	r3, r2
 8001aec:	00db      	lsls	r3, r3, #3
 8001aee:	440b      	add	r3, r1
 8001af0:	3308      	adds	r3, #8
 8001af2:	68ba      	ldr	r2, [r7, #8]
 8001af4:	601a      	str	r2, [r3, #0]
            DBG_TIMER_SEND_NUM(g_pTimerHandle[i].repeats);
            DBG_TIMER_SEND_STR(", timeCall = ");
            DBG_TIMER_SEND_NUM(wMilSecTick);
            DBG_TIMER_SEND_STR("\n");

            return i;
 8001af6:	7dfb      	ldrb	r3, [r7, #23]
 8001af8:	e006      	b.n	8001b08 <TimerStart+0xb8>
    for (uint8_t i = 0; i < MAX_TIMER; i++)
 8001afa:	7dfb      	ldrb	r3, [r7, #23]
 8001afc:	3301      	adds	r3, #1
 8001afe:	75fb      	strb	r3, [r7, #23]
 8001b00:	7dfb      	ldrb	r3, [r7, #23]
 8001b02:	2b0f      	cmp	r3, #15
 8001b04:	d9af      	bls.n	8001a66 <TimerStart+0x16>
        }
    }
    
    return NO_TIMER;
 8001b06:	23ff      	movs	r3, #255	@ 0xff
}
 8001b08:	4618      	mov	r0, r3
 8001b0a:	371c      	adds	r7, #28
 8001b0c:	46bd      	mov	sp, r7
 8001b0e:	bd90      	pop	{r4, r7, pc}
 8001b10:	20000284 	.word	0x20000284

08001b14 <TimerStop>:
 * @retval None
 */
uint8_t
TimerStop(
    uint8_t byTimerId
) {   
 8001b14:	b480      	push	{r7}
 8001b16:	b083      	sub	sp, #12
 8001b18:	af00      	add	r7, sp, #0
 8001b1a:	4603      	mov	r3, r0
 8001b1c:	71fb      	strb	r3, [r7, #7]
    if ((byTimerId >= MAX_TIMER) || (g_pTimerHandle[byTimerId].callbackFunc == NULL))
 8001b1e:	79fb      	ldrb	r3, [r7, #7]
 8001b20:	2b0f      	cmp	r3, #15
 8001b22:	d80a      	bhi.n	8001b3a <TimerStop+0x26>
 8001b24:	79fa      	ldrb	r2, [r7, #7]
 8001b26:	4922      	ldr	r1, [pc, #136]	@ (8001bb0 <TimerStop+0x9c>)
 8001b28:	4613      	mov	r3, r2
 8001b2a:	005b      	lsls	r3, r3, #1
 8001b2c:	4413      	add	r3, r2
 8001b2e:	00db      	lsls	r3, r3, #3
 8001b30:	440b      	add	r3, r1
 8001b32:	3310      	adds	r3, #16
 8001b34:	681b      	ldr	r3, [r3, #0]
 8001b36:	2b00      	cmp	r3, #0
 8001b38:	d101      	bne.n	8001b3e <TimerStop+0x2a>
        return 0;
 8001b3a:	2300      	movs	r3, #0
 8001b3c:	e031      	b.n	8001ba2 <TimerStop+0x8e>
    DBG_TIMER_SEND_STR(g_pTimerHandle[byTimerId].name);
    DBG_TIMER_SEND_STR(" Id = "); 
    DBG_TIMER_SEND_NUM(byTimerId);
    DBG_TIMER_SEND_STR("\n");
    
    g_pTimerHandle[byTimerId].name = NULL;
 8001b3e:	79fa      	ldrb	r2, [r7, #7]
 8001b40:	491b      	ldr	r1, [pc, #108]	@ (8001bb0 <TimerStop+0x9c>)
 8001b42:	4613      	mov	r3, r2
 8001b44:	005b      	lsls	r3, r3, #1
 8001b46:	4413      	add	r3, r2
 8001b48:	00db      	lsls	r3, r3, #3
 8001b4a:	440b      	add	r3, r1
 8001b4c:	2200      	movs	r2, #0
 8001b4e:	601a      	str	r2, [r3, #0]
    g_pTimerHandle[byTimerId].callbackFunc = NULL;
 8001b50:	79fa      	ldrb	r2, [r7, #7]
 8001b52:	4917      	ldr	r1, [pc, #92]	@ (8001bb0 <TimerStop+0x9c>)
 8001b54:	4613      	mov	r3, r2
 8001b56:	005b      	lsls	r3, r3, #1
 8001b58:	4413      	add	r3, r2
 8001b5a:	00db      	lsls	r3, r3, #3
 8001b5c:	440b      	add	r3, r1
 8001b5e:	3310      	adds	r3, #16
 8001b60:	2200      	movs	r2, #0
 8001b62:	601a      	str	r2, [r3, #0]
    g_pTimerHandle[byTimerId].repeats = 0;
 8001b64:	79fa      	ldrb	r2, [r7, #7]
 8001b66:	4912      	ldr	r1, [pc, #72]	@ (8001bb0 <TimerStop+0x9c>)
 8001b68:	4613      	mov	r3, r2
 8001b6a:	005b      	lsls	r3, r3, #1
 8001b6c:	4413      	add	r3, r2
 8001b6e:	00db      	lsls	r3, r3, #3
 8001b70:	440b      	add	r3, r1
 8001b72:	330c      	adds	r3, #12
 8001b74:	2200      	movs	r2, #0
 8001b76:	701a      	strb	r2, [r3, #0]
    g_pTimerHandle[byTimerId].milSecTimeout = 0;
 8001b78:	79fa      	ldrb	r2, [r7, #7]
 8001b7a:	490d      	ldr	r1, [pc, #52]	@ (8001bb0 <TimerStop+0x9c>)
 8001b7c:	4613      	mov	r3, r2
 8001b7e:	005b      	lsls	r3, r3, #1
 8001b80:	4413      	add	r3, r2
 8001b82:	00db      	lsls	r3, r3, #3
 8001b84:	440b      	add	r3, r1
 8001b86:	3308      	adds	r3, #8
 8001b88:	2200      	movs	r2, #0
 8001b8a:	601a      	str	r2, [r3, #0]
    g_pTimerHandle[byTimerId].milSecStart = 0;
 8001b8c:	79fa      	ldrb	r2, [r7, #7]
 8001b8e:	4908      	ldr	r1, [pc, #32]	@ (8001bb0 <TimerStop+0x9c>)
 8001b90:	4613      	mov	r3, r2
 8001b92:	005b      	lsls	r3, r3, #1
 8001b94:	4413      	add	r3, r2
 8001b96:	00db      	lsls	r3, r3, #3
 8001b98:	440b      	add	r3, r1
 8001b9a:	3304      	adds	r3, #4
 8001b9c:	2200      	movs	r2, #0
 8001b9e:	601a      	str	r2, [r3, #0]
    
    return 1;
 8001ba0:	2301      	movs	r3, #1
}
 8001ba2:	4618      	mov	r0, r3
 8001ba4:	370c      	adds	r7, #12
 8001ba6:	46bd      	mov	sp, r7
 8001ba8:	f85d 7b04 	ldr.w	r7, [sp], #4
 8001bac:	4770      	bx	lr
 8001bae:	bf00      	nop
 8001bb0:	20000284 	.word	0x20000284

08001bb4 <GetMilSecTick>:
 * @brief  None
 * @param  None
 * @retval None
 */
uint32_t
GetMilSecTick(void) {
 8001bb4:	b480      	push	{r7}
 8001bb6:	af00      	add	r7, sp, #0
    return g_wMilSecTickTimer;
 8001bb8:	4b03      	ldr	r3, [pc, #12]	@ (8001bc8 <GetMilSecTick+0x14>)
 8001bba:	681b      	ldr	r3, [r3, #0]
}
 8001bbc:	4618      	mov	r0, r3
 8001bbe:	46bd      	mov	sp, r7
 8001bc0:	f85d 7b04 	ldr.w	r7, [sp], #4
 8001bc4:	4770      	bx	lr
 8001bc6:	bf00      	nop
 8001bc8:	20000404 	.word	0x20000404

08001bcc <processTimerScheduler>:
 * @brief  None
 * @param  None
 * @retval None
 */
void
processTimerScheduler(void) {
 8001bcc:	b580      	push	{r7, lr}
 8001bce:	b084      	sub	sp, #16
 8001bd0:	af00      	add	r7, sp, #0
    void (*callbackfunc)(void *);
    void *pPrameter;
    
    for (uint8_t i = 0; i < MAX_TIMER; i++)
 8001bd2:	2300      	movs	r3, #0
 8001bd4:	73fb      	strb	r3, [r7, #15]
 8001bd6:	e068      	b.n	8001caa <processTimerScheduler+0xde>
    {
        if ((g_pTimerHandle[i].callbackFunc != NULL) && TimeExpired(i))
 8001bd8:	7bfa      	ldrb	r2, [r7, #15]
 8001bda:	4938      	ldr	r1, [pc, #224]	@ (8001cbc <processTimerScheduler+0xf0>)
 8001bdc:	4613      	mov	r3, r2
 8001bde:	005b      	lsls	r3, r3, #1
 8001be0:	4413      	add	r3, r2
 8001be2:	00db      	lsls	r3, r3, #3
 8001be4:	440b      	add	r3, r1
 8001be6:	3310      	adds	r3, #16
 8001be8:	681b      	ldr	r3, [r3, #0]
 8001bea:	2b00      	cmp	r3, #0
 8001bec:	d05a      	beq.n	8001ca4 <processTimerScheduler+0xd8>
 8001bee:	7bfb      	ldrb	r3, [r7, #15]
 8001bf0:	4618      	mov	r0, r3
 8001bf2:	f000 f865 	bl	8001cc0 <TimeExpired>
 8001bf6:	4603      	mov	r3, r0
 8001bf8:	2b00      	cmp	r3, #0
 8001bfa:	d053      	beq.n	8001ca4 <processTimerScheduler+0xd8>
        {
            callbackfunc = g_pTimerHandle[i].callbackFunc;
 8001bfc:	7bfa      	ldrb	r2, [r7, #15]
 8001bfe:	492f      	ldr	r1, [pc, #188]	@ (8001cbc <processTimerScheduler+0xf0>)
 8001c00:	4613      	mov	r3, r2
 8001c02:	005b      	lsls	r3, r3, #1
 8001c04:	4413      	add	r3, r2
 8001c06:	00db      	lsls	r3, r3, #3
 8001c08:	440b      	add	r3, r1
 8001c0a:	3310      	adds	r3, #16
 8001c0c:	681b      	ldr	r3, [r3, #0]
 8001c0e:	60bb      	str	r3, [r7, #8]
            pPrameter = g_pTimerHandle[i].pCallbackData;
 8001c10:	7bfa      	ldrb	r2, [r7, #15]
 8001c12:	492a      	ldr	r1, [pc, #168]	@ (8001cbc <processTimerScheduler+0xf0>)
 8001c14:	4613      	mov	r3, r2
 8001c16:	005b      	lsls	r3, r3, #1
 8001c18:	4413      	add	r3, r2
 8001c1a:	00db      	lsls	r3, r3, #3
 8001c1c:	440b      	add	r3, r1
 8001c1e:	3314      	adds	r3, #20
 8001c20:	681b      	ldr	r3, [r3, #0]
 8001c22:	607b      	str	r3, [r7, #4]
            DBG_TIMER_SEND_NUM(g_pTimerHandle[i].repeats);
            DBG_TIMER_SEND_STR(", CB = ");
            DBG_TIMER_SEND_NUM((uint32_t)callbackfunc);
            DBG_TIMER_SEND_STR("\n");
            
            if ((g_pTimerHandle[i].repeats != TIMER_REPEAT_FOREVER) && \
 8001c24:	7bfa      	ldrb	r2, [r7, #15]
 8001c26:	4925      	ldr	r1, [pc, #148]	@ (8001cbc <processTimerScheduler+0xf0>)
 8001c28:	4613      	mov	r3, r2
 8001c2a:	005b      	lsls	r3, r3, #1
 8001c2c:	4413      	add	r3, r2
 8001c2e:	00db      	lsls	r3, r3, #3
 8001c30:	440b      	add	r3, r1
 8001c32:	330c      	adds	r3, #12
 8001c34:	781b      	ldrb	r3, [r3, #0]
 8001c36:	b2db      	uxtb	r3, r3
 8001c38:	2bff      	cmp	r3, #255	@ 0xff
 8001c3a:	d020      	beq.n	8001c7e <processTimerScheduler+0xb2>
                (g_pTimerHandle[i].repeats != TIMER_REPEAT_ONE_TIME))
 8001c3c:	7bfa      	ldrb	r2, [r7, #15]
 8001c3e:	491f      	ldr	r1, [pc, #124]	@ (8001cbc <processTimerScheduler+0xf0>)
 8001c40:	4613      	mov	r3, r2
 8001c42:	005b      	lsls	r3, r3, #1
 8001c44:	4413      	add	r3, r2
 8001c46:	00db      	lsls	r3, r3, #3
 8001c48:	440b      	add	r3, r1
 8001c4a:	330c      	adds	r3, #12
 8001c4c:	781b      	ldrb	r3, [r3, #0]
 8001c4e:	b2db      	uxtb	r3, r3
            if ((g_pTimerHandle[i].repeats != TIMER_REPEAT_FOREVER) && \
 8001c50:	2b00      	cmp	r3, #0
 8001c52:	d014      	beq.n	8001c7e <processTimerScheduler+0xb2>
                 g_pTimerHandle[i].repeats--;
 8001c54:	7bfa      	ldrb	r2, [r7, #15]
 8001c56:	4919      	ldr	r1, [pc, #100]	@ (8001cbc <processTimerScheduler+0xf0>)
 8001c58:	4613      	mov	r3, r2
 8001c5a:	005b      	lsls	r3, r3, #1
 8001c5c:	4413      	add	r3, r2
 8001c5e:	00db      	lsls	r3, r3, #3
 8001c60:	440b      	add	r3, r1
 8001c62:	330c      	adds	r3, #12
 8001c64:	781b      	ldrb	r3, [r3, #0]
 8001c66:	b2db      	uxtb	r3, r3
 8001c68:	3b01      	subs	r3, #1
 8001c6a:	b2d8      	uxtb	r0, r3
 8001c6c:	4913      	ldr	r1, [pc, #76]	@ (8001cbc <processTimerScheduler+0xf0>)
 8001c6e:	4613      	mov	r3, r2
 8001c70:	005b      	lsls	r3, r3, #1
 8001c72:	4413      	add	r3, r2
 8001c74:	00db      	lsls	r3, r3, #3
 8001c76:	440b      	add	r3, r1
 8001c78:	330c      	adds	r3, #12
 8001c7a:	4602      	mov	r2, r0
 8001c7c:	701a      	strb	r2, [r3, #0]
            
            if (g_pTimerHandle[i].repeats == TIMER_REPEAT_ONE_TIME) {
 8001c7e:	7bfa      	ldrb	r2, [r7, #15]
 8001c80:	490e      	ldr	r1, [pc, #56]	@ (8001cbc <processTimerScheduler+0xf0>)
 8001c82:	4613      	mov	r3, r2
 8001c84:	005b      	lsls	r3, r3, #1
 8001c86:	4413      	add	r3, r2
 8001c88:	00db      	lsls	r3, r3, #3
 8001c8a:	440b      	add	r3, r1
 8001c8c:	330c      	adds	r3, #12
 8001c8e:	781b      	ldrb	r3, [r3, #0]
 8001c90:	b2db      	uxtb	r3, r3
 8001c92:	2b00      	cmp	r3, #0
 8001c94:	d103      	bne.n	8001c9e <processTimerScheduler+0xd2>
                 DBG_TIMER_SEND_STR("$ CANCEL \n");
                 TimerStop(i);
 8001c96:	7bfb      	ldrb	r3, [r7, #15]
 8001c98:	4618      	mov	r0, r3
 8001c9a:	f7ff ff3b 	bl	8001b14 <TimerStop>
            }
            
            callbackfunc(pPrameter);
 8001c9e:	68bb      	ldr	r3, [r7, #8]
 8001ca0:	6878      	ldr	r0, [r7, #4]
 8001ca2:	4798      	blx	r3
    for (uint8_t i = 0; i < MAX_TIMER; i++)
 8001ca4:	7bfb      	ldrb	r3, [r7, #15]
 8001ca6:	3301      	adds	r3, #1
 8001ca8:	73fb      	strb	r3, [r7, #15]
 8001caa:	7bfb      	ldrb	r3, [r7, #15]
 8001cac:	2b0f      	cmp	r3, #15
 8001cae:	d993      	bls.n	8001bd8 <processTimerScheduler+0xc>
        }
    }
}
 8001cb0:	bf00      	nop
 8001cb2:	bf00      	nop
 8001cb4:	3710      	adds	r7, #16
 8001cb6:	46bd      	mov	sp, r7
 8001cb8:	bd80      	pop	{r7, pc}
 8001cba:	bf00      	nop
 8001cbc:	20000284 	.word	0x20000284

08001cc0 <TimeExpired>:
 * @retval TRUE or FALSE
 */
uint8_t
TimeExpired(
    uint8_t byTimerId
) {
 8001cc0:	b580      	push	{r7, lr}
 8001cc2:	b084      	sub	sp, #16
 8001cc4:	af00      	add	r7, sp, #0
 8001cc6:	4603      	mov	r3, r0
 8001cc8:	71fb      	strb	r3, [r7, #7]
    uint32_t wMilSecTick;
    uint32_t wDeltaMilSec = 0;
 8001cca:	2300      	movs	r3, #0
 8001ccc:	60fb      	str	r3, [r7, #12]
  This function disables IRQ interrupts by setting the I-bit in the CPSR.
  Can only be executed in Privileged modes.
 */
__attribute__( ( always_inline ) ) __STATIC_INLINE void __disable_irq(void)
{
  __ASM volatile ("cpsid i" : : : "memory");
 8001cce:	b672      	cpsid	i
}
 8001cd0:	bf00      	nop
    
    __disable_irq();
    wMilSecTick = GetMilSecTick();
 8001cd2:	f7ff ff6f 	bl	8001bb4 <GetMilSecTick>
 8001cd6:	60b8      	str	r0, [r7, #8]
    if ((byTimerId >= MAX_TIMER) || (g_pTimerHandle[byTimerId].callbackFunc == NULL))
 8001cd8:	79fb      	ldrb	r3, [r7, #7]
 8001cda:	2b0f      	cmp	r3, #15
 8001cdc:	d80a      	bhi.n	8001cf4 <TimeExpired+0x34>
 8001cde:	79fa      	ldrb	r2, [r7, #7]
 8001ce0:	492b      	ldr	r1, [pc, #172]	@ (8001d90 <TimeExpired+0xd0>)
 8001ce2:	4613      	mov	r3, r2
 8001ce4:	005b      	lsls	r3, r3, #1
 8001ce6:	4413      	add	r3, r2
 8001ce8:	00db      	lsls	r3, r3, #3
 8001cea:	440b      	add	r3, r1
 8001cec:	3310      	adds	r3, #16
 8001cee:	681b      	ldr	r3, [r3, #0]
 8001cf0:	2b00      	cmp	r3, #0
 8001cf2:	d103      	bne.n	8001cfc <TimeExpired+0x3c>
  __ASM volatile ("cpsie i" : : : "memory");
 8001cf4:	b662      	cpsie	i
}
 8001cf6:	bf00      	nop
    {
    	__enable_irq();
        return 0;
 8001cf8:	2300      	movs	r3, #0
 8001cfa:	e044      	b.n	8001d86 <TimeExpired+0xc6>
    }
      
    if (wMilSecTick >= g_pTimerHandle[byTimerId].milSecStart) 
 8001cfc:	79fa      	ldrb	r2, [r7, #7]
 8001cfe:	4924      	ldr	r1, [pc, #144]	@ (8001d90 <TimeExpired+0xd0>)
 8001d00:	4613      	mov	r3, r2
 8001d02:	005b      	lsls	r3, r3, #1
 8001d04:	4413      	add	r3, r2
 8001d06:	00db      	lsls	r3, r3, #3
 8001d08:	440b      	add	r3, r1
 8001d0a:	3304      	adds	r3, #4
 8001d0c:	681b      	ldr	r3, [r3, #0]
 8001d0e:	68ba      	ldr	r2, [r7, #8]
 8001d10:	429a      	cmp	r2, r3
 8001d12:	d30c      	bcc.n	8001d2e <TimeExpired+0x6e>
    {
        wDeltaMilSec = wMilSecTick - g_pTimerHandle[byTimerId].milSecStart;
 8001d14:	79fa      	ldrb	r2, [r7, #7]
 8001d16:	491e      	ldr	r1, [pc, #120]	@ (8001d90 <TimeExpired+0xd0>)
 8001d18:	4613      	mov	r3, r2
 8001d1a:	005b      	lsls	r3, r3, #1
 8001d1c:	4413      	add	r3, r2
 8001d1e:	00db      	lsls	r3, r3, #3
 8001d20:	440b      	add	r3, r1
 8001d22:	3304      	adds	r3, #4
 8001d24:	681b      	ldr	r3, [r3, #0]
 8001d26:	68ba      	ldr	r2, [r7, #8]
 8001d28:	1ad3      	subs	r3, r2, r3
 8001d2a:	60fb      	str	r3, [r7, #12]
 8001d2c:	e00e      	b.n	8001d4c <TimeExpired+0x8c>
    } 
    else
    {
        wDeltaMilSec = g_pTimerHandle[byTimerId].milSecStart - wMilSecTick;
 8001d2e:	79fa      	ldrb	r2, [r7, #7]
 8001d30:	4917      	ldr	r1, [pc, #92]	@ (8001d90 <TimeExpired+0xd0>)
 8001d32:	4613      	mov	r3, r2
 8001d34:	005b      	lsls	r3, r3, #1
 8001d36:	4413      	add	r3, r2
 8001d38:	00db      	lsls	r3, r3, #3
 8001d3a:	440b      	add	r3, r1
 8001d3c:	3304      	adds	r3, #4
 8001d3e:	681a      	ldr	r2, [r3, #0]
 8001d40:	68bb      	ldr	r3, [r7, #8]
 8001d42:	1ad3      	subs	r3, r2, r3
 8001d44:	60fb      	str	r3, [r7, #12]
        wDeltaMilSec = 0xFFFFFFFFU - wDeltaMilSec;
 8001d46:	68fb      	ldr	r3, [r7, #12]
 8001d48:	43db      	mvns	r3, r3
 8001d4a:	60fb      	str	r3, [r7, #12]
    }
    
    if (wDeltaMilSec < g_pTimerHandle[byTimerId].milSecTimeout)
 8001d4c:	79fa      	ldrb	r2, [r7, #7]
 8001d4e:	4910      	ldr	r1, [pc, #64]	@ (8001d90 <TimeExpired+0xd0>)
 8001d50:	4613      	mov	r3, r2
 8001d52:	005b      	lsls	r3, r3, #1
 8001d54:	4413      	add	r3, r2
 8001d56:	00db      	lsls	r3, r3, #3
 8001d58:	440b      	add	r3, r1
 8001d5a:	3308      	adds	r3, #8
 8001d5c:	681b      	ldr	r3, [r3, #0]
 8001d5e:	68fa      	ldr	r2, [r7, #12]
 8001d60:	429a      	cmp	r2, r3
 8001d62:	d203      	bcs.n	8001d6c <TimeExpired+0xac>
  __ASM volatile ("cpsie i" : : : "memory");
 8001d64:	b662      	cpsie	i
}
 8001d66:	bf00      	nop
    {
    	__enable_irq();
        return 0;
 8001d68:	2300      	movs	r3, #0
 8001d6a:	e00c      	b.n	8001d86 <TimeExpired+0xc6>
    }
    
    g_pTimerHandle[byTimerId].milSecStart = wMilSecTick;
 8001d6c:	79fa      	ldrb	r2, [r7, #7]
 8001d6e:	4908      	ldr	r1, [pc, #32]	@ (8001d90 <TimeExpired+0xd0>)
 8001d70:	4613      	mov	r3, r2
 8001d72:	005b      	lsls	r3, r3, #1
 8001d74:	4413      	add	r3, r2
 8001d76:	00db      	lsls	r3, r3, #3
 8001d78:	440b      	add	r3, r1
 8001d7a:	3304      	adds	r3, #4
 8001d7c:	68ba      	ldr	r2, [r7, #8]
 8001d7e:	601a      	str	r2, [r3, #0]
  __ASM volatile ("cpsie i" : : : "memory");
 8001d80:	b662      	cpsie	i
}
 8001d82:	bf00      	nop
    
    __enable_irq();
    
    return 1;
 8001d84:	2301      	movs	r3, #1
}
 8001d86:	4618      	mov	r0, r3
 8001d88:	3710      	adds	r7, #16
 8001d8a:	46bd      	mov	sp, r7
 8001d8c:	bd80      	pop	{r7, pc}
 8001d8e:	bf00      	nop
 8001d90:	20000284 	.word	0x20000284

08001d94 <SysTick_Handler>:
 * @brief  None
 * @param  None
 * @retval None
 */
void
SysTick_Handler(void) {
 8001d94:	b480      	push	{r7}
 8001d96:	af00      	add	r7, sp, #0
    g_wMilSecTickTimer++;
 8001d98:	4b04      	ldr	r3, [pc, #16]	@ (8001dac <SysTick_Handler+0x18>)
 8001d9a:	681b      	ldr	r3, [r3, #0]
 8001d9c:	3301      	adds	r3, #1
 8001d9e:	4a03      	ldr	r2, [pc, #12]	@ (8001dac <SysTick_Handler+0x18>)
 8001da0:	6013      	str	r3, [r2, #0]
}
 8001da2:	bf00      	nop
 8001da4:	46bd      	mov	sp, r7
 8001da6:	f85d 7b04 	ldr.w	r7, [sp], #4
 8001daa:	4770      	bx	lr
 8001dac:	20000404 	.word	0x20000404

08001db0 <USART2_IRQHandler>:
 *   This parameter can be one of the following values:
 *   UART1_IDX, UART2_IDX
 * @retval None
 */
void
USART2_IRQHandler(void) {
 8001db0:	b580      	push	{r7, lr}
 8001db2:	b082      	sub	sp, #8
 8001db4:	af00      	add	r7, sp, #0
  __ASM volatile ("cpsid i" : : : "memory");
 8001db6:	b672      	cpsid	i
}
 8001db8:	bf00      	nop
	__disable_irq();
    if (USART_GetITStatus(USART2, USART_IT_RXNE) == SET) {
 8001dba:	f240 5125 	movw	r1, #1317	@ 0x525
 8001dbe:	480f      	ldr	r0, [pc, #60]	@ (8001dfc <USART2_IRQHandler+0x4c>)
 8001dc0:	f7ff f840 	bl	8000e44 <USART_GetITStatus>
 8001dc4:	4603      	mov	r3, r0
 8001dc6:	2b01      	cmp	r3, #1
 8001dc8:	d112      	bne.n	8001df0 <USART2_IRQHandler+0x40>
        buffqueue_p pUartBuffQueueRx = (buffqueue_p) g_pUartQueueRx[0];
 8001dca:	4b0d      	ldr	r3, [pc, #52]	@ (8001e00 <USART2_IRQHandler+0x50>)
 8001dcc:	681b      	ldr	r3, [r3, #0]
 8001dce:	607b      	str	r3, [r7, #4]
        uint8_t byReceiverData = USART_ReceiveData(USART2);
 8001dd0:	480a      	ldr	r0, [pc, #40]	@ (8001dfc <USART2_IRQHandler+0x4c>)
 8001dd2:	f7ff f827 	bl	8000e24 <USART_ReceiveData>
 8001dd6:	4603      	mov	r3, r0
 8001dd8:	b2db      	uxtb	r3, r3
 8001dda:	70fb      	strb	r3, [r7, #3]
        if (bufEnDat(pUartBuffQueueRx, &byReceiverData) == ERR_BUF_FULL) {}
 8001ddc:	1cfb      	adds	r3, r7, #3
 8001dde:	4619      	mov	r1, r3
 8001de0:	6878      	ldr	r0, [r7, #4]
 8001de2:	f002 fa7d 	bl	80042e0 <bufEnDat>
        USART_ClearITPendingBit(USART2, USART_IT_RXNE);
 8001de6:	f240 5125 	movw	r1, #1317	@ 0x525
 8001dea:	4804      	ldr	r0, [pc, #16]	@ (8001dfc <USART2_IRQHandler+0x4c>)
 8001dec:	f7ff f885 	bl	8000efa <USART_ClearITPendingBit>
  __ASM volatile ("cpsie i" : : : "memory");
 8001df0:	b662      	cpsie	i
}
 8001df2:	bf00      	nop
    }
    __enable_irq();
}
 8001df4:	bf00      	nop
 8001df6:	3708      	adds	r7, #8
 8001df8:	46bd      	mov	sp, r7
 8001dfa:	bd80      	pop	{r7, pc}
 8001dfc:	40004400 	.word	0x40004400
 8001e00:	20000408 	.word	0x20000408

08001e04 <delayMicroseconds>:
//ucg_int_t get_tx(void) { return tx; };
//ucg_int_t get_ty(void) { return ty; };
//ucg_t *get_ucg(void) { return &ucg; };

static void delayMicroseconds(uint32_t microseconds)
{
 8001e04:	b480      	push	{r7}
 8001e06:	b083      	sub	sp, #12
 8001e08:	af00      	add	r7, sp, #0
 8001e0a:	6078      	str	r0, [r7, #4]
//	}
//	uint32_t i;
//	for( i = 0; i < microseconds; i++ )
//	{
//	}
}
 8001e0c:	bf00      	nop
 8001e0e:	370c      	adds	r7, #12
 8001e10:	46bd      	mov	sp, r7
 8001e12:	f85d 7b04 	ldr.w	r7, [sp], #4
 8001e16:	4770      	bx	lr

08001e18 <ucg_gpio_init>:

static void ucg_gpio_init(void) {
 8001e18:	b580      	push	{r7, lr}
 8001e1a:	b082      	sub	sp, #8
 8001e1c:	af00      	add	r7, sp, #0
	GPIO_InitTypeDef GPIO_InitStructure;

	/* GPIOA, GPIOB and GPIOC Clocks enable */
	RCC_AHB1PeriphClockCmd(RCC_AHB1Periph_GPIOA | RCC_AHB1Periph_GPIOB | RCC_AHB1Periph_GPIOC, ENABLE);
 8001e1e:	2101      	movs	r1, #1
 8001e20:	2007      	movs	r0, #7
 8001e22:	f7fe fcef 	bl	8000804 <RCC_AHB1PeriphClockCmd>

	GPIO_InitStructure.GPIO_Mode = GPIO_Mode_OUT;
 8001e26:	2301      	movs	r3, #1
 8001e28:	713b      	strb	r3, [r7, #4]
	GPIO_InitStructure.GPIO_Speed = GPIO_Speed_100MHz;
 8001e2a:	2303      	movs	r3, #3
 8001e2c:	717b      	strb	r3, [r7, #5]
	GPIO_InitStructure.GPIO_OType = GPIO_OType_PP;
 8001e2e:	2300      	movs	r3, #0
 8001e30:	71bb      	strb	r3, [r7, #6]
	GPIO_InitStructure.GPIO_PuPd = GPIO_PuPd_NOPULL;
 8001e32:	2300      	movs	r3, #0
 8001e34:	71fb      	strb	r3, [r7, #7]

	GPIO_InitStructure.GPIO_Pin = SPI1_SCK_PIN | SPI1_MOSI_PIN | SPI1_RS_PIN | SPI1_MODE_PIN;
 8001e36:	f44f 7368 	mov.w	r3, #928	@ 0x3a0
 8001e3a:	603b      	str	r3, [r7, #0]
	GPIO_Init(GPIOA, &GPIO_InitStructure);
 8001e3c:	463b      	mov	r3, r7
 8001e3e:	4619      	mov	r1, r3
 8001e40:	480a      	ldr	r0, [pc, #40]	@ (8001e6c <ucg_gpio_init+0x54>)
 8001e42:	f7fe fb27 	bl	8000494 <GPIO_Init>

	GPIO_InitStructure.GPIO_Pin = SPI1_CS_PIN | SPI1_ENABLE_PIN;
 8001e46:	f44f 6388 	mov.w	r3, #1088	@ 0x440
 8001e4a:	603b      	str	r3, [r7, #0]
	GPIO_Init(GPIOB, &GPIO_InitStructure);
 8001e4c:	463b      	mov	r3, r7
 8001e4e:	4619      	mov	r1, r3
 8001e50:	4807      	ldr	r0, [pc, #28]	@ (8001e70 <ucg_gpio_init+0x58>)
 8001e52:	f7fe fb1f 	bl	8000494 <GPIO_Init>

	GPIO_InitStructure.GPIO_Pin = SPI1_RST_PIN;
 8001e56:	2380      	movs	r3, #128	@ 0x80
 8001e58:	603b      	str	r3, [r7, #0]
	GPIO_Init(GPIOC, &GPIO_InitStructure);
 8001e5a:	463b      	mov	r3, r7
 8001e5c:	4619      	mov	r1, r3
 8001e5e:	4805      	ldr	r0, [pc, #20]	@ (8001e74 <ucg_gpio_init+0x5c>)
 8001e60:	f7fe fb18 	bl	8000494 <GPIO_Init>
}
 8001e64:	bf00      	nop
 8001e66:	3708      	adds	r7, #8
 8001e68:	46bd      	mov	sp, r7
 8001e6a:	bd80      	pop	{r7, pc}
 8001e6c:	40020000 	.word	0x40020000
 8001e70:	40020400 	.word	0x40020400
 8001e74:	40020800 	.word	0x40020800

08001e78 <ucg_com_arduino_send_generic_SW_SPI>:

static void ucg_com_arduino_send_generic_SW_SPI(ucg_t *ucg, uint8_t data)
{
 8001e78:	b580      	push	{r7, lr}
 8001e7a:	b084      	sub	sp, #16
 8001e7c:	af00      	add	r7, sp, #0
 8001e7e:	6078      	str	r0, [r7, #4]
 8001e80:	460b      	mov	r3, r1
 8001e82:	70fb      	strb	r3, [r7, #3]
  uint8_t i = 8;
 8001e84:	2308      	movs	r3, #8
 8001e86:	73fb      	strb	r3, [r7, #15]

  do
  {
    if ( data & 128 )
 8001e88:	f997 3003 	ldrsb.w	r3, [r7, #3]
 8001e8c:	2b00      	cmp	r3, #0
 8001e8e:	da05      	bge.n	8001e9c <ucg_com_arduino_send_generic_SW_SPI+0x24>
    {
      GPIO_WriteBit(SPI1_MOSI_PORT, SPI1_MOSI_PIN, 1);
 8001e90:	2201      	movs	r2, #1
 8001e92:	2180      	movs	r1, #128	@ 0x80
 8001e94:	4814      	ldr	r0, [pc, #80]	@ (8001ee8 <ucg_com_arduino_send_generic_SW_SPI+0x70>)
 8001e96:	f7fe fba6 	bl	80005e6 <GPIO_WriteBit>
 8001e9a:	e004      	b.n	8001ea6 <ucg_com_arduino_send_generic_SW_SPI+0x2e>
    }
    else
    {
      GPIO_WriteBit(SPI1_MOSI_PORT, SPI1_MOSI_PIN, 0);
 8001e9c:	2200      	movs	r2, #0
 8001e9e:	2180      	movs	r1, #128	@ 0x80
 8001ea0:	4811      	ldr	r0, [pc, #68]	@ (8001ee8 <ucg_com_arduino_send_generic_SW_SPI+0x70>)
 8001ea2:	f7fe fba0 	bl	80005e6 <GPIO_WriteBit>
    }
    // no delay required, also Arduino Due is slow enough
    // delay required for ESP32
    delayMicroseconds(1);
 8001ea6:	2001      	movs	r0, #1
 8001ea8:	f7ff ffac 	bl	8001e04 <delayMicroseconds>
    GPIO_WriteBit(SPI1_SCK_PORT, SPI1_SCK_PIN, 1);
 8001eac:	2201      	movs	r2, #1
 8001eae:	2120      	movs	r1, #32
 8001eb0:	480d      	ldr	r0, [pc, #52]	@ (8001ee8 <ucg_com_arduino_send_generic_SW_SPI+0x70>)
 8001eb2:	f7fe fb98 	bl	80005e6 <GPIO_WriteBit>
    delayMicroseconds(1);
 8001eb6:	2001      	movs	r0, #1
 8001eb8:	f7ff ffa4 	bl	8001e04 <delayMicroseconds>
    i--;
 8001ebc:	7bfb      	ldrb	r3, [r7, #15]
 8001ebe:	3b01      	subs	r3, #1
 8001ec0:	73fb      	strb	r3, [r7, #15]
    GPIO_WriteBit(SPI1_SCK_PORT, SPI1_SCK_PIN, 0);
 8001ec2:	2200      	movs	r2, #0
 8001ec4:	2120      	movs	r1, #32
 8001ec6:	4808      	ldr	r0, [pc, #32]	@ (8001ee8 <ucg_com_arduino_send_generic_SW_SPI+0x70>)
 8001ec8:	f7fe fb8d 	bl	80005e6 <GPIO_WriteBit>
    delayMicroseconds(1);
 8001ecc:	2001      	movs	r0, #1
 8001ece:	f7ff ff99 	bl	8001e04 <delayMicroseconds>
    data <<= 1;
 8001ed2:	78fb      	ldrb	r3, [r7, #3]
 8001ed4:	005b      	lsls	r3, r3, #1
 8001ed6:	70fb      	strb	r3, [r7, #3]
  } while( i > 0 );
 8001ed8:	7bfb      	ldrb	r3, [r7, #15]
 8001eda:	2b00      	cmp	r3, #0
 8001edc:	d1d4      	bne.n	8001e88 <ucg_com_arduino_send_generic_SW_SPI+0x10>
}
 8001ede:	bf00      	nop
 8001ee0:	bf00      	nop
 8001ee2:	3710      	adds	r7, #16
 8001ee4:	46bd      	mov	sp, r7
 8001ee6:	bd80      	pop	{r7, pc}
 8001ee8:	40020000 	.word	0x40020000

08001eec <ucg_com_arduino_generic_SW_SPI>:

static int16_t ucg_com_arduino_generic_SW_SPI(ucg_t *ucg, int16_t msg, uint16_t arg, uint8_t *data)
{
 8001eec:	b580      	push	{r7, lr}
 8001eee:	b084      	sub	sp, #16
 8001ef0:	af00      	add	r7, sp, #0
 8001ef2:	60f8      	str	r0, [r7, #12]
 8001ef4:	607b      	str	r3, [r7, #4]
 8001ef6:	460b      	mov	r3, r1
 8001ef8:	817b      	strh	r3, [r7, #10]
 8001efa:	4613      	mov	r3, r2
 8001efc:	813b      	strh	r3, [r7, #8]
  switch(msg)
 8001efe:	f9b7 300a 	ldrsh.w	r3, [r7, #10]
 8001f02:	3b0a      	subs	r3, #10
 8001f04:	2b0b      	cmp	r3, #11
 8001f06:	f200 80dc 	bhi.w	80020c2 <ucg_com_arduino_generic_SW_SPI+0x1d6>
 8001f0a:	a201      	add	r2, pc, #4	@ (adr r2, 8001f10 <ucg_com_arduino_generic_SW_SPI+0x24>)
 8001f0c:	f852 f023 	ldr.w	pc, [r2, r3, lsl #2]
 8001f10:	08001f41 	.word	0x08001f41
 8001f14:	080020c3 	.word	0x080020c3
 8001f18:	08001f93 	.word	0x08001f93
 8001f1c:	08001f9d 	.word	0x08001f9d
 8001f20:	08001fad 	.word	0x08001fad
 8001f24:	08001fbd 	.word	0x08001fbd
 8001f28:	08001fcf 	.word	0x08001fcf
 8001f2c:	08001fef 	.word	0x08001fef
 8001f30:	08002017 	.word	0x08002017
 8001f34:	0800204d 	.word	0x0800204d
 8001f38:	0800206b 	.word	0x0800206b
 8001f3c:	080020bb 	.word	0x080020bb
      /* "data" is a pointer to ucg_com_info_t structure with the following information: */
      /*	((ucg_com_info_t *)data)->serial_clk_speed value in nanoseconds */
      /*	((ucg_com_info_t *)data)->parallel_clk_speed value in nanoseconds */
    
      /* setup pins */
      ucg_gpio_init();
 8001f40:	f7ff ff6a 	bl	8001e18 <ucg_gpio_init>

      GPIO_WriteBit(SPI1_MOSI_PORT, SPI1_MOSI_PIN, 1);
 8001f44:	2201      	movs	r2, #1
 8001f46:	2180      	movs	r1, #128	@ 0x80
 8001f48:	4860      	ldr	r0, [pc, #384]	@ (80020cc <ucg_com_arduino_generic_SW_SPI+0x1e0>)
 8001f4a:	f7fe fb4c 	bl	80005e6 <GPIO_WriteBit>
      GPIO_WriteBit(SPI1_CS_PORT, SPI1_CS_PIN, 1);
 8001f4e:	2201      	movs	r2, #1
 8001f50:	2140      	movs	r1, #64	@ 0x40
 8001f52:	485f      	ldr	r0, [pc, #380]	@ (80020d0 <ucg_com_arduino_generic_SW_SPI+0x1e4>)
 8001f54:	f7fe fb47 	bl	80005e6 <GPIO_WriteBit>
      GPIO_WriteBit(SPI1_RST_PORT, SPI1_RST_PIN, 1);
 8001f58:	2201      	movs	r2, #1
 8001f5a:	2180      	movs	r1, #128	@ 0x80
 8001f5c:	485d      	ldr	r0, [pc, #372]	@ (80020d4 <ucg_com_arduino_generic_SW_SPI+0x1e8>)
 8001f5e:	f7fe fb42 	bl	80005e6 <GPIO_WriteBit>
      GPIO_WriteBit(SPI1_RS_PORT, SPI1_RS_PIN, 1);
 8001f62:	2201      	movs	r2, #1
 8001f64:	f44f 7100 	mov.w	r1, #512	@ 0x200
 8001f68:	4858      	ldr	r0, [pc, #352]	@ (80020cc <ucg_com_arduino_generic_SW_SPI+0x1e0>)
 8001f6a:	f7fe fb3c 	bl	80005e6 <GPIO_WriteBit>
      GPIO_WriteBit(SPI1_SCK_PORT, SPI1_SCK_PIN, 0);
 8001f6e:	2200      	movs	r2, #0
 8001f70:	2120      	movs	r1, #32
 8001f72:	4856      	ldr	r0, [pc, #344]	@ (80020cc <ucg_com_arduino_generic_SW_SPI+0x1e0>)
 8001f74:	f7fe fb37 	bl	80005e6 <GPIO_WriteBit>
      GPIO_WriteBit(SPI1_ENABLE_PORT, SPI1_ENABLE_PIN, 1);
 8001f78:	2201      	movs	r2, #1
 8001f7a:	f44f 6180 	mov.w	r1, #1024	@ 0x400
 8001f7e:	4854      	ldr	r0, [pc, #336]	@ (80020d0 <ucg_com_arduino_generic_SW_SPI+0x1e4>)
 8001f80:	f7fe fb31 	bl	80005e6 <GPIO_WriteBit>
      GPIO_WriteBit(SPI1_MODE_PORT, SPI1_MODE_PIN, 1);
 8001f84:	2201      	movs	r2, #1
 8001f86:	f44f 7180 	mov.w	r1, #256	@ 0x100
 8001f8a:	4850      	ldr	r0, [pc, #320]	@ (80020cc <ucg_com_arduino_generic_SW_SPI+0x1e0>)
 8001f8c:	f7fe fb2b 	bl	80005e6 <GPIO_WriteBit>
      break;
 8001f90:	e097      	b.n	80020c2 <ucg_com_arduino_generic_SW_SPI+0x1d6>

    case UCG_COM_MSG_POWER_DOWN:
      break;

    case UCG_COM_MSG_DELAY:
      delayMicroseconds(arg);
 8001f92:	893b      	ldrh	r3, [r7, #8]
 8001f94:	4618      	mov	r0, r3
 8001f96:	f7ff ff35 	bl	8001e04 <delayMicroseconds>
      break;
 8001f9a:	e092      	b.n	80020c2 <ucg_com_arduino_generic_SW_SPI+0x1d6>

    case UCG_COM_MSG_CHANGE_RESET_LINE:
      GPIO_WriteBit(SPI1_RST_PORT, SPI1_RST_PIN, arg);
 8001f9c:	893b      	ldrh	r3, [r7, #8]
 8001f9e:	b2db      	uxtb	r3, r3
 8001fa0:	461a      	mov	r2, r3
 8001fa2:	2180      	movs	r1, #128	@ 0x80
 8001fa4:	484b      	ldr	r0, [pc, #300]	@ (80020d4 <ucg_com_arduino_generic_SW_SPI+0x1e8>)
 8001fa6:	f7fe fb1e 	bl	80005e6 <GPIO_WriteBit>
      break;
 8001faa:	e08a      	b.n	80020c2 <ucg_com_arduino_generic_SW_SPI+0x1d6>

    case UCG_COM_MSG_CHANGE_CS_LINE:
	  GPIO_WriteBit(SPI1_CS_PORT, SPI1_CS_PIN, arg);
 8001fac:	893b      	ldrh	r3, [r7, #8]
 8001fae:	b2db      	uxtb	r3, r3
 8001fb0:	461a      	mov	r2, r3
 8001fb2:	2140      	movs	r1, #64	@ 0x40
 8001fb4:	4846      	ldr	r0, [pc, #280]	@ (80020d0 <ucg_com_arduino_generic_SW_SPI+0x1e4>)
 8001fb6:	f7fe fb16 	bl	80005e6 <GPIO_WriteBit>
      break;
 8001fba:	e082      	b.n	80020c2 <ucg_com_arduino_generic_SW_SPI+0x1d6>

    case UCG_COM_MSG_CHANGE_CD_LINE:
      GPIO_WriteBit(SPI1_RS_PORT, SPI1_RS_PIN, arg);
 8001fbc:	893b      	ldrh	r3, [r7, #8]
 8001fbe:	b2db      	uxtb	r3, r3
 8001fc0:	461a      	mov	r2, r3
 8001fc2:	f44f 7100 	mov.w	r1, #512	@ 0x200
 8001fc6:	4841      	ldr	r0, [pc, #260]	@ (80020cc <ucg_com_arduino_generic_SW_SPI+0x1e0>)
 8001fc8:	f7fe fb0d 	bl	80005e6 <GPIO_WriteBit>
      break;
 8001fcc:	e079      	b.n	80020c2 <ucg_com_arduino_generic_SW_SPI+0x1d6>

    case UCG_COM_MSG_SEND_BYTE:
      ucg_com_arduino_send_generic_SW_SPI(ucg, arg);
 8001fce:	893b      	ldrh	r3, [r7, #8]
 8001fd0:	b2db      	uxtb	r3, r3
 8001fd2:	4619      	mov	r1, r3
 8001fd4:	68f8      	ldr	r0, [r7, #12]
 8001fd6:	f7ff ff4f 	bl	8001e78 <ucg_com_arduino_send_generic_SW_SPI>
      break;
 8001fda:	e072      	b.n	80020c2 <ucg_com_arduino_generic_SW_SPI+0x1d6>

    case UCG_COM_MSG_REPEAT_1_BYTE:
      while( arg > 0 ) {
	    ucg_com_arduino_send_generic_SW_SPI(ucg, data[0]);
 8001fdc:	687b      	ldr	r3, [r7, #4]
 8001fde:	781b      	ldrb	r3, [r3, #0]
 8001fe0:	4619      	mov	r1, r3
 8001fe2:	68f8      	ldr	r0, [r7, #12]
 8001fe4:	f7ff ff48 	bl	8001e78 <ucg_com_arduino_send_generic_SW_SPI>
	    arg--;
 8001fe8:	893b      	ldrh	r3, [r7, #8]
 8001fea:	3b01      	subs	r3, #1
 8001fec:	813b      	strh	r3, [r7, #8]
      while( arg > 0 ) {
 8001fee:	893b      	ldrh	r3, [r7, #8]
 8001ff0:	2b00      	cmp	r3, #0
 8001ff2:	d1f3      	bne.n	8001fdc <ucg_com_arduino_generic_SW_SPI+0xf0>
      }
      break;
 8001ff4:	e065      	b.n	80020c2 <ucg_com_arduino_generic_SW_SPI+0x1d6>

    case UCG_COM_MSG_REPEAT_2_BYTES:
      while( arg > 0 ) {
		ucg_com_arduino_send_generic_SW_SPI(ucg, data[0]);
 8001ff6:	687b      	ldr	r3, [r7, #4]
 8001ff8:	781b      	ldrb	r3, [r3, #0]
 8001ffa:	4619      	mov	r1, r3
 8001ffc:	68f8      	ldr	r0, [r7, #12]
 8001ffe:	f7ff ff3b 	bl	8001e78 <ucg_com_arduino_send_generic_SW_SPI>
		ucg_com_arduino_send_generic_SW_SPI(ucg, data[1]);
 8002002:	687b      	ldr	r3, [r7, #4]
 8002004:	3301      	adds	r3, #1
 8002006:	781b      	ldrb	r3, [r3, #0]
 8002008:	4619      	mov	r1, r3
 800200a:	68f8      	ldr	r0, [r7, #12]
 800200c:	f7ff ff34 	bl	8001e78 <ucg_com_arduino_send_generic_SW_SPI>
		arg--;
 8002010:	893b      	ldrh	r3, [r7, #8]
 8002012:	3b01      	subs	r3, #1
 8002014:	813b      	strh	r3, [r7, #8]
      while( arg > 0 ) {
 8002016:	893b      	ldrh	r3, [r7, #8]
 8002018:	2b00      	cmp	r3, #0
 800201a:	d1ec      	bne.n	8001ff6 <ucg_com_arduino_generic_SW_SPI+0x10a>
      }
      break;
 800201c:	e051      	b.n	80020c2 <ucg_com_arduino_generic_SW_SPI+0x1d6>

    case UCG_COM_MSG_REPEAT_3_BYTES:
      while( arg > 0 ) {
		ucg_com_arduino_send_generic_SW_SPI(ucg, data[0]);
 800201e:	687b      	ldr	r3, [r7, #4]
 8002020:	781b      	ldrb	r3, [r3, #0]
 8002022:	4619      	mov	r1, r3
 8002024:	68f8      	ldr	r0, [r7, #12]
 8002026:	f7ff ff27 	bl	8001e78 <ucg_com_arduino_send_generic_SW_SPI>
		ucg_com_arduino_send_generic_SW_SPI(ucg, data[1]);
 800202a:	687b      	ldr	r3, [r7, #4]
 800202c:	3301      	adds	r3, #1
 800202e:	781b      	ldrb	r3, [r3, #0]
 8002030:	4619      	mov	r1, r3
 8002032:	68f8      	ldr	r0, [r7, #12]
 8002034:	f7ff ff20 	bl	8001e78 <ucg_com_arduino_send_generic_SW_SPI>
		ucg_com_arduino_send_generic_SW_SPI(ucg, data[2]);
 8002038:	687b      	ldr	r3, [r7, #4]
 800203a:	3302      	adds	r3, #2
 800203c:	781b      	ldrb	r3, [r3, #0]
 800203e:	4619      	mov	r1, r3
 8002040:	68f8      	ldr	r0, [r7, #12]
 8002042:	f7ff ff19 	bl	8001e78 <ucg_com_arduino_send_generic_SW_SPI>
		arg--;
 8002046:	893b      	ldrh	r3, [r7, #8]
 8002048:	3b01      	subs	r3, #1
 800204a:	813b      	strh	r3, [r7, #8]
      while( arg > 0 ) {
 800204c:	893b      	ldrh	r3, [r7, #8]
 800204e:	2b00      	cmp	r3, #0
 8002050:	d1e5      	bne.n	800201e <ucg_com_arduino_generic_SW_SPI+0x132>
      }
      break;
 8002052:	e036      	b.n	80020c2 <ucg_com_arduino_generic_SW_SPI+0x1d6>

    case UCG_COM_MSG_SEND_STR:
      while( arg > 0 ) {
		ucg_com_arduino_send_generic_SW_SPI(ucg, *data++);
 8002054:	687b      	ldr	r3, [r7, #4]
 8002056:	1c5a      	adds	r2, r3, #1
 8002058:	607a      	str	r2, [r7, #4]
 800205a:	781b      	ldrb	r3, [r3, #0]
 800205c:	4619      	mov	r1, r3
 800205e:	68f8      	ldr	r0, [r7, #12]
 8002060:	f7ff ff0a 	bl	8001e78 <ucg_com_arduino_send_generic_SW_SPI>
		arg--;
 8002064:	893b      	ldrh	r3, [r7, #8]
 8002066:	3b01      	subs	r3, #1
 8002068:	813b      	strh	r3, [r7, #8]
      while( arg > 0 ) {
 800206a:	893b      	ldrh	r3, [r7, #8]
 800206c:	2b00      	cmp	r3, #0
 800206e:	d1f1      	bne.n	8002054 <ucg_com_arduino_generic_SW_SPI+0x168>
      }
      break;
 8002070:	e027      	b.n	80020c2 <ucg_com_arduino_generic_SW_SPI+0x1d6>

    case UCG_COM_MSG_SEND_CD_DATA_SEQUENCE:
      while(arg > 0)
      {
		if ( *data != 0 )
 8002072:	687b      	ldr	r3, [r7, #4]
 8002074:	781b      	ldrb	r3, [r3, #0]
 8002076:	2b00      	cmp	r3, #0
 8002078:	d010      	beq.n	800209c <ucg_com_arduino_generic_SW_SPI+0x1b0>
		{
		  if ( *data == 1 )
 800207a:	687b      	ldr	r3, [r7, #4]
 800207c:	781b      	ldrb	r3, [r3, #0]
 800207e:	2b01      	cmp	r3, #1
 8002080:	d106      	bne.n	8002090 <ucg_com_arduino_generic_SW_SPI+0x1a4>
		  {
			GPIO_WriteBit(SPI1_RS_PORT, SPI1_RS_PIN, 0);
 8002082:	2200      	movs	r2, #0
 8002084:	f44f 7100 	mov.w	r1, #512	@ 0x200
 8002088:	4810      	ldr	r0, [pc, #64]	@ (80020cc <ucg_com_arduino_generic_SW_SPI+0x1e0>)
 800208a:	f7fe faac 	bl	80005e6 <GPIO_WriteBit>
 800208e:	e005      	b.n	800209c <ucg_com_arduino_generic_SW_SPI+0x1b0>
		  }
		  else
		  {
			GPIO_WriteBit(SPI1_RS_PORT, SPI1_RS_PIN, 1);
 8002090:	2201      	movs	r2, #1
 8002092:	f44f 7100 	mov.w	r1, #512	@ 0x200
 8002096:	480d      	ldr	r0, [pc, #52]	@ (80020cc <ucg_com_arduino_generic_SW_SPI+0x1e0>)
 8002098:	f7fe faa5 	bl	80005e6 <GPIO_WriteBit>
		  }
		}
		data++;
 800209c:	687b      	ldr	r3, [r7, #4]
 800209e:	3301      	adds	r3, #1
 80020a0:	607b      	str	r3, [r7, #4]
		ucg_com_arduino_send_generic_SW_SPI(ucg, *data);
 80020a2:	687b      	ldr	r3, [r7, #4]
 80020a4:	781b      	ldrb	r3, [r3, #0]
 80020a6:	4619      	mov	r1, r3
 80020a8:	68f8      	ldr	r0, [r7, #12]
 80020aa:	f7ff fee5 	bl	8001e78 <ucg_com_arduino_send_generic_SW_SPI>
		data++;
 80020ae:	687b      	ldr	r3, [r7, #4]
 80020b0:	3301      	adds	r3, #1
 80020b2:	607b      	str	r3, [r7, #4]
		arg--;
 80020b4:	893b      	ldrh	r3, [r7, #8]
 80020b6:	3b01      	subs	r3, #1
 80020b8:	813b      	strh	r3, [r7, #8]
      while(arg > 0)
 80020ba:	893b      	ldrh	r3, [r7, #8]
 80020bc:	2b00      	cmp	r3, #0
 80020be:	d1d8      	bne.n	8002072 <ucg_com_arduino_generic_SW_SPI+0x186>
      }
      break;
 80020c0:	bf00      	nop
  }
  return 1;
 80020c2:	2301      	movs	r3, #1
}
 80020c4:	4618      	mov	r0, r3
 80020c6:	3710      	adds	r7, #16
 80020c8:	46bd      	mov	sp, r7
 80020ca:	bd80      	pop	{r7, pc}
 80020cc:	40020000 	.word	0x40020000
 80020d0:	40020400 	.word	0x40020400
 80020d4:	40020800 	.word	0x40020800

080020d8 <Ucglib4WireSWSPI_begin>:

void Ucglib4WireSWSPI_begin(ucg_t *ucg, uint8_t is_transparent)
{ 
 80020d8:	b580      	push	{r7, lr}
 80020da:	b082      	sub	sp, #8
 80020dc:	af00      	add	r7, sp, #0
 80020de:	6078      	str	r0, [r7, #4]
 80020e0:	460b      	mov	r3, r1
 80020e2:	70fb      	strb	r3, [r7, #3]
  ucg_Init(ucg, ucg_dev_st7735_18x128x128, ucg_ext_st7735_18, ucg_com_arduino_generic_SW_SPI);
 80020e4:	4b07      	ldr	r3, [pc, #28]	@ (8002104 <Ucglib4WireSWSPI_begin+0x2c>)
 80020e6:	4a08      	ldr	r2, [pc, #32]	@ (8002108 <Ucglib4WireSWSPI_begin+0x30>)
 80020e8:	4908      	ldr	r1, [pc, #32]	@ (800210c <Ucglib4WireSWSPI_begin+0x34>)
 80020ea:	6878      	ldr	r0, [r7, #4]
 80020ec:	f001 feee 	bl	8003ecc <ucg_Init>
  ucg_SetFontMode(ucg, is_transparent);
 80020f0:	78fb      	ldrb	r3, [r7, #3]
 80020f2:	4619      	mov	r1, r3
 80020f4:	6878      	ldr	r0, [r7, #4]
 80020f6:	f001 fcd2 	bl	8003a9e <ucg_SetFontMode>
}
 80020fa:	bf00      	nop
 80020fc:	3708      	adds	r7, #8
 80020fe:	46bd      	mov	sp, r7
 8002100:	bd80      	pop	{r7, pc}
 8002102:	bf00      	nop
 8002104:	08001eed 	.word	0x08001eed
 8002108:	080031cd 	.word	0x080031cd
 800210c:	080032f5 	.word	0x080032f5

08002110 <ucg_DrawBox>:
*/

#include "ucg.h"

void ucg_DrawBox(ucg_t *ucg, ucg_int_t x, ucg_int_t y, ucg_int_t w, ucg_int_t h)
{
 8002110:	b580      	push	{r7, lr}
 8002112:	b084      	sub	sp, #16
 8002114:	af00      	add	r7, sp, #0
 8002116:	60f8      	str	r0, [r7, #12]
 8002118:	4608      	mov	r0, r1
 800211a:	4611      	mov	r1, r2
 800211c:	461a      	mov	r2, r3
 800211e:	4603      	mov	r3, r0
 8002120:	817b      	strh	r3, [r7, #10]
 8002122:	460b      	mov	r3, r1
 8002124:	813b      	strh	r3, [r7, #8]
 8002126:	4613      	mov	r3, r2
 8002128:	80fb      	strh	r3, [r7, #6]
  while( h > 0 )
 800212a:	e014      	b.n	8002156 <ucg_DrawBox+0x46>
  {
    ucg_DrawHLine(ucg, x, y, w);
 800212c:	f9b7 3006 	ldrsh.w	r3, [r7, #6]
 8002130:	f9b7 2008 	ldrsh.w	r2, [r7, #8]
 8002134:	f9b7 100a 	ldrsh.w	r1, [r7, #10]
 8002138:	68f8      	ldr	r0, [r7, #12]
 800213a:	f001 ff39 	bl	8003fb0 <ucg_DrawHLine>
    h--;
 800213e:	f9b7 3018 	ldrsh.w	r3, [r7, #24]
 8002142:	b29b      	uxth	r3, r3
 8002144:	3b01      	subs	r3, #1
 8002146:	b29b      	uxth	r3, r3
 8002148:	833b      	strh	r3, [r7, #24]
    y++;
 800214a:	f9b7 3008 	ldrsh.w	r3, [r7, #8]
 800214e:	b29b      	uxth	r3, r3
 8002150:	3301      	adds	r3, #1
 8002152:	b29b      	uxth	r3, r3
 8002154:	813b      	strh	r3, [r7, #8]
  while( h > 0 )
 8002156:	f9b7 3018 	ldrsh.w	r3, [r7, #24]
 800215a:	2b00      	cmp	r3, #0
 800215c:	dce6      	bgt.n	800212c <ucg_DrawBox+0x1c>
  }  
}
 800215e:	bf00      	nop
 8002160:	bf00      	nop
 8002162:	3710      	adds	r7, #16
 8002164:	46bd      	mov	sp, r7
 8002166:	bd80      	pop	{r7, pc}

08002168 <ucg_ClearScreen>:
  - clear the screen with black color
  - reset clip range to max
  - set draw color to white
*/
void ucg_ClearScreen(ucg_t *ucg)
{
 8002168:	b580      	push	{r7, lr}
 800216a:	b084      	sub	sp, #16
 800216c:	af02      	add	r7, sp, #8
 800216e:	6078      	str	r0, [r7, #4]
  ucg_SetColor(ucg, 0, 0, 0, 0);
 8002170:	2300      	movs	r3, #0
 8002172:	9300      	str	r3, [sp, #0]
 8002174:	2300      	movs	r3, #0
 8002176:	2200      	movs	r2, #0
 8002178:	2100      	movs	r1, #0
 800217a:	6878      	ldr	r0, [r7, #4]
 800217c:	f001 ff36 	bl	8003fec <ucg_SetColor>
  ucg_SetMaxClipRange(ucg);
 8002180:	6878      	ldr	r0, [r7, #4]
 8002182:	f001 f87e 	bl	8003282 <ucg_SetMaxClipRange>
  ucg_DrawBox(ucg, 0, 0, ucg_GetWidth(ucg), ucg_GetHeight(ucg));
 8002186:	687b      	ldr	r3, [r7, #4]
 8002188:	f9b3 2002 	ldrsh.w	r2, [r3, #2]
 800218c:	687b      	ldr	r3, [r7, #4]
 800218e:	f9b3 3004 	ldrsh.w	r3, [r3, #4]
 8002192:	9300      	str	r3, [sp, #0]
 8002194:	4613      	mov	r3, r2
 8002196:	2200      	movs	r2, #0
 8002198:	2100      	movs	r1, #0
 800219a:	6878      	ldr	r0, [r7, #4]
 800219c:	f7ff ffb8 	bl	8002110 <ucg_DrawBox>
  ucg_SetColor(ucg, 0, 255, 255, 255);
 80021a0:	23ff      	movs	r3, #255	@ 0xff
 80021a2:	9300      	str	r3, [sp, #0]
 80021a4:	23ff      	movs	r3, #255	@ 0xff
 80021a6:	22ff      	movs	r2, #255	@ 0xff
 80021a8:	2100      	movs	r1, #0
 80021aa:	6878      	ldr	r0, [r7, #4]
 80021ac:	f001 ff1e 	bl	8003fec <ucg_SetColor>
}
 80021b0:	bf00      	nop
 80021b2:	3708      	adds	r7, #8
 80021b4:	46bd      	mov	sp, r7
 80021b6:	bd80      	pop	{r7, pc}

080021b8 <ucg_ClearScreenCustom>:
  - clear the screen with black color
  - reset clip range to max
  - set draw color to white
*/
void ucg_ClearScreenCustom(ucg_t *ucg, int16_t x, int16_t y, int16_t high, int16_t width)
{
 80021b8:	b580      	push	{r7, lr}
 80021ba:	b086      	sub	sp, #24
 80021bc:	af02      	add	r7, sp, #8
 80021be:	60f8      	str	r0, [r7, #12]
 80021c0:	4608      	mov	r0, r1
 80021c2:	4611      	mov	r1, r2
 80021c4:	461a      	mov	r2, r3
 80021c6:	4603      	mov	r3, r0
 80021c8:	817b      	strh	r3, [r7, #10]
 80021ca:	460b      	mov	r3, r1
 80021cc:	813b      	strh	r3, [r7, #8]
 80021ce:	4613      	mov	r3, r2
 80021d0:	80fb      	strh	r3, [r7, #6]
  ucg_SetColor(ucg, 0, 0, 0, 0);
 80021d2:	2300      	movs	r3, #0
 80021d4:	9300      	str	r3, [sp, #0]
 80021d6:	2300      	movs	r3, #0
 80021d8:	2200      	movs	r2, #0
 80021da:	2100      	movs	r1, #0
 80021dc:	68f8      	ldr	r0, [r7, #12]
 80021de:	f001 ff05 	bl	8003fec <ucg_SetColor>
  ucg_SetMaxClipRange(ucg);
 80021e2:	68f8      	ldr	r0, [r7, #12]
 80021e4:	f001 f84d 	bl	8003282 <ucg_SetMaxClipRange>
  ucg_DrawBox(ucg, x, y,width , high);
 80021e8:	f9b7 0018 	ldrsh.w	r0, [r7, #24]
 80021ec:	f9b7 2008 	ldrsh.w	r2, [r7, #8]
 80021f0:	f9b7 100a 	ldrsh.w	r1, [r7, #10]
 80021f4:	f9b7 3006 	ldrsh.w	r3, [r7, #6]
 80021f8:	9300      	str	r3, [sp, #0]
 80021fa:	4603      	mov	r3, r0
 80021fc:	68f8      	ldr	r0, [r7, #12]
 80021fe:	f7ff ff87 	bl	8002110 <ucg_DrawBox>
  ucg_SetColor(ucg, 0, 255, 255, 255);
 8002202:	23ff      	movs	r3, #255	@ 0xff
 8002204:	9300      	str	r3, [sp, #0]
 8002206:	23ff      	movs	r3, #255	@ 0xff
 8002208:	22ff      	movs	r2, #255	@ 0xff
 800220a:	2100      	movs	r1, #0
 800220c:	68f8      	ldr	r0, [r7, #12]
 800220e:	f001 feed 	bl	8003fec <ucg_SetColor>
}
 8002212:	bf00      	nop
 8002214:	3710      	adds	r7, #16
 8002216:	46bd      	mov	sp, r7
 8002218:	bd80      	pop	{r7, pc}

0800221a <ucg_ccs_init>:
/*
  Setup change from "start" to "end" with a specified amount of "steps".
  After calling this procedure, ccs->current will contain the "start" value.
*/
void ucg_ccs_init(ucg_ccs_t *ccs, uint8_t start, uint8_t end, ucg_int_t steps)
{
 800221a:	b480      	push	{r7}
 800221c:	b083      	sub	sp, #12
 800221e:	af00      	add	r7, sp, #0
 8002220:	6078      	str	r0, [r7, #4]
 8002222:	4608      	mov	r0, r1
 8002224:	4611      	mov	r1, r2
 8002226:	461a      	mov	r2, r3
 8002228:	4603      	mov	r3, r0
 800222a:	70fb      	strb	r3, [r7, #3]
 800222c:	460b      	mov	r3, r1
 800222e:	70bb      	strb	r3, [r7, #2]
 8002230:	4613      	mov	r3, r2
 8002232:	803b      	strh	r3, [r7, #0]
  ccs->start = start;
 8002234:	687b      	ldr	r3, [r7, #4]
 8002236:	78fa      	ldrb	r2, [r7, #3]
 8002238:	705a      	strb	r2, [r3, #1]
  ccs->num = end-start;
 800223a:	78bb      	ldrb	r3, [r7, #2]
 800223c:	b29a      	uxth	r2, r3
 800223e:	78fb      	ldrb	r3, [r7, #3]
 8002240:	b29b      	uxth	r3, r3
 8002242:	1ad3      	subs	r3, r2, r3
 8002244:	b29b      	uxth	r3, r3
 8002246:	b21a      	sxth	r2, r3
 8002248:	687b      	ldr	r3, [r7, #4]
 800224a:	809a      	strh	r2, [r3, #4]
  ccs->den = steps-1;
 800224c:	883b      	ldrh	r3, [r7, #0]
 800224e:	3b01      	subs	r3, #1
 8002250:	b29b      	uxth	r3, r3
 8002252:	b21a      	sxth	r2, r3
 8002254:	687b      	ldr	r3, [r7, #4]
 8002256:	811a      	strh	r2, [r3, #8]
  ccs->dir = 1;
 8002258:	687b      	ldr	r3, [r7, #4]
 800225a:	2201      	movs	r2, #1
 800225c:	805a      	strh	r2, [r3, #2]
  
  ccs->quot = ccs->num / ccs->den;
 800225e:	687b      	ldr	r3, [r7, #4]
 8002260:	f9b3 3004 	ldrsh.w	r3, [r3, #4]
 8002264:	461a      	mov	r2, r3
 8002266:	687b      	ldr	r3, [r7, #4]
 8002268:	f9b3 3008 	ldrsh.w	r3, [r3, #8]
 800226c:	fb92 f3f3 	sdiv	r3, r2, r3
 8002270:	b21a      	sxth	r2, r3
 8002272:	687b      	ldr	r3, [r7, #4]
 8002274:	80da      	strh	r2, [r3, #6]
  if ( ccs->num < 0 )
 8002276:	687b      	ldr	r3, [r7, #4]
 8002278:	f9b3 3004 	ldrsh.w	r3, [r3, #4]
 800227c:	2b00      	cmp	r3, #0
 800227e:	da0c      	bge.n	800229a <ucg_ccs_init+0x80>
  {
    ccs->num = -ccs->num;
 8002280:	687b      	ldr	r3, [r7, #4]
 8002282:	f9b3 3004 	ldrsh.w	r3, [r3, #4]
 8002286:	b29b      	uxth	r3, r3
 8002288:	425b      	negs	r3, r3
 800228a:	b29b      	uxth	r3, r3
 800228c:	b21a      	sxth	r2, r3
 800228e:	687b      	ldr	r3, [r7, #4]
 8002290:	809a      	strh	r2, [r3, #4]
    ccs->dir = -1;
 8002292:	687b      	ldr	r3, [r7, #4]
 8002294:	f64f 72ff 	movw	r2, #65535	@ 0xffff
 8002298:	805a      	strh	r2, [r3, #2]
  }
  ccs->rem = ccs->num % ccs->den;
 800229a:	687b      	ldr	r3, [r7, #4]
 800229c:	f9b3 3004 	ldrsh.w	r3, [r3, #4]
 80022a0:	687a      	ldr	r2, [r7, #4]
 80022a2:	f9b2 2008 	ldrsh.w	r2, [r2, #8]
 80022a6:	fb93 f1f2 	sdiv	r1, r3, r2
 80022aa:	fb01 f202 	mul.w	r2, r1, r2
 80022ae:	1a9b      	subs	r3, r3, r2
 80022b0:	b21a      	sxth	r2, r3
 80022b2:	687b      	ldr	r3, [r7, #4]
 80022b4:	815a      	strh	r2, [r3, #10]
  
  ccs->frac = ccs->den/2;
 80022b6:	687b      	ldr	r3, [r7, #4]
 80022b8:	f9b3 3008 	ldrsh.w	r3, [r3, #8]
 80022bc:	0fda      	lsrs	r2, r3, #31
 80022be:	4413      	add	r3, r2
 80022c0:	105b      	asrs	r3, r3, #1
 80022c2:	b21a      	sxth	r2, r3
 80022c4:	687b      	ldr	r3, [r7, #4]
 80022c6:	819a      	strh	r2, [r3, #12]
  ccs->current = start;
 80022c8:	687b      	ldr	r3, [r7, #4]
 80022ca:	78fa      	ldrb	r2, [r7, #3]
 80022cc:	701a      	strb	r2, [r3, #0]
}
 80022ce:	bf00      	nop
 80022d0:	370c      	adds	r7, #12
 80022d2:	46bd      	mov	sp, r7
 80022d4:	f85d 7b04 	ldr.w	r7, [sp], #4
 80022d8:	4770      	bx	lr

080022da <ucg_ccs_step>:
/*
  Make one step towards the "end" value. 
  ccs->curront will contain the updated value.
*/
void ucg_ccs_step(ucg_ccs_t *ccs)
{
 80022da:	b480      	push	{r7}
 80022dc:	b083      	sub	sp, #12
 80022de:	af00      	add	r7, sp, #0
 80022e0:	6078      	str	r0, [r7, #4]
  
  ccs->current += ccs->quot;
 80022e2:	687b      	ldr	r3, [r7, #4]
 80022e4:	781a      	ldrb	r2, [r3, #0]
 80022e6:	687b      	ldr	r3, [r7, #4]
 80022e8:	f9b3 3006 	ldrsh.w	r3, [r3, #6]
 80022ec:	b2db      	uxtb	r3, r3
 80022ee:	4413      	add	r3, r2
 80022f0:	b2da      	uxtb	r2, r3
 80022f2:	687b      	ldr	r3, [r7, #4]
 80022f4:	701a      	strb	r2, [r3, #0]
  ccs->frac += ccs->rem;
 80022f6:	687b      	ldr	r3, [r7, #4]
 80022f8:	f9b3 300c 	ldrsh.w	r3, [r3, #12]
 80022fc:	b29a      	uxth	r2, r3
 80022fe:	687b      	ldr	r3, [r7, #4]
 8002300:	f9b3 300a 	ldrsh.w	r3, [r3, #10]
 8002304:	b29b      	uxth	r3, r3
 8002306:	4413      	add	r3, r2
 8002308:	b29b      	uxth	r3, r3
 800230a:	b21a      	sxth	r2, r3
 800230c:	687b      	ldr	r3, [r7, #4]
 800230e:	819a      	strh	r2, [r3, #12]
  if ( ccs->frac >= ccs->den )
 8002310:	687b      	ldr	r3, [r7, #4]
 8002312:	f9b3 200c 	ldrsh.w	r2, [r3, #12]
 8002316:	687b      	ldr	r3, [r7, #4]
 8002318:	f9b3 3008 	ldrsh.w	r3, [r3, #8]
 800231c:	429a      	cmp	r2, r3
 800231e:	db16      	blt.n	800234e <ucg_ccs_step+0x74>
  {
    ccs->current += ccs->dir;
 8002320:	687b      	ldr	r3, [r7, #4]
 8002322:	781a      	ldrb	r2, [r3, #0]
 8002324:	687b      	ldr	r3, [r7, #4]
 8002326:	f9b3 3002 	ldrsh.w	r3, [r3, #2]
 800232a:	b2db      	uxtb	r3, r3
 800232c:	4413      	add	r3, r2
 800232e:	b2da      	uxtb	r2, r3
 8002330:	687b      	ldr	r3, [r7, #4]
 8002332:	701a      	strb	r2, [r3, #0]
    ccs->frac -= ccs->den;
 8002334:	687b      	ldr	r3, [r7, #4]
 8002336:	f9b3 300c 	ldrsh.w	r3, [r3, #12]
 800233a:	b29a      	uxth	r2, r3
 800233c:	687b      	ldr	r3, [r7, #4]
 800233e:	f9b3 3008 	ldrsh.w	r3, [r3, #8]
 8002342:	b29b      	uxth	r3, r3
 8002344:	1ad3      	subs	r3, r2, r3
 8002346:	b29b      	uxth	r3, r3
 8002348:	b21a      	sxth	r2, r3
 800234a:	687b      	ldr	r3, [r7, #4]
 800234c:	819a      	strh	r2, [r3, #12]
  }  
}
 800234e:	bf00      	nop
 8002350:	370c      	adds	r7, #12
 8002352:	46bd      	mov	sp, r7
 8002354:	f85d 7b04 	ldr.w	r7, [sp], #4
 8002358:	4770      	bx	lr

0800235a <ucg_ccs_seek>:
  
  Seek to the specified "pos"ition.
  "pos" must be between 0 and "end"-1
*/
void ucg_ccs_seek(ucg_ccs_t *ccs, ucg_int_t pos)
{
 800235a:	b480      	push	{r7}
 800235c:	b085      	sub	sp, #20
 800235e:	af00      	add	r7, sp, #0
 8002360:	6078      	str	r0, [r7, #4]
 8002362:	460b      	mov	r3, r1
 8002364:	807b      	strh	r3, [r7, #2]
  ucg_int_t p;
  ccs->current = ccs->quot;
 8002366:	687b      	ldr	r3, [r7, #4]
 8002368:	f9b3 3006 	ldrsh.w	r3, [r3, #6]
 800236c:	b2da      	uxtb	r2, r3
 800236e:	687b      	ldr	r3, [r7, #4]
 8002370:	701a      	strb	r2, [r3, #0]
  ccs->current *= pos;
 8002372:	687b      	ldr	r3, [r7, #4]
 8002374:	781a      	ldrb	r2, [r3, #0]
 8002376:	887b      	ldrh	r3, [r7, #2]
 8002378:	b2db      	uxtb	r3, r3
 800237a:	fb12 f303 	smulbb	r3, r2, r3
 800237e:	b2da      	uxtb	r2, r3
 8002380:	687b      	ldr	r3, [r7, #4]
 8002382:	701a      	strb	r2, [r3, #0]
  p = ccs->rem * pos  + ccs->den/2;
 8002384:	687b      	ldr	r3, [r7, #4]
 8002386:	f9b3 300a 	ldrsh.w	r3, [r3, #10]
 800238a:	b29a      	uxth	r2, r3
 800238c:	887b      	ldrh	r3, [r7, #2]
 800238e:	fb12 f303 	smulbb	r3, r2, r3
 8002392:	b29a      	uxth	r2, r3
 8002394:	687b      	ldr	r3, [r7, #4]
 8002396:	f9b3 3008 	ldrsh.w	r3, [r3, #8]
 800239a:	0fd9      	lsrs	r1, r3, #31
 800239c:	440b      	add	r3, r1
 800239e:	105b      	asrs	r3, r3, #1
 80023a0:	b21b      	sxth	r3, r3
 80023a2:	b29b      	uxth	r3, r3
 80023a4:	4413      	add	r3, r2
 80023a6:	b29b      	uxth	r3, r3
 80023a8:	81fb      	strh	r3, [r7, #14]
  if ( ccs->dir >= 0 )
 80023aa:	687b      	ldr	r3, [r7, #4]
 80023ac:	f9b3 3002 	ldrsh.w	r3, [r3, #2]
 80023b0:	2b00      	cmp	r3, #0
 80023b2:	db0e      	blt.n	80023d2 <ucg_ccs_seek+0x78>
    ccs->current += p / ccs->den;
 80023b4:	687b      	ldr	r3, [r7, #4]
 80023b6:	781a      	ldrb	r2, [r3, #0]
 80023b8:	f9b7 300e 	ldrsh.w	r3, [r7, #14]
 80023bc:	6879      	ldr	r1, [r7, #4]
 80023be:	f9b1 1008 	ldrsh.w	r1, [r1, #8]
 80023c2:	fb93 f3f1 	sdiv	r3, r3, r1
 80023c6:	b2db      	uxtb	r3, r3
 80023c8:	4413      	add	r3, r2
 80023ca:	b2da      	uxtb	r2, r3
 80023cc:	687b      	ldr	r3, [r7, #4]
 80023ce:	701a      	strb	r2, [r3, #0]
 80023d0:	e00d      	b.n	80023ee <ucg_ccs_seek+0x94>
  else
    ccs->current -= p / ccs->den;
 80023d2:	687b      	ldr	r3, [r7, #4]
 80023d4:	781a      	ldrb	r2, [r3, #0]
 80023d6:	f9b7 300e 	ldrsh.w	r3, [r7, #14]
 80023da:	6879      	ldr	r1, [r7, #4]
 80023dc:	f9b1 1008 	ldrsh.w	r1, [r1, #8]
 80023e0:	fb93 f3f1 	sdiv	r3, r3, r1
 80023e4:	b2db      	uxtb	r3, r3
 80023e6:	1ad3      	subs	r3, r2, r3
 80023e8:	b2da      	uxtb	r2, r3
 80023ea:	687b      	ldr	r3, [r7, #4]
 80023ec:	701a      	strb	r2, [r3, #0]
  ccs->frac = p % ccs->den;
 80023ee:	f9b7 300e 	ldrsh.w	r3, [r7, #14]
 80023f2:	687a      	ldr	r2, [r7, #4]
 80023f4:	f9b2 2008 	ldrsh.w	r2, [r2, #8]
 80023f8:	fb93 f1f2 	sdiv	r1, r3, r2
 80023fc:	fb01 f202 	mul.w	r2, r1, r2
 8002400:	1a9b      	subs	r3, r3, r2
 8002402:	b21a      	sxth	r2, r3
 8002404:	687b      	ldr	r3, [r7, #4]
 8002406:	819a      	strh	r2, [r3, #12]
  ccs->current += ccs->start;
 8002408:	687b      	ldr	r3, [r7, #4]
 800240a:	781a      	ldrb	r2, [r3, #0]
 800240c:	687b      	ldr	r3, [r7, #4]
 800240e:	785b      	ldrb	r3, [r3, #1]
 8002410:	4413      	add	r3, r2
 8002412:	b2da      	uxtb	r2, r3
 8002414:	687b      	ldr	r3, [r7, #4]
 8002416:	701a      	strb	r2, [r3, #0]
}
 8002418:	bf00      	nop
 800241a:	3714      	adds	r7, #20
 800241c:	46bd      	mov	sp, r7
 800241e:	f85d 7b04 	ldr.w	r7, [sp], #4
 8002422:	4770      	bx	lr

08002424 <ucg_clip_is_x_visible>:

static ucg_int_t ucg_clip_is_x_visible(ucg_t *ucg) UCG_NOINLINE;
static ucg_int_t ucg_clip_is_y_visible(ucg_t *ucg) UCG_NOINLINE;

static ucg_int_t ucg_clip_is_x_visible(ucg_t *ucg)
{
 8002424:	b480      	push	{r7}
 8002426:	b085      	sub	sp, #20
 8002428:	af00      	add	r7, sp, #0
 800242a:	6078      	str	r0, [r7, #4]
  ucg_int_t t;
  t = ucg->arg.pixel.pos.x;
 800242c:	687b      	ldr	r3, [r7, #4]
 800242e:	8c9b      	ldrh	r3, [r3, #36]	@ 0x24
 8002430:	81fb      	strh	r3, [r7, #14]
  t -= ucg->clip_box.ul.x;
 8002432:	89fa      	ldrh	r2, [r7, #14]
 8002434:	687b      	ldr	r3, [r7, #4]
 8002436:	f9b3 3070 	ldrsh.w	r3, [r3, #112]	@ 0x70
 800243a:	b29b      	uxth	r3, r3
 800243c:	1ad3      	subs	r3, r2, r3
 800243e:	b29b      	uxth	r3, r3
 8002440:	81fb      	strh	r3, [r7, #14]
  if ( t < 0 )
 8002442:	f9b7 300e 	ldrsh.w	r3, [r7, #14]
 8002446:	2b00      	cmp	r3, #0
 8002448:	da01      	bge.n	800244e <ucg_clip_is_x_visible+0x2a>
    return 0;
 800244a:	2300      	movs	r3, #0
 800244c:	e009      	b.n	8002462 <ucg_clip_is_x_visible+0x3e>
  if ( t >= ucg->clip_box.size.w )
 800244e:	687b      	ldr	r3, [r7, #4]
 8002450:	f9b3 3074 	ldrsh.w	r3, [r3, #116]	@ 0x74
 8002454:	f9b7 200e 	ldrsh.w	r2, [r7, #14]
 8002458:	429a      	cmp	r2, r3
 800245a:	db01      	blt.n	8002460 <ucg_clip_is_x_visible+0x3c>
    return 0;
 800245c:	2300      	movs	r3, #0
 800245e:	e000      	b.n	8002462 <ucg_clip_is_x_visible+0x3e>
  
  return 1;
 8002460:	2301      	movs	r3, #1
}
 8002462:	4618      	mov	r0, r3
 8002464:	3714      	adds	r7, #20
 8002466:	46bd      	mov	sp, r7
 8002468:	f85d 7b04 	ldr.w	r7, [sp], #4
 800246c:	4770      	bx	lr

0800246e <ucg_clip_is_y_visible>:

static ucg_int_t ucg_clip_is_y_visible(ucg_t *ucg)
{
 800246e:	b480      	push	{r7}
 8002470:	b085      	sub	sp, #20
 8002472:	af00      	add	r7, sp, #0
 8002474:	6078      	str	r0, [r7, #4]
  ucg_int_t t;
  t = ucg->arg.pixel.pos.y;
 8002476:	687b      	ldr	r3, [r7, #4]
 8002478:	8cdb      	ldrh	r3, [r3, #38]	@ 0x26
 800247a:	81fb      	strh	r3, [r7, #14]
  t -= ucg->clip_box.ul.y;
 800247c:	89fa      	ldrh	r2, [r7, #14]
 800247e:	687b      	ldr	r3, [r7, #4]
 8002480:	f9b3 3072 	ldrsh.w	r3, [r3, #114]	@ 0x72
 8002484:	b29b      	uxth	r3, r3
 8002486:	1ad3      	subs	r3, r2, r3
 8002488:	b29b      	uxth	r3, r3
 800248a:	81fb      	strh	r3, [r7, #14]
  if ( t < 0 )
 800248c:	f9b7 300e 	ldrsh.w	r3, [r7, #14]
 8002490:	2b00      	cmp	r3, #0
 8002492:	da01      	bge.n	8002498 <ucg_clip_is_y_visible+0x2a>
    return 0;
 8002494:	2300      	movs	r3, #0
 8002496:	e009      	b.n	80024ac <ucg_clip_is_y_visible+0x3e>
  if ( t >= ucg->clip_box.size.h )
 8002498:	687b      	ldr	r3, [r7, #4]
 800249a:	f9b3 3076 	ldrsh.w	r3, [r3, #118]	@ 0x76
 800249e:	f9b7 200e 	ldrsh.w	r2, [r7, #14]
 80024a2:	429a      	cmp	r2, r3
 80024a4:	db01      	blt.n	80024aa <ucg_clip_is_y_visible+0x3c>
    return 0;
 80024a6:	2300      	movs	r3, #0
 80024a8:	e000      	b.n	80024ac <ucg_clip_is_y_visible+0x3e>
  
  return 1;
 80024aa:	2301      	movs	r3, #1
}
 80024ac:	4618      	mov	r0, r3
 80024ae:	3714      	adds	r7, #20
 80024b0:	46bd      	mov	sp, r7
 80024b2:	f85d 7b04 	ldr.w	r7, [sp], #4
 80024b6:	4770      	bx	lr

080024b8 <ucg_clip_intersection>:
  Assumptions:
    a <= b
    c <= d
*/
static ucg_int_t ucg_clip_intersection(ucg_int_t *ap, ucg_int_t *bp, ucg_int_t c, ucg_int_t d)
{
 80024b8:	b480      	push	{r7}
 80024ba:	b087      	sub	sp, #28
 80024bc:	af00      	add	r7, sp, #0
 80024be:	60f8      	str	r0, [r7, #12]
 80024c0:	60b9      	str	r1, [r7, #8]
 80024c2:	4611      	mov	r1, r2
 80024c4:	461a      	mov	r2, r3
 80024c6:	460b      	mov	r3, r1
 80024c8:	80fb      	strh	r3, [r7, #6]
 80024ca:	4613      	mov	r3, r2
 80024cc:	80bb      	strh	r3, [r7, #4]
  ucg_int_t a = *ap;
 80024ce:	68fb      	ldr	r3, [r7, #12]
 80024d0:	881b      	ldrh	r3, [r3, #0]
 80024d2:	82fb      	strh	r3, [r7, #22]
  ucg_int_t b = *bp;
 80024d4:	68bb      	ldr	r3, [r7, #8]
 80024d6:	881b      	ldrh	r3, [r3, #0]
 80024d8:	82bb      	strh	r3, [r7, #20]
  
  if ( a >= d )
 80024da:	f9b7 2016 	ldrsh.w	r2, [r7, #22]
 80024de:	f9b7 3004 	ldrsh.w	r3, [r7, #4]
 80024e2:	429a      	cmp	r2, r3
 80024e4:	db01      	blt.n	80024ea <ucg_clip_intersection+0x32>
    return 0;
 80024e6:	2300      	movs	r3, #0
 80024e8:	e01a      	b.n	8002520 <ucg_clip_intersection+0x68>
  if ( b <= c )
 80024ea:	f9b7 2014 	ldrsh.w	r2, [r7, #20]
 80024ee:	f9b7 3006 	ldrsh.w	r3, [r7, #6]
 80024f2:	429a      	cmp	r2, r3
 80024f4:	dc01      	bgt.n	80024fa <ucg_clip_intersection+0x42>
    return 0;
 80024f6:	2300      	movs	r3, #0
 80024f8:	e012      	b.n	8002520 <ucg_clip_intersection+0x68>
  if ( a < c )
 80024fa:	f9b7 2016 	ldrsh.w	r2, [r7, #22]
 80024fe:	f9b7 3006 	ldrsh.w	r3, [r7, #6]
 8002502:	429a      	cmp	r2, r3
 8002504:	da02      	bge.n	800250c <ucg_clip_intersection+0x54>
    *ap = c;
 8002506:	68fb      	ldr	r3, [r7, #12]
 8002508:	88fa      	ldrh	r2, [r7, #6]
 800250a:	801a      	strh	r2, [r3, #0]
  if ( b > d )
 800250c:	f9b7 2014 	ldrsh.w	r2, [r7, #20]
 8002510:	f9b7 3004 	ldrsh.w	r3, [r7, #4]
 8002514:	429a      	cmp	r2, r3
 8002516:	dd02      	ble.n	800251e <ucg_clip_intersection+0x66>
    *bp = d;
 8002518:	68bb      	ldr	r3, [r7, #8]
 800251a:	88ba      	ldrh	r2, [r7, #4]
 800251c:	801a      	strh	r2, [r3, #0]
  return 1;
 800251e:	2301      	movs	r3, #1
}
 8002520:	4618      	mov	r0, r3
 8002522:	371c      	adds	r7, #28
 8002524:	46bd      	mov	sp, r7
 8002526:	f85d 7b04 	ldr.w	r7, [sp], #4
 800252a:	4770      	bx	lr

0800252c <ucg_clip_is_pixel_visible>:

ucg_int_t ucg_clip_is_pixel_visible(ucg_t *ucg)
{
 800252c:	b580      	push	{r7, lr}
 800252e:	b082      	sub	sp, #8
 8002530:	af00      	add	r7, sp, #0
 8002532:	6078      	str	r0, [r7, #4]
  if ( ucg_clip_is_x_visible(ucg) == 0 )
 8002534:	6878      	ldr	r0, [r7, #4]
 8002536:	f7ff ff75 	bl	8002424 <ucg_clip_is_x_visible>
 800253a:	4603      	mov	r3, r0
 800253c:	2b00      	cmp	r3, #0
 800253e:	d101      	bne.n	8002544 <ucg_clip_is_pixel_visible+0x18>
    return 0;
 8002540:	2300      	movs	r3, #0
 8002542:	e008      	b.n	8002556 <ucg_clip_is_pixel_visible+0x2a>
  if ( ucg_clip_is_y_visible(ucg) == 0 )
 8002544:	6878      	ldr	r0, [r7, #4]
 8002546:	f7ff ff92 	bl	800246e <ucg_clip_is_y_visible>
 800254a:	4603      	mov	r3, r0
 800254c:	2b00      	cmp	r3, #0
 800254e:	d101      	bne.n	8002554 <ucg_clip_is_pixel_visible+0x28>
    return 0;
 8002550:	2300      	movs	r3, #0
 8002552:	e000      	b.n	8002556 <ucg_clip_is_pixel_visible+0x2a>
  return 1;
 8002554:	2301      	movs	r3, #1
}
 8002556:	4618      	mov	r0, r3
 8002558:	3708      	adds	r7, #8
 800255a:	46bd      	mov	sp, r7
 800255c:	bd80      	pop	{r7, pc}
	...

08002560 <ucg_clip_l90fx>:
/*
  assumes, that ucg->arg contains data for l90fx and does clipping 
  against ucg->clip_box
*/
ucg_int_t ucg_clip_l90fx(ucg_t *ucg)
{
 8002560:	b590      	push	{r4, r7, lr}
 8002562:	b085      	sub	sp, #20
 8002564:	af00      	add	r7, sp, #0
 8002566:	6078      	str	r0, [r7, #4]
  ucg_int_t a;
  ucg_int_t b;
  ucg->arg.offset = 0;
 8002568:	687b      	ldr	r3, [r7, #4]
 800256a:	2200      	movs	r2, #0
 800256c:	861a      	strh	r2, [r3, #48]	@ 0x30
  switch(ucg->arg.dir)
 800256e:	687b      	ldr	r3, [r7, #4]
 8002570:	f9b3 302e 	ldrsh.w	r3, [r3, #46]	@ 0x2e
 8002574:	2b03      	cmp	r3, #3
 8002576:	f200 816d 	bhi.w	8002854 <ucg_clip_l90fx+0x2f4>
 800257a:	a201      	add	r2, pc, #4	@ (adr r2, 8002580 <ucg_clip_l90fx+0x20>)
 800257c:	f852 f023 	ldr.w	pc, [r2, r3, lsl #2]
 8002580:	08002591 	.word	0x08002591
 8002584:	08002637 	.word	0x08002637
 8002588:	080026dd 	.word	0x080026dd
 800258c:	08002799 	.word	0x08002799
  {
    case 0:
      if ( ucg_clip_is_y_visible(ucg) == 0 )
 8002590:	6878      	ldr	r0, [r7, #4]
 8002592:	f7ff ff6c 	bl	800246e <ucg_clip_is_y_visible>
 8002596:	4603      	mov	r3, r0
 8002598:	2b00      	cmp	r3, #0
 800259a:	d101      	bne.n	80025a0 <ucg_clip_l90fx+0x40>
	return 0; 
 800259c:	2300      	movs	r3, #0
 800259e:	e15a      	b.n	8002856 <ucg_clip_l90fx+0x2f6>
      a = ucg->arg.pixel.pos.x;
 80025a0:	687b      	ldr	r3, [r7, #4]
 80025a2:	f9b3 3024 	ldrsh.w	r3, [r3, #36]	@ 0x24
 80025a6:	81fb      	strh	r3, [r7, #14]
      b = a;
 80025a8:	f9b7 300e 	ldrsh.w	r3, [r7, #14]
 80025ac:	81bb      	strh	r3, [r7, #12]
      b += ucg->arg.len;
 80025ae:	687b      	ldr	r3, [r7, #4]
 80025b0:	f9b3 302c 	ldrsh.w	r3, [r3, #44]	@ 0x2c
 80025b4:	b29a      	uxth	r2, r3
 80025b6:	f9b7 300c 	ldrsh.w	r3, [r7, #12]
 80025ba:	b29b      	uxth	r3, r3
 80025bc:	4413      	add	r3, r2
 80025be:	b29b      	uxth	r3, r3
 80025c0:	b21b      	sxth	r3, r3
 80025c2:	81bb      	strh	r3, [r7, #12]
      
      if ( ucg_clip_intersection(&a, &b, ucg->clip_box.ul.x, ucg->clip_box.ul.x+ucg->clip_box.size.w) == 0 )
 80025c4:	687b      	ldr	r3, [r7, #4]
 80025c6:	f9b3 4070 	ldrsh.w	r4, [r3, #112]	@ 0x70
 80025ca:	687b      	ldr	r3, [r7, #4]
 80025cc:	f9b3 3070 	ldrsh.w	r3, [r3, #112]	@ 0x70
 80025d0:	b29a      	uxth	r2, r3
 80025d2:	687b      	ldr	r3, [r7, #4]
 80025d4:	f9b3 3074 	ldrsh.w	r3, [r3, #116]	@ 0x74
 80025d8:	b29b      	uxth	r3, r3
 80025da:	4413      	add	r3, r2
 80025dc:	b29b      	uxth	r3, r3
 80025de:	b21b      	sxth	r3, r3
 80025e0:	f107 010c 	add.w	r1, r7, #12
 80025e4:	f107 000e 	add.w	r0, r7, #14
 80025e8:	4622      	mov	r2, r4
 80025ea:	f7ff ff65 	bl	80024b8 <ucg_clip_intersection>
 80025ee:	4603      	mov	r3, r0
 80025f0:	2b00      	cmp	r3, #0
 80025f2:	d101      	bne.n	80025f8 <ucg_clip_l90fx+0x98>
	return 0;
 80025f4:	2300      	movs	r3, #0
 80025f6:	e12e      	b.n	8002856 <ucg_clip_l90fx+0x2f6>
      
      ucg->arg.offset = a - ucg->arg.pixel.pos.x;
 80025f8:	f9b7 300e 	ldrsh.w	r3, [r7, #14]
 80025fc:	b29a      	uxth	r2, r3
 80025fe:	687b      	ldr	r3, [r7, #4]
 8002600:	f9b3 3024 	ldrsh.w	r3, [r3, #36]	@ 0x24
 8002604:	b29b      	uxth	r3, r3
 8002606:	1ad3      	subs	r3, r2, r3
 8002608:	b29b      	uxth	r3, r3
 800260a:	b21a      	sxth	r2, r3
 800260c:	687b      	ldr	r3, [r7, #4]
 800260e:	861a      	strh	r2, [r3, #48]	@ 0x30
      ucg->arg.pixel.pos.x = a;
 8002610:	f9b7 200e 	ldrsh.w	r2, [r7, #14]
 8002614:	687b      	ldr	r3, [r7, #4]
 8002616:	849a      	strh	r2, [r3, #36]	@ 0x24
      b -= a;
 8002618:	f9b7 300c 	ldrsh.w	r3, [r7, #12]
 800261c:	b29a      	uxth	r2, r3
 800261e:	f9b7 300e 	ldrsh.w	r3, [r7, #14]
 8002622:	b29b      	uxth	r3, r3
 8002624:	1ad3      	subs	r3, r2, r3
 8002626:	b29b      	uxth	r3, r3
 8002628:	b21b      	sxth	r3, r3
 800262a:	81bb      	strh	r3, [r7, #12]
      ucg->arg.len = b;
 800262c:	f9b7 200c 	ldrsh.w	r2, [r7, #12]
 8002630:	687b      	ldr	r3, [r7, #4]
 8002632:	859a      	strh	r2, [r3, #44]	@ 0x2c
      
      break;
 8002634:	e10e      	b.n	8002854 <ucg_clip_l90fx+0x2f4>
    case 1:
      if ( ucg_clip_is_x_visible(ucg) == 0 )
 8002636:	6878      	ldr	r0, [r7, #4]
 8002638:	f7ff fef4 	bl	8002424 <ucg_clip_is_x_visible>
 800263c:	4603      	mov	r3, r0
 800263e:	2b00      	cmp	r3, #0
 8002640:	d101      	bne.n	8002646 <ucg_clip_l90fx+0xe6>
	return 0;
 8002642:	2300      	movs	r3, #0
 8002644:	e107      	b.n	8002856 <ucg_clip_l90fx+0x2f6>
      
      a = ucg->arg.pixel.pos.y;
 8002646:	687b      	ldr	r3, [r7, #4]
 8002648:	f9b3 3026 	ldrsh.w	r3, [r3, #38]	@ 0x26
 800264c:	81fb      	strh	r3, [r7, #14]
      b = a;
 800264e:	f9b7 300e 	ldrsh.w	r3, [r7, #14]
 8002652:	81bb      	strh	r3, [r7, #12]
      b += ucg->arg.len;
 8002654:	687b      	ldr	r3, [r7, #4]
 8002656:	f9b3 302c 	ldrsh.w	r3, [r3, #44]	@ 0x2c
 800265a:	b29a      	uxth	r2, r3
 800265c:	f9b7 300c 	ldrsh.w	r3, [r7, #12]
 8002660:	b29b      	uxth	r3, r3
 8002662:	4413      	add	r3, r2
 8002664:	b29b      	uxth	r3, r3
 8002666:	b21b      	sxth	r3, r3
 8002668:	81bb      	strh	r3, [r7, #12]
      
      if ( ucg_clip_intersection(&a, &b, ucg->clip_box.ul.y, ucg->clip_box.ul.y+ucg->clip_box.size.h) == 0 )
 800266a:	687b      	ldr	r3, [r7, #4]
 800266c:	f9b3 4072 	ldrsh.w	r4, [r3, #114]	@ 0x72
 8002670:	687b      	ldr	r3, [r7, #4]
 8002672:	f9b3 3072 	ldrsh.w	r3, [r3, #114]	@ 0x72
 8002676:	b29a      	uxth	r2, r3
 8002678:	687b      	ldr	r3, [r7, #4]
 800267a:	f9b3 3076 	ldrsh.w	r3, [r3, #118]	@ 0x76
 800267e:	b29b      	uxth	r3, r3
 8002680:	4413      	add	r3, r2
 8002682:	b29b      	uxth	r3, r3
 8002684:	b21b      	sxth	r3, r3
 8002686:	f107 010c 	add.w	r1, r7, #12
 800268a:	f107 000e 	add.w	r0, r7, #14
 800268e:	4622      	mov	r2, r4
 8002690:	f7ff ff12 	bl	80024b8 <ucg_clip_intersection>
 8002694:	4603      	mov	r3, r0
 8002696:	2b00      	cmp	r3, #0
 8002698:	d101      	bne.n	800269e <ucg_clip_l90fx+0x13e>
	return 0;
 800269a:	2300      	movs	r3, #0
 800269c:	e0db      	b.n	8002856 <ucg_clip_l90fx+0x2f6>

      ucg->arg.offset = a - ucg->arg.pixel.pos.y;
 800269e:	f9b7 300e 	ldrsh.w	r3, [r7, #14]
 80026a2:	b29a      	uxth	r2, r3
 80026a4:	687b      	ldr	r3, [r7, #4]
 80026a6:	f9b3 3026 	ldrsh.w	r3, [r3, #38]	@ 0x26
 80026aa:	b29b      	uxth	r3, r3
 80026ac:	1ad3      	subs	r3, r2, r3
 80026ae:	b29b      	uxth	r3, r3
 80026b0:	b21a      	sxth	r2, r3
 80026b2:	687b      	ldr	r3, [r7, #4]
 80026b4:	861a      	strh	r2, [r3, #48]	@ 0x30
      ucg->arg.pixel.pos.y = a;
 80026b6:	f9b7 200e 	ldrsh.w	r2, [r7, #14]
 80026ba:	687b      	ldr	r3, [r7, #4]
 80026bc:	84da      	strh	r2, [r3, #38]	@ 0x26
      b -= a;
 80026be:	f9b7 300c 	ldrsh.w	r3, [r7, #12]
 80026c2:	b29a      	uxth	r2, r3
 80026c4:	f9b7 300e 	ldrsh.w	r3, [r7, #14]
 80026c8:	b29b      	uxth	r3, r3
 80026ca:	1ad3      	subs	r3, r2, r3
 80026cc:	b29b      	uxth	r3, r3
 80026ce:	b21b      	sxth	r3, r3
 80026d0:	81bb      	strh	r3, [r7, #12]
      ucg->arg.len = b;
 80026d2:	f9b7 200c 	ldrsh.w	r2, [r7, #12]
 80026d6:	687b      	ldr	r3, [r7, #4]
 80026d8:	859a      	strh	r2, [r3, #44]	@ 0x2c
      
      break;
 80026da:	e0bb      	b.n	8002854 <ucg_clip_l90fx+0x2f4>
    case 2:
      if ( ucg_clip_is_y_visible(ucg) == 0 )
 80026dc:	6878      	ldr	r0, [r7, #4]
 80026de:	f7ff fec6 	bl	800246e <ucg_clip_is_y_visible>
 80026e2:	4603      	mov	r3, r0
 80026e4:	2b00      	cmp	r3, #0
 80026e6:	d101      	bne.n	80026ec <ucg_clip_l90fx+0x18c>
	return 0;
 80026e8:	2300      	movs	r3, #0
 80026ea:	e0b4      	b.n	8002856 <ucg_clip_l90fx+0x2f6>
      
      b = ucg->arg.pixel.pos.x;
 80026ec:	687b      	ldr	r3, [r7, #4]
 80026ee:	f9b3 3024 	ldrsh.w	r3, [r3, #36]	@ 0x24
 80026f2:	81bb      	strh	r3, [r7, #12]
      b++;
 80026f4:	f9b7 300c 	ldrsh.w	r3, [r7, #12]
 80026f8:	b29b      	uxth	r3, r3
 80026fa:	3301      	adds	r3, #1
 80026fc:	b29b      	uxth	r3, r3
 80026fe:	b21b      	sxth	r3, r3
 8002700:	81bb      	strh	r3, [r7, #12]
      
      a = b;
 8002702:	f9b7 300c 	ldrsh.w	r3, [r7, #12]
 8002706:	81fb      	strh	r3, [r7, #14]
      a -= ucg->arg.len;
 8002708:	f9b7 300e 	ldrsh.w	r3, [r7, #14]
 800270c:	b29a      	uxth	r2, r3
 800270e:	687b      	ldr	r3, [r7, #4]
 8002710:	f9b3 302c 	ldrsh.w	r3, [r3, #44]	@ 0x2c
 8002714:	b29b      	uxth	r3, r3
 8002716:	1ad3      	subs	r3, r2, r3
 8002718:	b29b      	uxth	r3, r3
 800271a:	b21b      	sxth	r3, r3
 800271c:	81fb      	strh	r3, [r7, #14]
      
      
      if ( ucg_clip_intersection(&a, &b, ucg->clip_box.ul.x, ucg->clip_box.ul.x+ucg->clip_box.size.w) == 0 )
 800271e:	687b      	ldr	r3, [r7, #4]
 8002720:	f9b3 4070 	ldrsh.w	r4, [r3, #112]	@ 0x70
 8002724:	687b      	ldr	r3, [r7, #4]
 8002726:	f9b3 3070 	ldrsh.w	r3, [r3, #112]	@ 0x70
 800272a:	b29a      	uxth	r2, r3
 800272c:	687b      	ldr	r3, [r7, #4]
 800272e:	f9b3 3074 	ldrsh.w	r3, [r3, #116]	@ 0x74
 8002732:	b29b      	uxth	r3, r3
 8002734:	4413      	add	r3, r2
 8002736:	b29b      	uxth	r3, r3
 8002738:	b21b      	sxth	r3, r3
 800273a:	f107 010c 	add.w	r1, r7, #12
 800273e:	f107 000e 	add.w	r0, r7, #14
 8002742:	4622      	mov	r2, r4
 8002744:	f7ff feb8 	bl	80024b8 <ucg_clip_intersection>
 8002748:	4603      	mov	r3, r0
 800274a:	2b00      	cmp	r3, #0
 800274c:	d101      	bne.n	8002752 <ucg_clip_l90fx+0x1f2>
	return 0;
 800274e:	2300      	movs	r3, #0
 8002750:	e081      	b.n	8002856 <ucg_clip_l90fx+0x2f6>
      
      ucg->arg.len = b-a;
 8002752:	f9b7 300c 	ldrsh.w	r3, [r7, #12]
 8002756:	b29a      	uxth	r2, r3
 8002758:	f9b7 300e 	ldrsh.w	r3, [r7, #14]
 800275c:	b29b      	uxth	r3, r3
 800275e:	1ad3      	subs	r3, r2, r3
 8002760:	b29b      	uxth	r3, r3
 8002762:	b21a      	sxth	r2, r3
 8002764:	687b      	ldr	r3, [r7, #4]
 8002766:	859a      	strh	r2, [r3, #44]	@ 0x2c
      
      b--;
 8002768:	f9b7 300c 	ldrsh.w	r3, [r7, #12]
 800276c:	b29b      	uxth	r3, r3
 800276e:	3b01      	subs	r3, #1
 8002770:	b29b      	uxth	r3, r3
 8002772:	b21b      	sxth	r3, r3
 8002774:	81bb      	strh	r3, [r7, #12]
      ucg->arg.offset = ucg->arg.pixel.pos.x-b;
 8002776:	687b      	ldr	r3, [r7, #4]
 8002778:	f9b3 3024 	ldrsh.w	r3, [r3, #36]	@ 0x24
 800277c:	b29a      	uxth	r2, r3
 800277e:	f9b7 300c 	ldrsh.w	r3, [r7, #12]
 8002782:	b29b      	uxth	r3, r3
 8002784:	1ad3      	subs	r3, r2, r3
 8002786:	b29b      	uxth	r3, r3
 8002788:	b21a      	sxth	r2, r3
 800278a:	687b      	ldr	r3, [r7, #4]
 800278c:	861a      	strh	r2, [r3, #48]	@ 0x30
      ucg->arg.pixel.pos.x = b;
 800278e:	f9b7 200c 	ldrsh.w	r2, [r7, #12]
 8002792:	687b      	ldr	r3, [r7, #4]
 8002794:	849a      	strh	r2, [r3, #36]	@ 0x24
      
      break;
 8002796:	e05d      	b.n	8002854 <ucg_clip_l90fx+0x2f4>
    case 3:
      if ( ucg_clip_is_x_visible(ucg) == 0 )
 8002798:	6878      	ldr	r0, [r7, #4]
 800279a:	f7ff fe43 	bl	8002424 <ucg_clip_is_x_visible>
 800279e:	4603      	mov	r3, r0
 80027a0:	2b00      	cmp	r3, #0
 80027a2:	d101      	bne.n	80027a8 <ucg_clip_l90fx+0x248>
	return 0;
 80027a4:	2300      	movs	r3, #0
 80027a6:	e056      	b.n	8002856 <ucg_clip_l90fx+0x2f6>

      b = ucg->arg.pixel.pos.y;
 80027a8:	687b      	ldr	r3, [r7, #4]
 80027aa:	f9b3 3026 	ldrsh.w	r3, [r3, #38]	@ 0x26
 80027ae:	81bb      	strh	r3, [r7, #12]
      b++;
 80027b0:	f9b7 300c 	ldrsh.w	r3, [r7, #12]
 80027b4:	b29b      	uxth	r3, r3
 80027b6:	3301      	adds	r3, #1
 80027b8:	b29b      	uxth	r3, r3
 80027ba:	b21b      	sxth	r3, r3
 80027bc:	81bb      	strh	r3, [r7, #12]
      
      a = b;
 80027be:	f9b7 300c 	ldrsh.w	r3, [r7, #12]
 80027c2:	81fb      	strh	r3, [r7, #14]
      a -= ucg->arg.len;
 80027c4:	f9b7 300e 	ldrsh.w	r3, [r7, #14]
 80027c8:	b29a      	uxth	r2, r3
 80027ca:	687b      	ldr	r3, [r7, #4]
 80027cc:	f9b3 302c 	ldrsh.w	r3, [r3, #44]	@ 0x2c
 80027d0:	b29b      	uxth	r3, r3
 80027d2:	1ad3      	subs	r3, r2, r3
 80027d4:	b29b      	uxth	r3, r3
 80027d6:	b21b      	sxth	r3, r3
 80027d8:	81fb      	strh	r3, [r7, #14]
      
      
      if ( ucg_clip_intersection(&a, &b, ucg->clip_box.ul.y, ucg->clip_box.ul.y+ucg->clip_box.size.h) == 0 )
 80027da:	687b      	ldr	r3, [r7, #4]
 80027dc:	f9b3 4072 	ldrsh.w	r4, [r3, #114]	@ 0x72
 80027e0:	687b      	ldr	r3, [r7, #4]
 80027e2:	f9b3 3072 	ldrsh.w	r3, [r3, #114]	@ 0x72
 80027e6:	b29a      	uxth	r2, r3
 80027e8:	687b      	ldr	r3, [r7, #4]
 80027ea:	f9b3 3076 	ldrsh.w	r3, [r3, #118]	@ 0x76
 80027ee:	b29b      	uxth	r3, r3
 80027f0:	4413      	add	r3, r2
 80027f2:	b29b      	uxth	r3, r3
 80027f4:	b21b      	sxth	r3, r3
 80027f6:	f107 010c 	add.w	r1, r7, #12
 80027fa:	f107 000e 	add.w	r0, r7, #14
 80027fe:	4622      	mov	r2, r4
 8002800:	f7ff fe5a 	bl	80024b8 <ucg_clip_intersection>
 8002804:	4603      	mov	r3, r0
 8002806:	2b00      	cmp	r3, #0
 8002808:	d101      	bne.n	800280e <ucg_clip_l90fx+0x2ae>
	return 0;
 800280a:	2300      	movs	r3, #0
 800280c:	e023      	b.n	8002856 <ucg_clip_l90fx+0x2f6>
      
      ucg->arg.len = b-a;
 800280e:	f9b7 300c 	ldrsh.w	r3, [r7, #12]
 8002812:	b29a      	uxth	r2, r3
 8002814:	f9b7 300e 	ldrsh.w	r3, [r7, #14]
 8002818:	b29b      	uxth	r3, r3
 800281a:	1ad3      	subs	r3, r2, r3
 800281c:	b29b      	uxth	r3, r3
 800281e:	b21a      	sxth	r2, r3
 8002820:	687b      	ldr	r3, [r7, #4]
 8002822:	859a      	strh	r2, [r3, #44]	@ 0x2c
      
      b--;
 8002824:	f9b7 300c 	ldrsh.w	r3, [r7, #12]
 8002828:	b29b      	uxth	r3, r3
 800282a:	3b01      	subs	r3, #1
 800282c:	b29b      	uxth	r3, r3
 800282e:	b21b      	sxth	r3, r3
 8002830:	81bb      	strh	r3, [r7, #12]
      ucg->arg.offset = ucg->arg.pixel.pos.y-b;
 8002832:	687b      	ldr	r3, [r7, #4]
 8002834:	f9b3 3026 	ldrsh.w	r3, [r3, #38]	@ 0x26
 8002838:	b29a      	uxth	r2, r3
 800283a:	f9b7 300c 	ldrsh.w	r3, [r7, #12]
 800283e:	b29b      	uxth	r3, r3
 8002840:	1ad3      	subs	r3, r2, r3
 8002842:	b29b      	uxth	r3, r3
 8002844:	b21a      	sxth	r2, r3
 8002846:	687b      	ldr	r3, [r7, #4]
 8002848:	861a      	strh	r2, [r3, #48]	@ 0x30
      ucg->arg.pixel.pos.y = b;
 800284a:	f9b7 200c 	ldrsh.w	r2, [r7, #12]
 800284e:	687b      	ldr	r3, [r7, #4]
 8002850:	84da      	strh	r2, [r3, #38]	@ 0x26
      
      
      break;
 8002852:	bf00      	nop
  }

  return 1;
 8002854:	2301      	movs	r3, #1
}
 8002856:	4618      	mov	r0, r3
 8002858:	3714      	adds	r7, #20
 800285a:	46bd      	mov	sp, r7
 800285c:	bd90      	pop	{r4, r7, pc}
 800285e:	bf00      	nop

08002860 <ucg_clip_l90se>:
  return 1;
}
*/

ucg_int_t ucg_clip_l90se(ucg_t *ucg)
{
 8002860:	b580      	push	{r7, lr}
 8002862:	b084      	sub	sp, #16
 8002864:	af00      	add	r7, sp, #0
 8002866:	6078      	str	r0, [r7, #4]
  uint8_t i;
  if ( ucg_clip_l90fx(ucg) == 0 )
 8002868:	6878      	ldr	r0, [r7, #4]
 800286a:	f7ff fe79 	bl	8002560 <ucg_clip_l90fx>
 800286e:	4603      	mov	r3, r0
 8002870:	2b00      	cmp	r3, #0
 8002872:	d101      	bne.n	8002878 <ucg_clip_l90se+0x18>
      return 0;
 8002874:	2300      	movs	r3, #0
 8002876:	e019      	b.n	80028ac <ucg_clip_l90se+0x4c>
  for ( i = 0; i < 3; i++ )
 8002878:	2300      	movs	r3, #0
 800287a:	73fb      	strb	r3, [r7, #15]
 800287c:	e012      	b.n	80028a4 <ucg_clip_l90se+0x44>
  {
    ucg_ccs_seek(ucg->arg.ccs_line+i, ucg->arg.offset);
 800287e:	687b      	ldr	r3, [r7, #4]
 8002880:	f103 0146 	add.w	r1, r3, #70	@ 0x46
 8002884:	7bfa      	ldrb	r2, [r7, #15]
 8002886:	4613      	mov	r3, r2
 8002888:	00db      	lsls	r3, r3, #3
 800288a:	1a9b      	subs	r3, r3, r2
 800288c:	005b      	lsls	r3, r3, #1
 800288e:	18ca      	adds	r2, r1, r3
 8002890:	687b      	ldr	r3, [r7, #4]
 8002892:	f9b3 3030 	ldrsh.w	r3, [r3, #48]	@ 0x30
 8002896:	4619      	mov	r1, r3
 8002898:	4610      	mov	r0, r2
 800289a:	f7ff fd5e 	bl	800235a <ucg_ccs_seek>
  for ( i = 0; i < 3; i++ )
 800289e:	7bfb      	ldrb	r3, [r7, #15]
 80028a0:	3301      	adds	r3, #1
 80028a2:	73fb      	strb	r3, [r7, #15]
 80028a4:	7bfb      	ldrb	r3, [r7, #15]
 80028a6:	2b02      	cmp	r3, #2
 80028a8:	d9e9      	bls.n	800287e <ucg_clip_l90se+0x1e>
  }  
  return 1;
 80028aa:	2301      	movs	r3, #1
}
 80028ac:	4618      	mov	r0, r3
 80028ae:	3710      	adds	r7, #16
 80028b0:	46bd      	mov	sp, r7
 80028b2:	bd80      	pop	{r7, pc}

080028b4 <ucg_com_PowerDown>:
  return 1;
}


void ucg_com_PowerDown(ucg_t *ucg)
{
 80028b4:	b590      	push	{r4, r7, lr}
 80028b6:	b083      	sub	sp, #12
 80028b8:	af00      	add	r7, sp, #0
 80028ba:	6078      	str	r0, [r7, #4]
  if ( (ucg->com_status & UCG_COM_STATUS_MASK_POWER) != 0 )
 80028bc:	687b      	ldr	r3, [r7, #4]
 80028be:	f893 30af 	ldrb.w	r3, [r3, #175]	@ 0xaf
 80028c2:	f003 0308 	and.w	r3, r3, #8
 80028c6:	2b00      	cmp	r3, #0
 80028c8:	d006      	beq.n	80028d8 <ucg_com_PowerDown+0x24>
    ucg->com_cb(ucg, UCG_COM_MSG_POWER_DOWN, 0, NULL);
 80028ca:	687b      	ldr	r3, [r7, #4]
 80028cc:	69dc      	ldr	r4, [r3, #28]
 80028ce:	2300      	movs	r3, #0
 80028d0:	2200      	movs	r2, #0
 80028d2:	210b      	movs	r1, #11
 80028d4:	6878      	ldr	r0, [r7, #4]
 80028d6:	47a0      	blx	r4
  ucg->com_status &= ~UCG_COM_STATUS_MASK_POWER;
 80028d8:	687b      	ldr	r3, [r7, #4]
 80028da:	f893 30af 	ldrb.w	r3, [r3, #175]	@ 0xaf
 80028de:	f023 0308 	bic.w	r3, r3, #8
 80028e2:	b2da      	uxtb	r2, r3
 80028e4:	687b      	ldr	r3, [r7, #4]
 80028e6:	f883 20af 	strb.w	r2, [r3, #175]	@ 0xaf
}
 80028ea:	bf00      	nop
 80028ec:	370c      	adds	r7, #12
 80028ee:	46bd      	mov	sp, r7
 80028f0:	bd90      	pop	{r4, r7, pc}

080028f2 <ucg_com_PowerUp>:

/*
  clk_speed in nano-seconds, range: 0..4095
*/
int16_t ucg_com_PowerUp(ucg_t *ucg, uint16_t serial_clk_speed, uint16_t parallel_clk_speed)
{
 80028f2:	b590      	push	{r4, r7, lr}
 80028f4:	b085      	sub	sp, #20
 80028f6:	af00      	add	r7, sp, #0
 80028f8:	6078      	str	r0, [r7, #4]
 80028fa:	460b      	mov	r3, r1
 80028fc:	807b      	strh	r3, [r7, #2]
 80028fe:	4613      	mov	r3, r2
 8002900:	803b      	strh	r3, [r7, #0]
  int16_t r;
  ucg_com_info_t com_info;
  com_info.serial_clk_speed = serial_clk_speed;
 8002902:	887b      	ldrh	r3, [r7, #2]
 8002904:	813b      	strh	r3, [r7, #8]
  com_info.parallel_clk_speed = parallel_clk_speed;
 8002906:	883b      	ldrh	r3, [r7, #0]
 8002908:	817b      	strh	r3, [r7, #10]
  
  ucg_com_PowerDown(ucg);  
 800290a:	6878      	ldr	r0, [r7, #4]
 800290c:	f7ff ffd2 	bl	80028b4 <ucg_com_PowerDown>
  ucg->com_initial_change_sent = 0;
 8002910:	687b      	ldr	r3, [r7, #4]
 8002912:	2200      	movs	r2, #0
 8002914:	f883 20ae 	strb.w	r2, [r3, #174]	@ 0xae
  r = ucg->com_cb(ucg, UCG_COM_MSG_POWER_UP, 0UL, (uint8_t *)&com_info);
 8002918:	687b      	ldr	r3, [r7, #4]
 800291a:	69dc      	ldr	r4, [r3, #28]
 800291c:	f107 0308 	add.w	r3, r7, #8
 8002920:	2200      	movs	r2, #0
 8002922:	210a      	movs	r1, #10
 8002924:	6878      	ldr	r0, [r7, #4]
 8002926:	47a0      	blx	r4
 8002928:	4603      	mov	r3, r0
 800292a:	81fb      	strh	r3, [r7, #14]
  if ( r != 0 )
 800292c:	f9b7 300e 	ldrsh.w	r3, [r7, #14]
 8002930:	2b00      	cmp	r3, #0
 8002932:	d008      	beq.n	8002946 <ucg_com_PowerUp+0x54>
  {
    ucg->com_status |= UCG_COM_STATUS_MASK_POWER;
 8002934:	687b      	ldr	r3, [r7, #4]
 8002936:	f893 30af 	ldrb.w	r3, [r3, #175]	@ 0xaf
 800293a:	f043 0308 	orr.w	r3, r3, #8
 800293e:	b2da      	uxtb	r2, r3
 8002940:	687b      	ldr	r3, [r7, #4]
 8002942:	f883 20af 	strb.w	r2, [r3, #175]	@ 0xaf
  }
  return r;
 8002946:	f9b7 300e 	ldrsh.w	r3, [r7, #14]
}
 800294a:	4618      	mov	r0, r3
 800294c:	3714      	adds	r7, #20
 800294e:	46bd      	mov	sp, r7
 8002950:	bd90      	pop	{r4, r7, pc}

08002952 <ucg_com_SetLineStatus>:

void ucg_com_SetLineStatus(ucg_t *ucg, uint8_t level, uint8_t mask, uint8_t msg)
{
 8002952:	b590      	push	{r4, r7, lr}
 8002954:	b083      	sub	sp, #12
 8002956:	af00      	add	r7, sp, #0
 8002958:	6078      	str	r0, [r7, #4]
 800295a:	4608      	mov	r0, r1
 800295c:	4611      	mov	r1, r2
 800295e:	461a      	mov	r2, r3
 8002960:	4603      	mov	r3, r0
 8002962:	70fb      	strb	r3, [r7, #3]
 8002964:	460b      	mov	r3, r1
 8002966:	70bb      	strb	r3, [r7, #2]
 8002968:	4613      	mov	r3, r2
 800296a:	707b      	strb	r3, [r7, #1]
  if ( level == 0 )
 800296c:	78fb      	ldrb	r3, [r7, #3]
 800296e:	2b00      	cmp	r3, #0
 8002970:	d131      	bne.n	80029d6 <ucg_com_SetLineStatus+0x84>
  {
    if ( (ucg->com_initial_change_sent & mask) == 0 || (ucg->com_status & mask) == mask )
 8002972:	687b      	ldr	r3, [r7, #4]
 8002974:	f893 20ae 	ldrb.w	r2, [r3, #174]	@ 0xae
 8002978:	78bb      	ldrb	r3, [r7, #2]
 800297a:	4013      	ands	r3, r2
 800297c:	b2db      	uxtb	r3, r3
 800297e:	2b00      	cmp	r3, #0
 8002980:	d008      	beq.n	8002994 <ucg_com_SetLineStatus+0x42>
 8002982:	687b      	ldr	r3, [r7, #4]
 8002984:	f893 20af 	ldrb.w	r2, [r3, #175]	@ 0xaf
 8002988:	78bb      	ldrb	r3, [r7, #2]
 800298a:	4013      	ands	r3, r2
 800298c:	b2db      	uxtb	r3, r3
 800298e:	78ba      	ldrb	r2, [r7, #2]
 8002990:	429a      	cmp	r2, r3
 8002992:	d14b      	bne.n	8002a2c <ucg_com_SetLineStatus+0xda>
    {
      ucg->com_cb(ucg, msg, level, NULL);
 8002994:	687b      	ldr	r3, [r7, #4]
 8002996:	69dc      	ldr	r4, [r3, #28]
 8002998:	787b      	ldrb	r3, [r7, #1]
 800299a:	b219      	sxth	r1, r3
 800299c:	78fb      	ldrb	r3, [r7, #3]
 800299e:	b29a      	uxth	r2, r3
 80029a0:	2300      	movs	r3, #0
 80029a2:	6878      	ldr	r0, [r7, #4]
 80029a4:	47a0      	blx	r4
      ucg->com_status &= ~mask;
 80029a6:	687b      	ldr	r3, [r7, #4]
 80029a8:	f893 30af 	ldrb.w	r3, [r3, #175]	@ 0xaf
 80029ac:	b25a      	sxtb	r2, r3
 80029ae:	f997 3002 	ldrsb.w	r3, [r7, #2]
 80029b2:	43db      	mvns	r3, r3
 80029b4:	b25b      	sxtb	r3, r3
 80029b6:	4013      	ands	r3, r2
 80029b8:	b25b      	sxtb	r3, r3
 80029ba:	b2da      	uxtb	r2, r3
 80029bc:	687b      	ldr	r3, [r7, #4]
 80029be:	f883 20af 	strb.w	r2, [r3, #175]	@ 0xaf
      ucg->com_initial_change_sent |= mask;
 80029c2:	687b      	ldr	r3, [r7, #4]
 80029c4:	f893 20ae 	ldrb.w	r2, [r3, #174]	@ 0xae
 80029c8:	78bb      	ldrb	r3, [r7, #2]
 80029ca:	4313      	orrs	r3, r2
 80029cc:	b2da      	uxtb	r2, r3
 80029ce:	687b      	ldr	r3, [r7, #4]
 80029d0:	f883 20ae 	strb.w	r2, [r3, #174]	@ 0xae
      ucg->com_cb(ucg, msg, level, NULL);
      ucg->com_status |= mask;
      ucg->com_initial_change_sent |= mask;
    }
  }
}
 80029d4:	e02a      	b.n	8002a2c <ucg_com_SetLineStatus+0xda>
    if ( (ucg->com_initial_change_sent & mask) == 0 || (ucg->com_status & mask) == 0 )
 80029d6:	687b      	ldr	r3, [r7, #4]
 80029d8:	f893 20ae 	ldrb.w	r2, [r3, #174]	@ 0xae
 80029dc:	78bb      	ldrb	r3, [r7, #2]
 80029de:	4013      	ands	r3, r2
 80029e0:	b2db      	uxtb	r3, r3
 80029e2:	2b00      	cmp	r3, #0
 80029e4:	d007      	beq.n	80029f6 <ucg_com_SetLineStatus+0xa4>
 80029e6:	687b      	ldr	r3, [r7, #4]
 80029e8:	f893 20af 	ldrb.w	r2, [r3, #175]	@ 0xaf
 80029ec:	78bb      	ldrb	r3, [r7, #2]
 80029ee:	4013      	ands	r3, r2
 80029f0:	b2db      	uxtb	r3, r3
 80029f2:	2b00      	cmp	r3, #0
 80029f4:	d11a      	bne.n	8002a2c <ucg_com_SetLineStatus+0xda>
      ucg->com_cb(ucg, msg, level, NULL);
 80029f6:	687b      	ldr	r3, [r7, #4]
 80029f8:	69dc      	ldr	r4, [r3, #28]
 80029fa:	787b      	ldrb	r3, [r7, #1]
 80029fc:	b219      	sxth	r1, r3
 80029fe:	78fb      	ldrb	r3, [r7, #3]
 8002a00:	b29a      	uxth	r2, r3
 8002a02:	2300      	movs	r3, #0
 8002a04:	6878      	ldr	r0, [r7, #4]
 8002a06:	47a0      	blx	r4
      ucg->com_status |= mask;
 8002a08:	687b      	ldr	r3, [r7, #4]
 8002a0a:	f893 20af 	ldrb.w	r2, [r3, #175]	@ 0xaf
 8002a0e:	78bb      	ldrb	r3, [r7, #2]
 8002a10:	4313      	orrs	r3, r2
 8002a12:	b2da      	uxtb	r2, r3
 8002a14:	687b      	ldr	r3, [r7, #4]
 8002a16:	f883 20af 	strb.w	r2, [r3, #175]	@ 0xaf
      ucg->com_initial_change_sent |= mask;
 8002a1a:	687b      	ldr	r3, [r7, #4]
 8002a1c:	f893 20ae 	ldrb.w	r2, [r3, #174]	@ 0xae
 8002a20:	78bb      	ldrb	r3, [r7, #2]
 8002a22:	4313      	orrs	r3, r2
 8002a24:	b2da      	uxtb	r2, r3
 8002a26:	687b      	ldr	r3, [r7, #4]
 8002a28:	f883 20ae 	strb.w	r2, [r3, #174]	@ 0xae
}
 8002a2c:	bf00      	nop
 8002a2e:	370c      	adds	r7, #12
 8002a30:	46bd      	mov	sp, r7
 8002a32:	bd90      	pop	{r4, r7, pc}

08002a34 <ucg_com_SetResetLineStatus>:

void ucg_com_SetResetLineStatus(ucg_t *ucg, uint8_t level)
{
 8002a34:	b580      	push	{r7, lr}
 8002a36:	b082      	sub	sp, #8
 8002a38:	af00      	add	r7, sp, #0
 8002a3a:	6078      	str	r0, [r7, #4]
 8002a3c:	460b      	mov	r3, r1
 8002a3e:	70fb      	strb	r3, [r7, #3]
  ucg_com_SetLineStatus(ucg, level, UCG_COM_STATUS_MASK_RESET, UCG_COM_MSG_CHANGE_RESET_LINE);
 8002a40:	78f9      	ldrb	r1, [r7, #3]
 8002a42:	230d      	movs	r3, #13
 8002a44:	2204      	movs	r2, #4
 8002a46:	6878      	ldr	r0, [r7, #4]
 8002a48:	f7ff ff83 	bl	8002952 <ucg_com_SetLineStatus>
}
 8002a4c:	bf00      	nop
 8002a4e:	3708      	adds	r7, #8
 8002a50:	46bd      	mov	sp, r7
 8002a52:	bd80      	pop	{r7, pc}

08002a54 <ucg_com_SetCSLineStatus>:

void ucg_com_SetCSLineStatus(ucg_t *ucg, uint8_t level)
{
 8002a54:	b580      	push	{r7, lr}
 8002a56:	b082      	sub	sp, #8
 8002a58:	af00      	add	r7, sp, #0
 8002a5a:	6078      	str	r0, [r7, #4]
 8002a5c:	460b      	mov	r3, r1
 8002a5e:	70fb      	strb	r3, [r7, #3]
  ucg_com_SetLineStatus(ucg, level, UCG_COM_STATUS_MASK_CS, UCG_COM_MSG_CHANGE_CS_LINE);
 8002a60:	78f9      	ldrb	r1, [r7, #3]
 8002a62:	230e      	movs	r3, #14
 8002a64:	2202      	movs	r2, #2
 8002a66:	6878      	ldr	r0, [r7, #4]
 8002a68:	f7ff ff73 	bl	8002952 <ucg_com_SetLineStatus>
}
 8002a6c:	bf00      	nop
 8002a6e:	3708      	adds	r7, #8
 8002a70:	46bd      	mov	sp, r7
 8002a72:	bd80      	pop	{r7, pc}

08002a74 <ucg_com_SetCDLineStatus>:

void ucg_com_SetCDLineStatus(ucg_t *ucg, uint8_t level)
{
 8002a74:	b580      	push	{r7, lr}
 8002a76:	b082      	sub	sp, #8
 8002a78:	af00      	add	r7, sp, #0
 8002a7a:	6078      	str	r0, [r7, #4]
 8002a7c:	460b      	mov	r3, r1
 8002a7e:	70fb      	strb	r3, [r7, #3]
  ucg_com_SetLineStatus(ucg, level, UCG_COM_STATUS_MASK_CD, UCG_COM_MSG_CHANGE_CD_LINE);
 8002a80:	78f9      	ldrb	r1, [r7, #3]
 8002a82:	230f      	movs	r3, #15
 8002a84:	2201      	movs	r2, #1
 8002a86:	6878      	ldr	r0, [r7, #4]
 8002a88:	f7ff ff63 	bl	8002952 <ucg_com_SetLineStatus>
}
 8002a8c:	bf00      	nop
 8002a8e:	3708      	adds	r7, #8
 8002a90:	46bd      	mov	sp, r7
 8002a92:	bd80      	pop	{r7, pc}

08002a94 <ucg_com_DelayMicroseconds>:

/* delay in microseconds */
void ucg_com_DelayMicroseconds(ucg_t *ucg, uint16_t delay)
{
 8002a94:	b590      	push	{r4, r7, lr}
 8002a96:	b083      	sub	sp, #12
 8002a98:	af00      	add	r7, sp, #0
 8002a9a:	6078      	str	r0, [r7, #4]
 8002a9c:	460b      	mov	r3, r1
 8002a9e:	807b      	strh	r3, [r7, #2]
  ucg->com_cb(ucg, UCG_COM_MSG_DELAY, delay, NULL);
 8002aa0:	687b      	ldr	r3, [r7, #4]
 8002aa2:	69dc      	ldr	r4, [r3, #28]
 8002aa4:	887a      	ldrh	r2, [r7, #2]
 8002aa6:	2300      	movs	r3, #0
 8002aa8:	210c      	movs	r1, #12
 8002aaa:	6878      	ldr	r0, [r7, #4]
 8002aac:	47a0      	blx	r4
}
 8002aae:	bf00      	nop
 8002ab0:	370c      	adds	r7, #12
 8002ab2:	46bd      	mov	sp, r7
 8002ab4:	bd90      	pop	{r4, r7, pc}

08002ab6 <ucg_com_DelayMilliseconds>:

/* delay in milliseconds */
void ucg_com_DelayMilliseconds(ucg_t *ucg, uint16_t delay)
{
 8002ab6:	b580      	push	{r7, lr}
 8002ab8:	b082      	sub	sp, #8
 8002aba:	af00      	add	r7, sp, #0
 8002abc:	6078      	str	r0, [r7, #4]
 8002abe:	460b      	mov	r3, r1
 8002ac0:	807b      	strh	r3, [r7, #2]
  while( delay > 0 )
 8002ac2:	e007      	b.n	8002ad4 <ucg_com_DelayMilliseconds+0x1e>
  {
    ucg_com_DelayMicroseconds(ucg, 1000);
 8002ac4:	f44f 717a 	mov.w	r1, #1000	@ 0x3e8
 8002ac8:	6878      	ldr	r0, [r7, #4]
 8002aca:	f7ff ffe3 	bl	8002a94 <ucg_com_DelayMicroseconds>
    delay--;
 8002ace:	887b      	ldrh	r3, [r7, #2]
 8002ad0:	3b01      	subs	r3, #1
 8002ad2:	807b      	strh	r3, [r7, #2]
  while( delay > 0 )
 8002ad4:	887b      	ldrh	r3, [r7, #2]
 8002ad6:	2b00      	cmp	r3, #0
 8002ad8:	d1f4      	bne.n	8002ac4 <ucg_com_DelayMilliseconds+0xe>
  }
}
 8002ada:	bf00      	nop
 8002adc:	bf00      	nop
 8002ade:	3708      	adds	r7, #8
 8002ae0:	46bd      	mov	sp, r7
 8002ae2:	bd80      	pop	{r7, pc}

08002ae4 <ucg_com_SendByte>:


#ifndef ucg_com_SendByte
void ucg_com_SendByte(ucg_t *ucg, uint8_t byte)
{
 8002ae4:	b590      	push	{r4, r7, lr}
 8002ae6:	b083      	sub	sp, #12
 8002ae8:	af00      	add	r7, sp, #0
 8002aea:	6078      	str	r0, [r7, #4]
 8002aec:	460b      	mov	r3, r1
 8002aee:	70fb      	strb	r3, [r7, #3]
  ucg->com_cb(ucg, UCG_COM_MSG_SEND_BYTE, byte, NULL);
 8002af0:	687b      	ldr	r3, [r7, #4]
 8002af2:	69dc      	ldr	r4, [r3, #28]
 8002af4:	78fb      	ldrb	r3, [r7, #3]
 8002af6:	b29a      	uxth	r2, r3
 8002af8:	2300      	movs	r3, #0
 8002afa:	2110      	movs	r1, #16
 8002afc:	6878      	ldr	r0, [r7, #4]
 8002afe:	47a0      	blx	r4
}
 8002b00:	bf00      	nop
 8002b02:	370c      	adds	r7, #12
 8002b04:	46bd      	mov	sp, r7
 8002b06:	bd90      	pop	{r4, r7, pc}

08002b08 <ucg_com_SendStringP>:
{
  ucg->com_cb(ucg, UCG_COM_MSG_SEND_STR, cnt, (uint8_t *)byte_ptr);
}

void ucg_com_SendStringP(ucg_t *ucg, uint16_t cnt, const ucg_pgm_uint8_t *byte_ptr)
{
 8002b08:	b590      	push	{r4, r7, lr}
 8002b0a:	b087      	sub	sp, #28
 8002b0c:	af00      	add	r7, sp, #0
 8002b0e:	60f8      	str	r0, [r7, #12]
 8002b10:	460b      	mov	r3, r1
 8002b12:	607a      	str	r2, [r7, #4]
 8002b14:	817b      	strh	r3, [r7, #10]
  uint8_t b;
  while( cnt > 0 )
 8002b16:	e010      	b.n	8002b3a <ucg_com_SendStringP+0x32>
  {
    b = ucg_pgm_read(byte_ptr);
 8002b18:	687b      	ldr	r3, [r7, #4]
 8002b1a:	781b      	ldrb	r3, [r3, #0]
 8002b1c:	75fb      	strb	r3, [r7, #23]
    //b = *byte_ptr;
    ucg->com_cb(ucg, UCG_COM_MSG_SEND_BYTE, b, NULL);
 8002b1e:	68fb      	ldr	r3, [r7, #12]
 8002b20:	69dc      	ldr	r4, [r3, #28]
 8002b22:	7dfb      	ldrb	r3, [r7, #23]
 8002b24:	b29a      	uxth	r2, r3
 8002b26:	2300      	movs	r3, #0
 8002b28:	2110      	movs	r1, #16
 8002b2a:	68f8      	ldr	r0, [r7, #12]
 8002b2c:	47a0      	blx	r4
    byte_ptr++;
 8002b2e:	687b      	ldr	r3, [r7, #4]
 8002b30:	3301      	adds	r3, #1
 8002b32:	607b      	str	r3, [r7, #4]
    cnt--;
 8002b34:	897b      	ldrh	r3, [r7, #10]
 8002b36:	3b01      	subs	r3, #1
 8002b38:	817b      	strh	r3, [r7, #10]
  while( cnt > 0 )
 8002b3a:	897b      	ldrh	r3, [r7, #10]
 8002b3c:	2b00      	cmp	r3, #0
 8002b3e:	d1eb      	bne.n	8002b18 <ucg_com_SendStringP+0x10>
  }
}
 8002b40:	bf00      	nop
 8002b42:	bf00      	nop
 8002b44:	371c      	adds	r7, #28
 8002b46:	46bd      	mov	sp, r7
 8002b48:	bd90      	pop	{r4, r7, pc}

08002b4a <ucg_com_SendCmdArg>:
#define END()					0x00

*/

static void ucg_com_SendCmdArg(ucg_t *ucg, const ucg_pgm_uint8_t *data, uint8_t cmd_cnt, uint8_t arg_cnt)
{
 8002b4a:	b580      	push	{r7, lr}
 8002b4c:	b084      	sub	sp, #16
 8002b4e:	af00      	add	r7, sp, #0
 8002b50:	60f8      	str	r0, [r7, #12]
 8002b52:	60b9      	str	r1, [r7, #8]
 8002b54:	4611      	mov	r1, r2
 8002b56:	461a      	mov	r2, r3
 8002b58:	460b      	mov	r3, r1
 8002b5a:	71fb      	strb	r3, [r7, #7]
 8002b5c:	4613      	mov	r3, r2
 8002b5e:	71bb      	strb	r3, [r7, #6]
  ucg_com_SetCDLineStatus(ucg, (ucg->com_cfg_cd>>1)&1 );
 8002b60:	68fb      	ldr	r3, [r7, #12]
 8002b62:	f893 30b0 	ldrb.w	r3, [r3, #176]	@ 0xb0
 8002b66:	085b      	lsrs	r3, r3, #1
 8002b68:	b2db      	uxtb	r3, r3
 8002b6a:	f003 0301 	and.w	r3, r3, #1
 8002b6e:	b2db      	uxtb	r3, r3
 8002b70:	4619      	mov	r1, r3
 8002b72:	68f8      	ldr	r0, [r7, #12]
 8002b74:	f7ff ff7e 	bl	8002a74 <ucg_com_SetCDLineStatus>
  ucg_com_SendStringP(ucg, cmd_cnt, data);
 8002b78:	79fb      	ldrb	r3, [r7, #7]
 8002b7a:	b29b      	uxth	r3, r3
 8002b7c:	68ba      	ldr	r2, [r7, #8]
 8002b7e:	4619      	mov	r1, r3
 8002b80:	68f8      	ldr	r0, [r7, #12]
 8002b82:	f7ff ffc1 	bl	8002b08 <ucg_com_SendStringP>
  if ( arg_cnt > 0 )
 8002b86:	79bb      	ldrb	r3, [r7, #6]
 8002b88:	2b00      	cmp	r3, #0
 8002b8a:	d014      	beq.n	8002bb6 <ucg_com_SendCmdArg+0x6c>
  {
    data += cmd_cnt;
 8002b8c:	79fb      	ldrb	r3, [r7, #7]
 8002b8e:	68ba      	ldr	r2, [r7, #8]
 8002b90:	4413      	add	r3, r2
 8002b92:	60bb      	str	r3, [r7, #8]
    ucg_com_SetCDLineStatus(ucg, (ucg->com_cfg_cd)&1 );
 8002b94:	68fb      	ldr	r3, [r7, #12]
 8002b96:	f893 30b0 	ldrb.w	r3, [r3, #176]	@ 0xb0
 8002b9a:	f003 0301 	and.w	r3, r3, #1
 8002b9e:	b2db      	uxtb	r3, r3
 8002ba0:	4619      	mov	r1, r3
 8002ba2:	68f8      	ldr	r0, [r7, #12]
 8002ba4:	f7ff ff66 	bl	8002a74 <ucg_com_SetCDLineStatus>
    ucg_com_SendStringP(ucg, arg_cnt, data);
 8002ba8:	79bb      	ldrb	r3, [r7, #6]
 8002baa:	b29b      	uxth	r3, r3
 8002bac:	68ba      	ldr	r2, [r7, #8]
 8002bae:	4619      	mov	r1, r3
 8002bb0:	68f8      	ldr	r0, [r7, #12]
 8002bb2:	f7ff ffa9 	bl	8002b08 <ucg_com_SendStringP>
  }
}
 8002bb6:	bf00      	nop
 8002bb8:	3710      	adds	r7, #16
 8002bba:	46bd      	mov	sp, r7
 8002bbc:	bd80      	pop	{r7, pc}
	...

08002bc0 <ucg_com_SendCmdSeq>:


//void ucg_com_SendCmdSeq(ucg_t *ucg, const ucg_pgm_uint8_t *data)
void ucg_com_SendCmdSeq(ucg_t *ucg, const ucg_pgm_uint8_t *data)
{
 8002bc0:	b580      	push	{r7, lr}
 8002bc2:	b084      	sub	sp, #16
 8002bc4:	af00      	add	r7, sp, #0
 8002bc6:	6078      	str	r0, [r7, #4]
 8002bc8:	6039      	str	r1, [r7, #0]
  uint8_t hi;
  uint8_t lo;

  for(;;)
  {
    b = ucg_pgm_read(data);
 8002bca:	683b      	ldr	r3, [r7, #0]
 8002bcc:	781b      	ldrb	r3, [r3, #0]
 8002bce:	73fb      	strb	r3, [r7, #15]
    //b = *data;
    hi = (b) >> 4;
 8002bd0:	7bfb      	ldrb	r3, [r7, #15]
 8002bd2:	091b      	lsrs	r3, r3, #4
 8002bd4:	73bb      	strb	r3, [r7, #14]
    lo = (b) & 0x0f;
 8002bd6:	7bfb      	ldrb	r3, [r7, #15]
 8002bd8:	f003 030f 	and.w	r3, r3, #15
 8002bdc:	737b      	strb	r3, [r7, #13]
    switch( hi )
 8002bde:	7bbb      	ldrb	r3, [r7, #14]
 8002be0:	2b0f      	cmp	r3, #15
 8002be2:	f200 8127 	bhi.w	8002e34 <ucg_com_SendCmdSeq+0x274>
 8002be6:	a201      	add	r2, pc, #4	@ (adr r2, 8002bec <ucg_com_SendCmdSeq+0x2c>)
 8002be8:	f852 f023 	ldr.w	pc, [r2, r3, lsl #2]
 8002bec:	08002e35 	.word	0x08002e35
 8002bf0:	08002c2d 	.word	0x08002c2d
 8002bf4:	08002c2d 	.word	0x08002c2d
 8002bf8:	08002c2d 	.word	0x08002c2d
 8002bfc:	08002e35 	.word	0x08002e35
 8002c00:	08002e35 	.word	0x08002e35
 8002c04:	08002c4d 	.word	0x08002c4d
 8002c08:	08002c7f 	.word	0x08002c7f
 8002c0c:	08002cc3 	.word	0x08002cc3
 8002c10:	08002cef 	.word	0x08002cef
 8002c14:	08002d1b 	.word	0x08002d1b
 8002c18:	08002d7b 	.word	0x08002d7b
 8002c1c:	08002e35 	.word	0x08002e35
 8002c20:	08002e35 	.word	0x08002e35
 8002c24:	08002e35 	.word	0x08002e35
 8002c28:	08002ddb 	.word	0x08002ddb
      case 0:
	return;		/* end marker */
      case 1:
      case 2:
      case 3:
	ucg_com_SendCmdArg(ucg, data+1, hi, lo);
 8002c2c:	683b      	ldr	r3, [r7, #0]
 8002c2e:	1c59      	adds	r1, r3, #1
 8002c30:	7b7b      	ldrb	r3, [r7, #13]
 8002c32:	7bba      	ldrb	r2, [r7, #14]
 8002c34:	6878      	ldr	r0, [r7, #4]
 8002c36:	f7ff ff88 	bl	8002b4a <ucg_com_SendCmdArg>
	data+=1+hi+lo;
 8002c3a:	7bbb      	ldrb	r3, [r7, #14]
 8002c3c:	1c5a      	adds	r2, r3, #1
 8002c3e:	7b7b      	ldrb	r3, [r7, #13]
 8002c40:	4413      	add	r3, r2
 8002c42:	461a      	mov	r2, r3
 8002c44:	683b      	ldr	r3, [r7, #0]
 8002c46:	4413      	add	r3, r2
 8002c48:	603b      	str	r3, [r7, #0]
	break;
 8002c4a:	e0f2      	b.n	8002e32 <ucg_com_SendCmdSeq+0x272>
      case 6:
	ucg_com_SetCDLineStatus(ucg, (ucg->com_cfg_cd)&1 );
 8002c4c:	687b      	ldr	r3, [r7, #4]
 8002c4e:	f893 30b0 	ldrb.w	r3, [r3, #176]	@ 0xb0
 8002c52:	f003 0301 	and.w	r3, r3, #1
 8002c56:	b2db      	uxtb	r3, r3
 8002c58:	4619      	mov	r1, r3
 8002c5a:	6878      	ldr	r0, [r7, #4]
 8002c5c:	f7ff ff0a 	bl	8002a74 <ucg_com_SetCDLineStatus>
	ucg_com_SendStringP(ucg, lo, data+1);
 8002c60:	7b7b      	ldrb	r3, [r7, #13]
 8002c62:	b299      	uxth	r1, r3
 8002c64:	683b      	ldr	r3, [r7, #0]
 8002c66:	3301      	adds	r3, #1
 8002c68:	461a      	mov	r2, r3
 8002c6a:	6878      	ldr	r0, [r7, #4]
 8002c6c:	f7ff ff4c 	bl	8002b08 <ucg_com_SendStringP>
	data+=1+lo;      
 8002c70:	7b7b      	ldrb	r3, [r7, #13]
 8002c72:	3301      	adds	r3, #1
 8002c74:	461a      	mov	r2, r3
 8002c76:	683b      	ldr	r3, [r7, #0]
 8002c78:	4413      	add	r3, r2
 8002c7a:	603b      	str	r3, [r7, #0]
	break;
 8002c7c:	e0d9      	b.n	8002e32 <ucg_com_SendCmdSeq+0x272>
      case 7:	/* note: 0x070 is used to set data line status */
	ucg_com_SetCDLineStatus(ucg, ((ucg->com_cfg_cd>>1)&1)^1 );
 8002c7e:	687b      	ldr	r3, [r7, #4]
 8002c80:	f893 30b0 	ldrb.w	r3, [r3, #176]	@ 0xb0
 8002c84:	085b      	lsrs	r3, r3, #1
 8002c86:	b2db      	uxtb	r3, r3
 8002c88:	f003 0301 	and.w	r3, r3, #1
 8002c8c:	2b00      	cmp	r3, #0
 8002c8e:	bf0c      	ite	eq
 8002c90:	2301      	moveq	r3, #1
 8002c92:	2300      	movne	r3, #0
 8002c94:	b2db      	uxtb	r3, r3
 8002c96:	4619      	mov	r1, r3
 8002c98:	6878      	ldr	r0, [r7, #4]
 8002c9a:	f7ff feeb 	bl	8002a74 <ucg_com_SetCDLineStatus>
	if ( lo > 0 )
 8002c9e:	7b7b      	ldrb	r3, [r7, #13]
 8002ca0:	2b00      	cmp	r3, #0
 8002ca2:	d007      	beq.n	8002cb4 <ucg_com_SendCmdSeq+0xf4>
	  ucg_com_SendStringP(ucg, lo, data+1);
 8002ca4:	7b7b      	ldrb	r3, [r7, #13]
 8002ca6:	b299      	uxth	r1, r3
 8002ca8:	683b      	ldr	r3, [r7, #0]
 8002caa:	3301      	adds	r3, #1
 8002cac:	461a      	mov	r2, r3
 8002cae:	6878      	ldr	r0, [r7, #4]
 8002cb0:	f7ff ff2a 	bl	8002b08 <ucg_com_SendStringP>
	data+=1+lo;      
 8002cb4:	7b7b      	ldrb	r3, [r7, #13]
 8002cb6:	3301      	adds	r3, #1
 8002cb8:	461a      	mov	r2, r3
 8002cba:	683b      	ldr	r3, [r7, #0]
 8002cbc:	4413      	add	r3, r2
 8002cbe:	603b      	str	r3, [r7, #0]
	break;
 8002cc0:	e0b7      	b.n	8002e32 <ucg_com_SendCmdSeq+0x272>
      case 8:
	data++;
 8002cc2:	683b      	ldr	r3, [r7, #0]
 8002cc4:	3301      	adds	r3, #1
 8002cc6:	603b      	str	r3, [r7, #0]
	b = ucg_pgm_read(data);
 8002cc8:	683b      	ldr	r3, [r7, #0]
 8002cca:	781b      	ldrb	r3, [r3, #0]
 8002ccc:	73fb      	strb	r3, [r7, #15]
	//b = *data;
	ucg_com_DelayMilliseconds(ucg, (((uint16_t)lo)<<8) + b );
 8002cce:	7b7b      	ldrb	r3, [r7, #13]
 8002cd0:	b29b      	uxth	r3, r3
 8002cd2:	021b      	lsls	r3, r3, #8
 8002cd4:	b29a      	uxth	r2, r3
 8002cd6:	7bfb      	ldrb	r3, [r7, #15]
 8002cd8:	b29b      	uxth	r3, r3
 8002cda:	4413      	add	r3, r2
 8002cdc:	b29b      	uxth	r3, r3
 8002cde:	4619      	mov	r1, r3
 8002ce0:	6878      	ldr	r0, [r7, #4]
 8002ce2:	f7ff fee8 	bl	8002ab6 <ucg_com_DelayMilliseconds>
	data++;
 8002ce6:	683b      	ldr	r3, [r7, #0]
 8002ce8:	3301      	adds	r3, #1
 8002cea:	603b      	str	r3, [r7, #0]
	break;
 8002cec:	e0a1      	b.n	8002e32 <ucg_com_SendCmdSeq+0x272>
      case 9:
	data++;
 8002cee:	683b      	ldr	r3, [r7, #0]
 8002cf0:	3301      	adds	r3, #1
 8002cf2:	603b      	str	r3, [r7, #0]
	b = ucg_pgm_read(data);
 8002cf4:	683b      	ldr	r3, [r7, #0]
 8002cf6:	781b      	ldrb	r3, [r3, #0]
 8002cf8:	73fb      	strb	r3, [r7, #15]
	//b = *data;
	ucg_com_DelayMicroseconds(ucg, (((uint16_t)lo)<<8) + b );
 8002cfa:	7b7b      	ldrb	r3, [r7, #13]
 8002cfc:	b29b      	uxth	r3, r3
 8002cfe:	021b      	lsls	r3, r3, #8
 8002d00:	b29a      	uxth	r2, r3
 8002d02:	7bfb      	ldrb	r3, [r7, #15]
 8002d04:	b29b      	uxth	r3, r3
 8002d06:	4413      	add	r3, r2
 8002d08:	b29b      	uxth	r3, r3
 8002d0a:	4619      	mov	r1, r3
 8002d0c:	6878      	ldr	r0, [r7, #4]
 8002d0e:	f7ff fec1 	bl	8002a94 <ucg_com_DelayMicroseconds>
	data++;
 8002d12:	683b      	ldr	r3, [r7, #0]
 8002d14:	3301      	adds	r3, #1
 8002d16:	603b      	str	r3, [r7, #0]
	break;
 8002d18:	e08b      	b.n	8002e32 <ucg_com_SendCmdSeq+0x272>
      case 10:
	data++;
 8002d1a:	683b      	ldr	r3, [r7, #0]
 8002d1c:	3301      	adds	r3, #1
 8002d1e:	603b      	str	r3, [r7, #0]
	b = ucg_pgm_read(data);
 8002d20:	683b      	ldr	r3, [r7, #0]
 8002d22:	781b      	ldrb	r3, [r3, #0]
 8002d24:	73fb      	strb	r3, [r7, #15]
	data++;
 8002d26:	683b      	ldr	r3, [r7, #0]
 8002d28:	3301      	adds	r3, #1
 8002d2a:	603b      	str	r3, [r7, #0]
	bb = ucg_pgm_read(data);
 8002d2c:	683b      	ldr	r3, [r7, #0]
 8002d2e:	781b      	ldrb	r3, [r3, #0]
 8002d30:	733b      	strb	r3, [r7, #12]
	data++;
 8002d32:	683b      	ldr	r3, [r7, #0]
 8002d34:	3301      	adds	r3, #1
 8002d36:	603b      	str	r3, [r7, #0]
	//b = data[0];
	//bb = data[1];
	ucg_com_SetCDLineStatus(ucg, (ucg->com_cfg_cd)&1 );
 8002d38:	687b      	ldr	r3, [r7, #4]
 8002d3a:	f893 30b0 	ldrb.w	r3, [r3, #176]	@ 0xb0
 8002d3e:	f003 0301 	and.w	r3, r3, #1
 8002d42:	b2db      	uxtb	r3, r3
 8002d44:	4619      	mov	r1, r3
 8002d46:	6878      	ldr	r0, [r7, #4]
 8002d48:	f7ff fe94 	bl	8002a74 <ucg_com_SetCDLineStatus>
	ucg_com_SendByte(ucg, (((uint8_t)(((ucg->arg.pixel.pos.x+ucg->display_offset.x)>>lo)))&b)|bb );
 8002d4c:	687b      	ldr	r3, [r7, #4]
 8002d4e:	f9b3 3024 	ldrsh.w	r3, [r3, #36]	@ 0x24
 8002d52:	461a      	mov	r2, r3
 8002d54:	687b      	ldr	r3, [r7, #4]
 8002d56:	f9b3 3020 	ldrsh.w	r3, [r3, #32]
 8002d5a:	441a      	add	r2, r3
 8002d5c:	7b7b      	ldrb	r3, [r7, #13]
 8002d5e:	fa42 f303 	asr.w	r3, r2, r3
 8002d62:	b2da      	uxtb	r2, r3
 8002d64:	7bfb      	ldrb	r3, [r7, #15]
 8002d66:	4013      	ands	r3, r2
 8002d68:	b2da      	uxtb	r2, r3
 8002d6a:	7b3b      	ldrb	r3, [r7, #12]
 8002d6c:	4313      	orrs	r3, r2
 8002d6e:	b2db      	uxtb	r3, r3
 8002d70:	4619      	mov	r1, r3
 8002d72:	6878      	ldr	r0, [r7, #4]
 8002d74:	f7ff feb6 	bl	8002ae4 <ucg_com_SendByte>
	//data+=2;
	break;
 8002d78:	e05b      	b.n	8002e32 <ucg_com_SendCmdSeq+0x272>
      case 11:
	data++;
 8002d7a:	683b      	ldr	r3, [r7, #0]
 8002d7c:	3301      	adds	r3, #1
 8002d7e:	603b      	str	r3, [r7, #0]
	b = ucg_pgm_read(data);
 8002d80:	683b      	ldr	r3, [r7, #0]
 8002d82:	781b      	ldrb	r3, [r3, #0]
 8002d84:	73fb      	strb	r3, [r7, #15]
	data++;
 8002d86:	683b      	ldr	r3, [r7, #0]
 8002d88:	3301      	adds	r3, #1
 8002d8a:	603b      	str	r3, [r7, #0]
	bb = ucg_pgm_read(data);
 8002d8c:	683b      	ldr	r3, [r7, #0]
 8002d8e:	781b      	ldrb	r3, [r3, #0]
 8002d90:	733b      	strb	r3, [r7, #12]
	data++;
 8002d92:	683b      	ldr	r3, [r7, #0]
 8002d94:	3301      	adds	r3, #1
 8002d96:	603b      	str	r3, [r7, #0]
	//b = data[0];
	//bb = data[1];
	ucg_com_SetCDLineStatus(ucg, (ucg->com_cfg_cd)&1 );
 8002d98:	687b      	ldr	r3, [r7, #4]
 8002d9a:	f893 30b0 	ldrb.w	r3, [r3, #176]	@ 0xb0
 8002d9e:	f003 0301 	and.w	r3, r3, #1
 8002da2:	b2db      	uxtb	r3, r3
 8002da4:	4619      	mov	r1, r3
 8002da6:	6878      	ldr	r0, [r7, #4]
 8002da8:	f7ff fe64 	bl	8002a74 <ucg_com_SetCDLineStatus>
	ucg_com_SendByte(ucg, (((uint8_t)(((ucg->arg.pixel.pos.y+ucg->display_offset.y)>>lo)))&b)|bb );
 8002dac:	687b      	ldr	r3, [r7, #4]
 8002dae:	f9b3 3026 	ldrsh.w	r3, [r3, #38]	@ 0x26
 8002db2:	461a      	mov	r2, r3
 8002db4:	687b      	ldr	r3, [r7, #4]
 8002db6:	f9b3 3022 	ldrsh.w	r3, [r3, #34]	@ 0x22
 8002dba:	441a      	add	r2, r3
 8002dbc:	7b7b      	ldrb	r3, [r7, #13]
 8002dbe:	fa42 f303 	asr.w	r3, r2, r3
 8002dc2:	b2da      	uxtb	r2, r3
 8002dc4:	7bfb      	ldrb	r3, [r7, #15]
 8002dc6:	4013      	ands	r3, r2
 8002dc8:	b2da      	uxtb	r2, r3
 8002dca:	7b3b      	ldrb	r3, [r7, #12]
 8002dcc:	4313      	orrs	r3, r2
 8002dce:	b2db      	uxtb	r3, r3
 8002dd0:	4619      	mov	r1, r3
 8002dd2:	6878      	ldr	r0, [r7, #4]
 8002dd4:	f7ff fe86 	bl	8002ae4 <ucg_com_SendByte>
	//data+=2;
	break;
 8002dd8:	e02b      	b.n	8002e32 <ucg_com_SendCmdSeq+0x272>
      case 15:
	hi = lo >> 2;
 8002dda:	7b7b      	ldrb	r3, [r7, #13]
 8002ddc:	089b      	lsrs	r3, r3, #2
 8002dde:	73bb      	strb	r3, [r7, #14]
	lo &= 3;
 8002de0:	7b7b      	ldrb	r3, [r7, #13]
 8002de2:	f003 0303 	and.w	r3, r3, #3
 8002de6:	737b      	strb	r3, [r7, #13]
	switch(hi)
 8002de8:	7bbb      	ldrb	r3, [r7, #14]
 8002dea:	2b03      	cmp	r3, #3
 8002dec:	d018      	beq.n	8002e20 <ucg_com_SendCmdSeq+0x260>
 8002dee:	2b03      	cmp	r3, #3
 8002df0:	dc1b      	bgt.n	8002e2a <ucg_com_SendCmdSeq+0x26a>
 8002df2:	2b00      	cmp	r3, #0
 8002df4:	d002      	beq.n	8002dfc <ucg_com_SendCmdSeq+0x23c>
 8002df6:	2b01      	cmp	r3, #1
 8002df8:	d009      	beq.n	8002e0e <ucg_com_SendCmdSeq+0x24e>
 8002dfa:	e016      	b.n	8002e2a <ucg_com_SendCmdSeq+0x26a>
	{
	  case 0:
	    ucg_com_SetResetLineStatus(ucg, lo&1);
 8002dfc:	7b7b      	ldrb	r3, [r7, #13]
 8002dfe:	f003 0301 	and.w	r3, r3, #1
 8002e02:	b2db      	uxtb	r3, r3
 8002e04:	4619      	mov	r1, r3
 8002e06:	6878      	ldr	r0, [r7, #4]
 8002e08:	f7ff fe14 	bl	8002a34 <ucg_com_SetResetLineStatus>
	    break;
 8002e0c:	e00d      	b.n	8002e2a <ucg_com_SendCmdSeq+0x26a>
	  case 1:
	    ucg_com_SetCSLineStatus(ucg, lo&1);
 8002e0e:	7b7b      	ldrb	r3, [r7, #13]
 8002e10:	f003 0301 	and.w	r3, r3, #1
 8002e14:	b2db      	uxtb	r3, r3
 8002e16:	4619      	mov	r1, r3
 8002e18:	6878      	ldr	r0, [r7, #4]
 8002e1a:	f7ff fe1b 	bl	8002a54 <ucg_com_SetCSLineStatus>
	    break;
 8002e1e:	e004      	b.n	8002e2a <ucg_com_SendCmdSeq+0x26a>
	  case 3:
	    ucg->com_cfg_cd = lo;
 8002e20:	687b      	ldr	r3, [r7, #4]
 8002e22:	7b7a      	ldrb	r2, [r7, #13]
 8002e24:	f883 20b0 	strb.w	r2, [r3, #176]	@ 0xb0
	    break;
 8002e28:	bf00      	nop
	}
	data++;
 8002e2a:	683b      	ldr	r3, [r7, #0]
 8002e2c:	3301      	adds	r3, #1
 8002e2e:	603b      	str	r3, [r7, #0]
	break;
 8002e30:	bf00      	nop
    b = ucg_pgm_read(data);
 8002e32:	e6ca      	b.n	8002bca <ucg_com_SendCmdSeq+0xa>
      default:
	return;
 8002e34:	bf00      	nop
    }  
  }
}
 8002e36:	3710      	adds	r7, #16
 8002e38:	46bd      	mov	sp, r7
 8002e3a:	bd80      	pop	{r7, pc}

08002e3c <ucg_dev_default_cb>:
  this should be (finally) called by any other device callback to handle
  messages, which are not yet handled.
*/

ucg_int_t ucg_dev_default_cb(ucg_t *ucg, ucg_int_t msg, void *data)
{
 8002e3c:	b580      	push	{r7, lr}
 8002e3e:	b084      	sub	sp, #16
 8002e40:	af00      	add	r7, sp, #0
 8002e42:	60f8      	str	r0, [r7, #12]
 8002e44:	460b      	mov	r3, r1
 8002e46:	607a      	str	r2, [r7, #4]
 8002e48:	817b      	strh	r3, [r7, #10]
  switch(msg)
 8002e4a:	f9b7 300a 	ldrsh.w	r3, [r7, #10]
 8002e4e:	2b0c      	cmp	r3, #12
 8002e50:	d00a      	beq.n	8002e68 <ucg_dev_default_cb+0x2c>
 8002e52:	2b17      	cmp	r3, #23
 8002e54:	d10f      	bne.n	8002e76 <ucg_dev_default_cb+0x3a>
  {
    case UCG_MSG_DRAW_L90SE:
      return ucg->ext_cb(ucg, msg, data);
 8002e56:	68fb      	ldr	r3, [r7, #12]
 8002e58:	68db      	ldr	r3, [r3, #12]
 8002e5a:	f9b7 100a 	ldrsh.w	r1, [r7, #10]
 8002e5e:	687a      	ldr	r2, [r7, #4]
 8002e60:	68f8      	ldr	r0, [r7, #12]
 8002e62:	4798      	blx	r3
 8002e64:	4603      	mov	r3, r0
 8002e66:	e007      	b.n	8002e78 <ucg_dev_default_cb+0x3c>
    case UCG_MSG_SET_CLIP_BOX:
      ucg->clip_box = *(ucg_box_t *)data;
 8002e68:	68fb      	ldr	r3, [r7, #12]
 8002e6a:	687a      	ldr	r2, [r7, #4]
 8002e6c:	3370      	adds	r3, #112	@ 0x70
 8002e6e:	6810      	ldr	r0, [r2, #0]
 8002e70:	6851      	ldr	r1, [r2, #4]
 8002e72:	c303      	stmia	r3!, {r0, r1}
      break;
 8002e74:	bf00      	nop
  }
  return 1;	/* all ok */
 8002e76:	2301      	movs	r3, #1
}
 8002e78:	4618      	mov	r0, r3
 8002e7a:	3710      	adds	r7, #16
 8002e7c:	46bd      	mov	sp, r7
 8002e7e:	bd80      	pop	{r7, pc}

08002e80 <ucg_ext_none>:

/*
  will be used as default cb if no extentions callback is provided
*/
ucg_int_t ucg_ext_none(ucg_t *ucg, ucg_int_t msg, void *data)
{
 8002e80:	b480      	push	{r7}
 8002e82:	b085      	sub	sp, #20
 8002e84:	af00      	add	r7, sp, #0
 8002e86:	60f8      	str	r0, [r7, #12]
 8002e88:	460b      	mov	r3, r1
 8002e8a:	607a      	str	r2, [r7, #4]
 8002e8c:	817b      	strh	r3, [r7, #10]
  return 1;	/* all ok */  
 8002e8e:	2301      	movs	r3, #1
}
 8002e90:	4618      	mov	r0, r3
 8002e92:	3714      	adds	r7, #20
 8002e94:	46bd      	mov	sp, r7
 8002e96:	f85d 7b04 	ldr.w	r7, [sp], #4
 8002e9a:	4770      	bx	lr

08002e9c <ucg_handle_st7735_l90fx>:
  UCG_DATA(),								/* change to data mode */
  UCG_END()
};

ucg_int_t ucg_handle_st7735_l90fx(ucg_t *ucg)
{
 8002e9c:	b590      	push	{r4, r7, lr}
 8002e9e:	b085      	sub	sp, #20
 8002ea0:	af00      	add	r7, sp, #0
 8002ea2:	6078      	str	r0, [r7, #4]
  uint8_t c[3];
  ucg_int_t tmp;
  if ( ucg_clip_l90fx(ucg) != 0 )
 8002ea4:	6878      	ldr	r0, [r7, #4]
 8002ea6:	f7ff fb5b 	bl	8002560 <ucg_clip_l90fx>
 8002eaa:	4603      	mov	r3, r0
 8002eac:	2b00      	cmp	r3, #0
 8002eae:	d056      	beq.n	8002f5e <ucg_handle_st7735_l90fx+0xc2>
  {
    switch(ucg->arg.dir)
 8002eb0:	687b      	ldr	r3, [r7, #4]
 8002eb2:	f9b3 302e 	ldrsh.w	r3, [r3, #46]	@ 0x2e
 8002eb6:	2b02      	cmp	r3, #2
 8002eb8:	d010      	beq.n	8002edc <ucg_handle_st7735_l90fx+0x40>
 8002eba:	2b02      	cmp	r3, #2
 8002ebc:	dc20      	bgt.n	8002f00 <ucg_handle_st7735_l90fx+0x64>
 8002ebe:	2b00      	cmp	r3, #0
 8002ec0:	d002      	beq.n	8002ec8 <ucg_handle_st7735_l90fx+0x2c>
 8002ec2:	2b01      	cmp	r3, #1
 8002ec4:	d005      	beq.n	8002ed2 <ucg_handle_st7735_l90fx+0x36>
 8002ec6:	e01b      	b.n	8002f00 <ucg_handle_st7735_l90fx+0x64>
    {
      case 0: 
	ucg_com_SendCmdSeq(ucg, ucg_st7735_set_pos_dir0_seq);	
 8002ec8:	4927      	ldr	r1, [pc, #156]	@ (8002f68 <ucg_handle_st7735_l90fx+0xcc>)
 8002eca:	6878      	ldr	r0, [r7, #4]
 8002ecc:	f7ff fe78 	bl	8002bc0 <ucg_com_SendCmdSeq>
	break;
 8002ed0:	e028      	b.n	8002f24 <ucg_handle_st7735_l90fx+0x88>
      case 1: 
	ucg_com_SendCmdSeq(ucg, ucg_st7735_set_pos_dir1_seq);	
 8002ed2:	4926      	ldr	r1, [pc, #152]	@ (8002f6c <ucg_handle_st7735_l90fx+0xd0>)
 8002ed4:	6878      	ldr	r0, [r7, #4]
 8002ed6:	f7ff fe73 	bl	8002bc0 <ucg_com_SendCmdSeq>
	break;
 8002eda:	e023      	b.n	8002f24 <ucg_handle_st7735_l90fx+0x88>
      case 2: 
	tmp = ucg->arg.pixel.pos.x;
 8002edc:	687b      	ldr	r3, [r7, #4]
 8002ede:	8c9b      	ldrh	r3, [r3, #36]	@ 0x24
 8002ee0:	81fb      	strh	r3, [r7, #14]
	ucg->arg.pixel.pos.x = 127-tmp;
 8002ee2:	89fb      	ldrh	r3, [r7, #14]
 8002ee4:	f1c3 037f 	rsb	r3, r3, #127	@ 0x7f
 8002ee8:	b29b      	uxth	r3, r3
 8002eea:	b21a      	sxth	r2, r3
 8002eec:	687b      	ldr	r3, [r7, #4]
 8002eee:	849a      	strh	r2, [r3, #36]	@ 0x24
	ucg_com_SendCmdSeq(ucg, ucg_st7735_set_pos_dir2_seq);	
 8002ef0:	491f      	ldr	r1, [pc, #124]	@ (8002f70 <ucg_handle_st7735_l90fx+0xd4>)
 8002ef2:	6878      	ldr	r0, [r7, #4]
 8002ef4:	f7ff fe64 	bl	8002bc0 <ucg_com_SendCmdSeq>
	ucg->arg.pixel.pos.x = tmp;
 8002ef8:	687b      	ldr	r3, [r7, #4]
 8002efa:	89fa      	ldrh	r2, [r7, #14]
 8002efc:	849a      	strh	r2, [r3, #36]	@ 0x24
	break;
 8002efe:	e011      	b.n	8002f24 <ucg_handle_st7735_l90fx+0x88>
      case 3: 
      default: 
	tmp = ucg->arg.pixel.pos.y;
 8002f00:	687b      	ldr	r3, [r7, #4]
 8002f02:	8cdb      	ldrh	r3, [r3, #38]	@ 0x26
 8002f04:	81fb      	strh	r3, [r7, #14]
	ucg->arg.pixel.pos.y = 127-tmp;
 8002f06:	89fb      	ldrh	r3, [r7, #14]
 8002f08:	f1c3 037f 	rsb	r3, r3, #127	@ 0x7f
 8002f0c:	b29b      	uxth	r3, r3
 8002f0e:	b21a      	sxth	r2, r3
 8002f10:	687b      	ldr	r3, [r7, #4]
 8002f12:	84da      	strh	r2, [r3, #38]	@ 0x26
	ucg_com_SendCmdSeq(ucg, ucg_st7735_set_pos_dir3_seq);	
 8002f14:	4917      	ldr	r1, [pc, #92]	@ (8002f74 <ucg_handle_st7735_l90fx+0xd8>)
 8002f16:	6878      	ldr	r0, [r7, #4]
 8002f18:	f7ff fe52 	bl	8002bc0 <ucg_com_SendCmdSeq>
	ucg->arg.pixel.pos.y = tmp;
 8002f1c:	687b      	ldr	r3, [r7, #4]
 8002f1e:	89fa      	ldrh	r2, [r7, #14]
 8002f20:	84da      	strh	r2, [r3, #38]	@ 0x26
	break;
 8002f22:	bf00      	nop
    }
    c[0] = ucg->arg.pixel.rgb.color[0];
 8002f24:	687b      	ldr	r3, [r7, #4]
 8002f26:	f893 3028 	ldrb.w	r3, [r3, #40]	@ 0x28
 8002f2a:	723b      	strb	r3, [r7, #8]
    c[1] = ucg->arg.pixel.rgb.color[1];
 8002f2c:	687b      	ldr	r3, [r7, #4]
 8002f2e:	f893 3029 	ldrb.w	r3, [r3, #41]	@ 0x29
 8002f32:	727b      	strb	r3, [r7, #9]
    c[2] = ucg->arg.pixel.rgb.color[2];
 8002f34:	687b      	ldr	r3, [r7, #4]
 8002f36:	f893 302a 	ldrb.w	r3, [r3, #42]	@ 0x2a
 8002f3a:	72bb      	strb	r3, [r7, #10]
    ucg_com_SendRepeat3Bytes(ucg, ucg->arg.len, c);
 8002f3c:	687b      	ldr	r3, [r7, #4]
 8002f3e:	69dc      	ldr	r4, [r3, #28]
 8002f40:	687b      	ldr	r3, [r7, #4]
 8002f42:	f9b3 302c 	ldrsh.w	r3, [r3, #44]	@ 0x2c
 8002f46:	b29a      	uxth	r2, r3
 8002f48:	f107 0308 	add.w	r3, r7, #8
 8002f4c:	2113      	movs	r1, #19
 8002f4e:	6878      	ldr	r0, [r7, #4]
 8002f50:	47a0      	blx	r4
    ucg_com_SetCSLineStatus(ucg, 1);		/* disable chip */
 8002f52:	2101      	movs	r1, #1
 8002f54:	6878      	ldr	r0, [r7, #4]
 8002f56:	f7ff fd7d 	bl	8002a54 <ucg_com_SetCSLineStatus>
    return 1;
 8002f5a:	2301      	movs	r3, #1
 8002f5c:	e000      	b.n	8002f60 <ucg_handle_st7735_l90fx+0xc4>
  }
  return 0;
 8002f5e:	2300      	movs	r3, #0
}
 8002f60:	4618      	mov	r0, r3
 8002f62:	3714      	adds	r7, #20
 8002f64:	46bd      	mov	sp, r7
 8002f66:	bd90      	pop	{r4, r7, pc}
 8002f68:	08005b90 	.word	0x08005b90
 8002f6c:	08005bb0 	.word	0x08005bb0
 8002f70:	08005bd4 	.word	0x08005bd4
 8002f74:	08005bf8 	.word	0x08005bf8

08002f78 <ucg_handle_st7735_l90se>:
  return 0;
}


ucg_int_t ucg_handle_st7735_l90se(ucg_t *ucg)
{
 8002f78:	b590      	push	{r4, r7, lr}
 8002f7a:	b087      	sub	sp, #28
 8002f7c:	af00      	add	r7, sp, #0
 8002f7e:	6078      	str	r0, [r7, #4]
  uint8_t c[3];
  ucg_int_t tmp;
  
  /* Setup ccs for l90se. This will be updated by ucg_clip_l90se if required */
  
  for ( i = 0; i < 3; i++ )
 8002f80:	2300      	movs	r3, #0
 8002f82:	75fb      	strb	r3, [r7, #23]
 8002f84:	e01a      	b.n	8002fbc <ucg_handle_st7735_l90se+0x44>
  {
    ucg_ccs_init(ucg->arg.ccs_line+i, ucg->arg.rgb[0].color[i], ucg->arg.rgb[1].color[i], ucg->arg.len);
 8002f86:	687b      	ldr	r3, [r7, #4]
 8002f88:	f103 0146 	add.w	r1, r3, #70	@ 0x46
 8002f8c:	7dfa      	ldrb	r2, [r7, #23]
 8002f8e:	4613      	mov	r3, r2
 8002f90:	00db      	lsls	r3, r3, #3
 8002f92:	1a9b      	subs	r3, r3, r2
 8002f94:	005b      	lsls	r3, r3, #1
 8002f96:	18c8      	adds	r0, r1, r3
 8002f98:	7dfb      	ldrb	r3, [r7, #23]
 8002f9a:	687a      	ldr	r2, [r7, #4]
 8002f9c:	4413      	add	r3, r2
 8002f9e:	f893 103a 	ldrb.w	r1, [r3, #58]	@ 0x3a
 8002fa2:	7dfb      	ldrb	r3, [r7, #23]
 8002fa4:	687a      	ldr	r2, [r7, #4]
 8002fa6:	4413      	add	r3, r2
 8002fa8:	f893 203d 	ldrb.w	r2, [r3, #61]	@ 0x3d
 8002fac:	687b      	ldr	r3, [r7, #4]
 8002fae:	f9b3 302c 	ldrsh.w	r3, [r3, #44]	@ 0x2c
 8002fb2:	f7ff f932 	bl	800221a <ucg_ccs_init>
  for ( i = 0; i < 3; i++ )
 8002fb6:	7dfb      	ldrb	r3, [r7, #23]
 8002fb8:	3301      	adds	r3, #1
 8002fba:	75fb      	strb	r3, [r7, #23]
 8002fbc:	7dfb      	ldrb	r3, [r7, #23]
 8002fbe:	2b02      	cmp	r3, #2
 8002fc0:	d9e1      	bls.n	8002f86 <ucg_handle_st7735_l90se+0xe>
  }
  
  /* check if the line is visible */
  
  if ( ucg_clip_l90se(ucg) != 0 )
 8002fc2:	6878      	ldr	r0, [r7, #4]
 8002fc4:	f7ff fc4c 	bl	8002860 <ucg_clip_l90se>
 8002fc8:	4603      	mov	r3, r0
 8002fca:	2b00      	cmp	r3, #0
 8002fcc:	d074      	beq.n	80030b8 <ucg_handle_st7735_l90se+0x140>
  {
    ucg_int_t i;
    switch(ucg->arg.dir)
 8002fce:	687b      	ldr	r3, [r7, #4]
 8002fd0:	f9b3 302e 	ldrsh.w	r3, [r3, #46]	@ 0x2e
 8002fd4:	2b02      	cmp	r3, #2
 8002fd6:	d010      	beq.n	8002ffa <ucg_handle_st7735_l90se+0x82>
 8002fd8:	2b02      	cmp	r3, #2
 8002fda:	dc20      	bgt.n	800301e <ucg_handle_st7735_l90se+0xa6>
 8002fdc:	2b00      	cmp	r3, #0
 8002fde:	d002      	beq.n	8002fe6 <ucg_handle_st7735_l90se+0x6e>
 8002fe0:	2b01      	cmp	r3, #1
 8002fe2:	d005      	beq.n	8002ff0 <ucg_handle_st7735_l90se+0x78>
 8002fe4:	e01b      	b.n	800301e <ucg_handle_st7735_l90se+0xa6>
    {
      case 0: 
	ucg_com_SendCmdSeq(ucg, ucg_st7735_set_pos_dir0_seq);	
 8002fe6:	4937      	ldr	r1, [pc, #220]	@ (80030c4 <ucg_handle_st7735_l90se+0x14c>)
 8002fe8:	6878      	ldr	r0, [r7, #4]
 8002fea:	f7ff fde9 	bl	8002bc0 <ucg_com_SendCmdSeq>
	break;
 8002fee:	e028      	b.n	8003042 <ucg_handle_st7735_l90se+0xca>
      case 1: 
	ucg_com_SendCmdSeq(ucg, ucg_st7735_set_pos_dir1_seq);	
 8002ff0:	4935      	ldr	r1, [pc, #212]	@ (80030c8 <ucg_handle_st7735_l90se+0x150>)
 8002ff2:	6878      	ldr	r0, [r7, #4]
 8002ff4:	f7ff fde4 	bl	8002bc0 <ucg_com_SendCmdSeq>
	break;
 8002ff8:	e023      	b.n	8003042 <ucg_handle_st7735_l90se+0xca>
      case 2: 
	tmp = ucg->arg.pixel.pos.x;
 8002ffa:	687b      	ldr	r3, [r7, #4]
 8002ffc:	8c9b      	ldrh	r3, [r3, #36]	@ 0x24
 8002ffe:	827b      	strh	r3, [r7, #18]
	ucg->arg.pixel.pos.x = 127-tmp;
 8003000:	8a7b      	ldrh	r3, [r7, #18]
 8003002:	f1c3 037f 	rsb	r3, r3, #127	@ 0x7f
 8003006:	b29b      	uxth	r3, r3
 8003008:	b21a      	sxth	r2, r3
 800300a:	687b      	ldr	r3, [r7, #4]
 800300c:	849a      	strh	r2, [r3, #36]	@ 0x24
	ucg_com_SendCmdSeq(ucg, ucg_st7735_set_pos_dir2_seq);	
 800300e:	492f      	ldr	r1, [pc, #188]	@ (80030cc <ucg_handle_st7735_l90se+0x154>)
 8003010:	6878      	ldr	r0, [r7, #4]
 8003012:	f7ff fdd5 	bl	8002bc0 <ucg_com_SendCmdSeq>
	ucg->arg.pixel.pos.x = tmp;
 8003016:	687b      	ldr	r3, [r7, #4]
 8003018:	8a7a      	ldrh	r2, [r7, #18]
 800301a:	849a      	strh	r2, [r3, #36]	@ 0x24
	break;
 800301c:	e011      	b.n	8003042 <ucg_handle_st7735_l90se+0xca>
      case 3: 
      default: 
	tmp = ucg->arg.pixel.pos.y;
 800301e:	687b      	ldr	r3, [r7, #4]
 8003020:	8cdb      	ldrh	r3, [r3, #38]	@ 0x26
 8003022:	827b      	strh	r3, [r7, #18]
	ucg->arg.pixel.pos.y = 127-tmp;
 8003024:	8a7b      	ldrh	r3, [r7, #18]
 8003026:	f1c3 037f 	rsb	r3, r3, #127	@ 0x7f
 800302a:	b29b      	uxth	r3, r3
 800302c:	b21a      	sxth	r2, r3
 800302e:	687b      	ldr	r3, [r7, #4]
 8003030:	84da      	strh	r2, [r3, #38]	@ 0x26
	ucg_com_SendCmdSeq(ucg, ucg_st7735_set_pos_dir3_seq);	
 8003032:	4927      	ldr	r1, [pc, #156]	@ (80030d0 <ucg_handle_st7735_l90se+0x158>)
 8003034:	6878      	ldr	r0, [r7, #4]
 8003036:	f7ff fdc3 	bl	8002bc0 <ucg_com_SendCmdSeq>
	ucg->arg.pixel.pos.y = tmp;
 800303a:	687b      	ldr	r3, [r7, #4]
 800303c:	8a7a      	ldrh	r2, [r7, #18]
 800303e:	84da      	strh	r2, [r3, #38]	@ 0x26
	break;
 8003040:	bf00      	nop
    }
    
    for( i = 0; i < ucg->arg.len; i++ )
 8003042:	2300      	movs	r3, #0
 8003044:	82bb      	strh	r3, [r7, #20]
 8003046:	e02a      	b.n	800309e <ucg_handle_st7735_l90se+0x126>
    {
      c[0] = ucg->arg.ccs_line[0].current;
 8003048:	687b      	ldr	r3, [r7, #4]
 800304a:	f893 3046 	ldrb.w	r3, [r3, #70]	@ 0x46
 800304e:	733b      	strb	r3, [r7, #12]
      c[1] = ucg->arg.ccs_line[1].current; 
 8003050:	687b      	ldr	r3, [r7, #4]
 8003052:	f893 3054 	ldrb.w	r3, [r3, #84]	@ 0x54
 8003056:	737b      	strb	r3, [r7, #13]
      c[2] = ucg->arg.ccs_line[2].current;
 8003058:	687b      	ldr	r3, [r7, #4]
 800305a:	f893 3062 	ldrb.w	r3, [r3, #98]	@ 0x62
 800305e:	73bb      	strb	r3, [r7, #14]
      ucg_com_SendRepeat3Bytes(ucg, 1, c);
 8003060:	687b      	ldr	r3, [r7, #4]
 8003062:	69dc      	ldr	r4, [r3, #28]
 8003064:	f107 030c 	add.w	r3, r7, #12
 8003068:	2201      	movs	r2, #1
 800306a:	2113      	movs	r1, #19
 800306c:	6878      	ldr	r0, [r7, #4]
 800306e:	47a0      	blx	r4
      ucg_ccs_step(ucg->arg.ccs_line+0);
 8003070:	687b      	ldr	r3, [r7, #4]
 8003072:	3346      	adds	r3, #70	@ 0x46
 8003074:	4618      	mov	r0, r3
 8003076:	f7ff f930 	bl	80022da <ucg_ccs_step>
      ucg_ccs_step(ucg->arg.ccs_line+1);
 800307a:	687b      	ldr	r3, [r7, #4]
 800307c:	3346      	adds	r3, #70	@ 0x46
 800307e:	330e      	adds	r3, #14
 8003080:	4618      	mov	r0, r3
 8003082:	f7ff f92a 	bl	80022da <ucg_ccs_step>
      ucg_ccs_step(ucg->arg.ccs_line+2);
 8003086:	687b      	ldr	r3, [r7, #4]
 8003088:	3346      	adds	r3, #70	@ 0x46
 800308a:	331c      	adds	r3, #28
 800308c:	4618      	mov	r0, r3
 800308e:	f7ff f924 	bl	80022da <ucg_ccs_step>
    for( i = 0; i < ucg->arg.len; i++ )
 8003092:	f9b7 3014 	ldrsh.w	r3, [r7, #20]
 8003096:	b29b      	uxth	r3, r3
 8003098:	3301      	adds	r3, #1
 800309a:	b29b      	uxth	r3, r3
 800309c:	82bb      	strh	r3, [r7, #20]
 800309e:	687b      	ldr	r3, [r7, #4]
 80030a0:	f9b3 302c 	ldrsh.w	r3, [r3, #44]	@ 0x2c
 80030a4:	f9b7 2014 	ldrsh.w	r2, [r7, #20]
 80030a8:	429a      	cmp	r2, r3
 80030aa:	dbcd      	blt.n	8003048 <ucg_handle_st7735_l90se+0xd0>
    }
    ucg_com_SetCSLineStatus(ucg, 1);		/* disable chip */
 80030ac:	2101      	movs	r1, #1
 80030ae:	6878      	ldr	r0, [r7, #4]
 80030b0:	f7ff fcd0 	bl	8002a54 <ucg_com_SetCSLineStatus>
    return 1;
 80030b4:	2301      	movs	r3, #1
 80030b6:	e000      	b.n	80030ba <ucg_handle_st7735_l90se+0x142>
  }
  return 0;
 80030b8:	2300      	movs	r3, #0
}
 80030ba:	4618      	mov	r0, r3
 80030bc:	371c      	adds	r7, #28
 80030be:	46bd      	mov	sp, r7
 80030c0:	bd90      	pop	{r4, r7, pc}
 80030c2:	bf00      	nop
 80030c4:	08005b90 	.word	0x08005b90
 80030c8:	08005bb0 	.word	0x08005bb0
 80030cc:	08005bd4 	.word	0x08005bd4
 80030d0:	08005bf8 	.word	0x08005bf8

080030d4 <ucg_dev_ic_st7735_18>:
	UCG_CS(1),					/* disable chip */
	UCG_END(),					/* end of sequence */
};

ucg_int_t ucg_dev_ic_st7735_18(ucg_t *ucg, ucg_int_t msg, void *data)
{
 80030d4:	b590      	push	{r4, r7, lr}
 80030d6:	b087      	sub	sp, #28
 80030d8:	af00      	add	r7, sp, #0
 80030da:	60f8      	str	r0, [r7, #12]
 80030dc:	460b      	mov	r3, r1
 80030de:	607a      	str	r2, [r7, #4]
 80030e0:	817b      	strh	r3, [r7, #10]
  switch(msg)
 80030e2:	f9b7 300a 	ldrsh.w	r3, [r7, #10]
 80030e6:	3b0a      	subs	r3, #10
 80030e8:	2b0b      	cmp	r3, #11
 80030ea:	d85f      	bhi.n	80031ac <ucg_dev_ic_st7735_18+0xd8>
 80030ec:	a201      	add	r2, pc, #4	@ (adr r2, 80030f4 <ucg_dev_ic_st7735_18+0x20>)
 80030ee:	f852 f023 	ldr.w	pc, [r2, r3, lsl #2]
 80030f2:	bf00      	nop
 80030f4:	08003125 	.word	0x08003125
 80030f8:	0800313f 	.word	0x0800313f
 80030fc:	080031ad 	.word	0x080031ad
 8003100:	080031ad 	.word	0x080031ad
 8003104:	080031ad 	.word	0x080031ad
 8003108:	0800314b 	.word	0x0800314b
 800310c:	080031ad 	.word	0x080031ad
 8003110:	080031ad 	.word	0x080031ad
 8003114:	080031ad 	.word	0x080031ad
 8003118:	080031ad 	.word	0x080031ad
 800311c:	0800315b 	.word	0x0800315b
 8003120:	080031a3 	.word	0x080031a3
  {
    case UCG_MSG_DEV_POWER_UP:
      /* setup com interface and provide information on the clock speed */
      /* of the serial and parallel interface. Values are nanoseconds. */
	  ucg->display_offset.x = 2;
 8003124:	68fb      	ldr	r3, [r7, #12]
 8003126:	2202      	movs	r2, #2
 8003128:	841a      	strh	r2, [r3, #32]
	  ucg->display_offset.y = 1;
 800312a:	68fb      	ldr	r3, [r7, #12]
 800312c:	2201      	movs	r2, #1
 800312e:	845a      	strh	r2, [r3, #34]	@ 0x22
      return ucg_com_PowerUp(ucg, 100, 66);
 8003130:	2242      	movs	r2, #66	@ 0x42
 8003132:	2164      	movs	r1, #100	@ 0x64
 8003134:	68f8      	ldr	r0, [r7, #12]
 8003136:	f7ff fbdc 	bl	80028f2 <ucg_com_PowerUp>
 800313a:	4603      	mov	r3, r0
 800313c:	e03e      	b.n	80031bc <ucg_dev_ic_st7735_18+0xe8>
    case UCG_MSG_DEV_POWER_DOWN:
      ucg_com_SendCmdSeq(ucg, ucg_st7735_power_down_seq);
 800313e:	4921      	ldr	r1, [pc, #132]	@ (80031c4 <ucg_dev_ic_st7735_18+0xf0>)
 8003140:	68f8      	ldr	r0, [r7, #12]
 8003142:	f7ff fd3d 	bl	8002bc0 <ucg_com_SendCmdSeq>
      return 1;
 8003146:	2301      	movs	r3, #1
 8003148:	e038      	b.n	80031bc <ucg_dev_ic_st7735_18+0xe8>
    case UCG_MSG_GET_DIMENSION:
      ((ucg_wh_t *)data)->w = 128;
 800314a:	687b      	ldr	r3, [r7, #4]
 800314c:	2280      	movs	r2, #128	@ 0x80
 800314e:	801a      	strh	r2, [r3, #0]
      ((ucg_wh_t *)data)->h = 128;
 8003150:	687b      	ldr	r3, [r7, #4]
 8003152:	2280      	movs	r2, #128	@ 0x80
 8003154:	805a      	strh	r2, [r3, #2]
      return 1;
 8003156:	2301      	movs	r3, #1
 8003158:	e030      	b.n	80031bc <ucg_dev_ic_st7735_18+0xe8>
    case UCG_MSG_DRAW_PIXEL:
      if ( ucg_clip_is_pixel_visible(ucg) !=0 )
 800315a:	68f8      	ldr	r0, [r7, #12]
 800315c:	f7ff f9e6 	bl	800252c <ucg_clip_is_pixel_visible>
 8003160:	4603      	mov	r3, r0
 8003162:	2b00      	cmp	r3, #0
 8003164:	d01b      	beq.n	800319e <ucg_dev_ic_st7735_18+0xca>
      {
	uint8_t c[3];
	ucg_com_SendCmdSeq(ucg, ucg_st7735_set_pos_seq);	
 8003166:	4918      	ldr	r1, [pc, #96]	@ (80031c8 <ucg_dev_ic_st7735_18+0xf4>)
 8003168:	68f8      	ldr	r0, [r7, #12]
 800316a:	f7ff fd29 	bl	8002bc0 <ucg_com_SendCmdSeq>
	c[0] = ucg->arg.pixel.rgb.color[0];
 800316e:	68fb      	ldr	r3, [r7, #12]
 8003170:	f893 3028 	ldrb.w	r3, [r3, #40]	@ 0x28
 8003174:	753b      	strb	r3, [r7, #20]
	c[1] = ucg->arg.pixel.rgb.color[1];
 8003176:	68fb      	ldr	r3, [r7, #12]
 8003178:	f893 3029 	ldrb.w	r3, [r3, #41]	@ 0x29
 800317c:	757b      	strb	r3, [r7, #21]
	c[2] = ucg->arg.pixel.rgb.color[2];
 800317e:	68fb      	ldr	r3, [r7, #12]
 8003180:	f893 302a 	ldrb.w	r3, [r3, #42]	@ 0x2a
 8003184:	75bb      	strb	r3, [r7, #22]
	ucg_com_SendRepeat3Bytes(ucg, 1, c);
 8003186:	68fb      	ldr	r3, [r7, #12]
 8003188:	69dc      	ldr	r4, [r3, #28]
 800318a:	f107 0314 	add.w	r3, r7, #20
 800318e:	2201      	movs	r2, #1
 8003190:	2113      	movs	r1, #19
 8003192:	68f8      	ldr	r0, [r7, #12]
 8003194:	47a0      	blx	r4
	ucg_com_SetCSLineStatus(ucg, 1);		/* disable chip */
 8003196:	2101      	movs	r1, #1
 8003198:	68f8      	ldr	r0, [r7, #12]
 800319a:	f7ff fc5b 	bl	8002a54 <ucg_com_SetCSLineStatus>
      }
      return 1;
 800319e:	2301      	movs	r3, #1
 80031a0:	e00c      	b.n	80031bc <ucg_dev_ic_st7735_18+0xe8>
    case UCG_MSG_DRAW_L90FX:
      //ucg_handle_l90fx(ucg, ucg_dev_ic_st7735_18);
      ucg_handle_st7735_l90fx(ucg);
 80031a2:	68f8      	ldr	r0, [r7, #12]
 80031a4:	f7ff fe7a 	bl	8002e9c <ucg_handle_st7735_l90fx>
      return 1;
 80031a8:	2301      	movs	r3, #1
 80031aa:	e007      	b.n	80031bc <ucg_dev_ic_st7735_18+0xe8>
    /*
    case UCG_MSG_DRAW_L90SE:
      return ucg->ext_cb(ucg, msg, data);
    */
  }
  return ucg_dev_default_cb(ucg, msg, data);  
 80031ac:	f9b7 300a 	ldrsh.w	r3, [r7, #10]
 80031b0:	687a      	ldr	r2, [r7, #4]
 80031b2:	4619      	mov	r1, r3
 80031b4:	68f8      	ldr	r0, [r7, #12]
 80031b6:	f7ff fe41 	bl	8002e3c <ucg_dev_default_cb>
 80031ba:	4603      	mov	r3, r0
}
 80031bc:	4618      	mov	r0, r3
 80031be:	371c      	adds	r7, #28
 80031c0:	46bd      	mov	sp, r7
 80031c2:	bd90      	pop	{r4, r7, pc}
 80031c4:	08005c1c 	.word	0x08005c1c
 80031c8:	08005b70 	.word	0x08005b70

080031cc <ucg_ext_st7735_18>:

ucg_int_t ucg_ext_st7735_18(ucg_t *ucg, ucg_int_t msg, void *data)
{
 80031cc:	b580      	push	{r7, lr}
 80031ce:	b084      	sub	sp, #16
 80031d0:	af00      	add	r7, sp, #0
 80031d2:	60f8      	str	r0, [r7, #12]
 80031d4:	460b      	mov	r3, r1
 80031d6:	607a      	str	r2, [r7, #4]
 80031d8:	817b      	strh	r3, [r7, #10]
  switch(msg)
 80031da:	f9b7 300a 	ldrsh.w	r3, [r7, #10]
 80031de:	2b17      	cmp	r3, #23
 80031e0:	d103      	bne.n	80031ea <ucg_ext_st7735_18+0x1e>
  {
    case UCG_MSG_DRAW_L90SE:
      //ucg_handle_l90se(ucg, ucg_dev_ic_st7735_18);
      ucg_handle_st7735_l90se(ucg);
 80031e2:	68f8      	ldr	r0, [r7, #12]
 80031e4:	f7ff fec8 	bl	8002f78 <ucg_handle_st7735_l90se>
      break;
 80031e8:	bf00      	nop
  }
  return 1;
 80031ea:	2301      	movs	r3, #1
}
 80031ec:	4618      	mov	r0, r3
 80031ee:	3710      	adds	r7, #16
 80031f0:	46bd      	mov	sp, r7
 80031f2:	bd80      	pop	{r7, pc}

080031f4 <ucg_PowerDown>:

#include "ucg.h"
#include <stddef.h>

void ucg_PowerDown(ucg_t *ucg)
{
 80031f4:	b580      	push	{r7, lr}
 80031f6:	b082      	sub	sp, #8
 80031f8:	af00      	add	r7, sp, #0
 80031fa:	6078      	str	r0, [r7, #4]
  if ( ucg->is_power_up != 0 )
 80031fc:	687b      	ldr	r3, [r7, #4]
 80031fe:	781b      	ldrb	r3, [r3, #0]
 8003200:	f003 0301 	and.w	r3, r3, #1
 8003204:	b2db      	uxtb	r3, r3
 8003206:	2b00      	cmp	r3, #0
 8003208:	d00a      	beq.n	8003220 <ucg_PowerDown+0x2c>
  {
    ucg->device_cb(ucg, UCG_MSG_DEV_POWER_DOWN, NULL);
 800320a:	687b      	ldr	r3, [r7, #4]
 800320c:	689b      	ldr	r3, [r3, #8]
 800320e:	2200      	movs	r2, #0
 8003210:	210b      	movs	r1, #11
 8003212:	6878      	ldr	r0, [r7, #4]
 8003214:	4798      	blx	r3
    ucg->is_power_up = 0;
 8003216:	687a      	ldr	r2, [r7, #4]
 8003218:	7813      	ldrb	r3, [r2, #0]
 800321a:	f36f 0300 	bfc	r3, #0, #1
 800321e:	7013      	strb	r3, [r2, #0]
  }
}
 8003220:	bf00      	nop
 8003222:	3708      	adds	r7, #8
 8003224:	46bd      	mov	sp, r7
 8003226:	bd80      	pop	{r7, pc}

08003228 <ucg_PowerUp>:

ucg_int_t ucg_PowerUp(ucg_t *ucg)
{
 8003228:	b580      	push	{r7, lr}
 800322a:	b084      	sub	sp, #16
 800322c:	af00      	add	r7, sp, #0
 800322e:	6078      	str	r0, [r7, #4]
  ucg_int_t r;
  /* power down first. will do nothing if power is already down */
  ucg_PowerDown(ucg);
 8003230:	6878      	ldr	r0, [r7, #4]
 8003232:	f7ff ffdf 	bl	80031f4 <ucg_PowerDown>
  /* now try to power up the display */
  r = ucg->device_cb(ucg, UCG_MSG_DEV_POWER_UP, NULL);
 8003236:	687b      	ldr	r3, [r7, #4]
 8003238:	689b      	ldr	r3, [r3, #8]
 800323a:	2200      	movs	r2, #0
 800323c:	210a      	movs	r1, #10
 800323e:	6878      	ldr	r0, [r7, #4]
 8003240:	4798      	blx	r3
 8003242:	4603      	mov	r3, r0
 8003244:	81fb      	strh	r3, [r7, #14]
  if ( r != 0 )
 8003246:	f9b7 300e 	ldrsh.w	r3, [r7, #14]
 800324a:	2b00      	cmp	r3, #0
 800324c:	d004      	beq.n	8003258 <ucg_PowerUp+0x30>
  {
    ucg->is_power_up = 1;
 800324e:	687a      	ldr	r2, [r7, #4]
 8003250:	7813      	ldrb	r3, [r2, #0]
 8003252:	f043 0301 	orr.w	r3, r3, #1
 8003256:	7013      	strb	r3, [r2, #0]
  }
  return r;
 8003258:	f9b7 300e 	ldrsh.w	r3, [r7, #14]
}
 800325c:	4618      	mov	r0, r3
 800325e:	3710      	adds	r7, #16
 8003260:	46bd      	mov	sp, r7
 8003262:	bd80      	pop	{r7, pc}

08003264 <ucg_SetClipBox>:

void ucg_SetClipBox(ucg_t *ucg, ucg_box_t *clip_box)
{
 8003264:	b580      	push	{r7, lr}
 8003266:	b082      	sub	sp, #8
 8003268:	af00      	add	r7, sp, #0
 800326a:	6078      	str	r0, [r7, #4]
 800326c:	6039      	str	r1, [r7, #0]
  ucg->device_cb(ucg, UCG_MSG_SET_CLIP_BOX, (void *)(clip_box));
 800326e:	687b      	ldr	r3, [r7, #4]
 8003270:	689b      	ldr	r3, [r3, #8]
 8003272:	683a      	ldr	r2, [r7, #0]
 8003274:	210c      	movs	r1, #12
 8003276:	6878      	ldr	r0, [r7, #4]
 8003278:	4798      	blx	r3
}
 800327a:	bf00      	nop
 800327c:	3708      	adds	r7, #8
 800327e:	46bd      	mov	sp, r7
 8003280:	bd80      	pop	{r7, pc}

08003282 <ucg_SetMaxClipRange>:
  clip_box.size.h = h;
  ucg_SetClipBox(ucg, &clip_box);
}

void ucg_SetMaxClipRange(ucg_t *ucg)
{
 8003282:	b580      	push	{r7, lr}
 8003284:	b084      	sub	sp, #16
 8003286:	af00      	add	r7, sp, #0
 8003288:	6078      	str	r0, [r7, #4]
  ucg_box_t new_clip_box;
  new_clip_box.size = ucg->dimension;
 800328a:	687a      	ldr	r2, [r7, #4]
 800328c:	f107 030c 	add.w	r3, r7, #12
 8003290:	3202      	adds	r2, #2
 8003292:	6810      	ldr	r0, [r2, #0]
 8003294:	6018      	str	r0, [r3, #0]
  new_clip_box.ul.x = 0;
 8003296:	2300      	movs	r3, #0
 8003298:	813b      	strh	r3, [r7, #8]
  new_clip_box.ul.y = 0;
 800329a:	2300      	movs	r3, #0
 800329c:	817b      	strh	r3, [r7, #10]
  ucg_SetClipBox(ucg, &new_clip_box);
 800329e:	f107 0308 	add.w	r3, r7, #8
 80032a2:	4619      	mov	r1, r3
 80032a4:	6878      	ldr	r0, [r7, #4]
 80032a6:	f7ff ffdd 	bl	8003264 <ucg_SetClipBox>
}
 80032aa:	bf00      	nop
 80032ac:	3710      	adds	r7, #16
 80032ae:	46bd      	mov	sp, r7
 80032b0:	bd80      	pop	{r7, pc}

080032b2 <ucg_GetDimension>:
/* 
  Query the display dimension from the driver, reset clip window to maximum 
  new dimension
*/
void ucg_GetDimension(ucg_t *ucg)
{
 80032b2:	b580      	push	{r7, lr}
 80032b4:	b082      	sub	sp, #8
 80032b6:	af00      	add	r7, sp, #0
 80032b8:	6078      	str	r0, [r7, #4]
  ucg->device_cb(ucg, UCG_MSG_GET_DIMENSION, &(ucg->dimension));
 80032ba:	687b      	ldr	r3, [r7, #4]
 80032bc:	689b      	ldr	r3, [r3, #8]
 80032be:	687a      	ldr	r2, [r7, #4]
 80032c0:	3202      	adds	r2, #2
 80032c2:	210f      	movs	r1, #15
 80032c4:	6878      	ldr	r0, [r7, #4]
 80032c6:	4798      	blx	r3
  ucg_SetMaxClipRange(ucg);
 80032c8:	6878      	ldr	r0, [r7, #4]
 80032ca:	f7ff ffda 	bl	8003282 <ucg_SetMaxClipRange>
}
 80032ce:	bf00      	nop
 80032d0:	3708      	adds	r7, #8
 80032d2:	46bd      	mov	sp, r7
 80032d4:	bd80      	pop	{r7, pc}

080032d6 <ucg_DrawL90FXWithArg>:
{
  ucg->device_cb(ucg, UCG_MSG_DRAW_PIXEL, NULL);
}

void ucg_DrawL90FXWithArg(ucg_t *ucg)
{
 80032d6:	b580      	push	{r7, lr}
 80032d8:	b082      	sub	sp, #8
 80032da:	af00      	add	r7, sp, #0
 80032dc:	6078      	str	r0, [r7, #4]
  ucg->device_cb(ucg, UCG_MSG_DRAW_L90FX, &(ucg->arg));
 80032de:	687b      	ldr	r3, [r7, #4]
 80032e0:	689b      	ldr	r3, [r3, #8]
 80032e2:	687a      	ldr	r2, [r7, #4]
 80032e4:	3224      	adds	r2, #36	@ 0x24
 80032e6:	2115      	movs	r1, #21
 80032e8:	6878      	ldr	r0, [r7, #4]
 80032ea:	4798      	blx	r3
}
 80032ec:	bf00      	nop
 80032ee:	3708      	adds	r7, #8
 80032f0:	46bd      	mov	sp, r7
 80032f2:	bd80      	pop	{r7, pc}

080032f4 <ucg_dev_st7735_18x128x128>:
  UCG_CS(1),					/* disable chip */
  UCG_END(),					/* end of sequence */
};

ucg_int_t ucg_dev_st7735_18x128x128(ucg_t *ucg, ucg_int_t msg, void *data)
{
 80032f4:	b580      	push	{r7, lr}
 80032f6:	b084      	sub	sp, #16
 80032f8:	af00      	add	r7, sp, #0
 80032fa:	60f8      	str	r0, [r7, #12]
 80032fc:	460b      	mov	r3, r1
 80032fe:	607a      	str	r2, [r7, #4]
 8003300:	817b      	strh	r3, [r7, #10]
  switch(msg)
 8003302:	f9b7 300a 	ldrsh.w	r3, [r7, #10]
 8003306:	2b0f      	cmp	r3, #15
 8003308:	d021      	beq.n	800334e <ucg_dev_st7735_18x128x128+0x5a>
 800330a:	2b0f      	cmp	r3, #15
 800330c:	dc27      	bgt.n	800335e <ucg_dev_st7735_18x128x128+0x6a>
 800330e:	2b0a      	cmp	r3, #10
 8003310:	d002      	beq.n	8003318 <ucg_dev_st7735_18x128x128+0x24>
 8003312:	2b0b      	cmp	r3, #11
 8003314:	d012      	beq.n	800333c <ucg_dev_st7735_18x128x128+0x48>
 8003316:	e022      	b.n	800335e <ucg_dev_st7735_18x128x128+0x6a>
  {
    case UCG_MSG_DEV_POWER_UP:
      /* 1. Call to the controller procedures to setup the com interface */
      if ( ucg_dev_ic_st7735_18(ucg, msg, data) == 0 )
 8003318:	f9b7 300a 	ldrsh.w	r3, [r7, #10]
 800331c:	687a      	ldr	r2, [r7, #4]
 800331e:	4619      	mov	r1, r3
 8003320:	68f8      	ldr	r0, [r7, #12]
 8003322:	f7ff fed7 	bl	80030d4 <ucg_dev_ic_st7735_18>
 8003326:	4603      	mov	r3, r0
 8003328:	2b00      	cmp	r3, #0
 800332a:	d101      	bne.n	8003330 <ucg_dev_st7735_18x128x128+0x3c>
	return 0;
 800332c:	2300      	movs	r3, #0
 800332e:	e01e      	b.n	800336e <ucg_dev_st7735_18x128x128+0x7a>

      /* 2. Send specific init sequence for this display module */
      ucg_com_SendCmdSeq(ucg, ucg_tft_128x160_st7735_init_seq);
 8003330:	4911      	ldr	r1, [pc, #68]	@ (8003378 <ucg_dev_st7735_18x128x128+0x84>)
 8003332:	68f8      	ldr	r0, [r7, #12]
 8003334:	f7ff fc44 	bl	8002bc0 <ucg_com_SendCmdSeq>
      
      return 1;
 8003338:	2301      	movs	r3, #1
 800333a:	e018      	b.n	800336e <ucg_dev_st7735_18x128x128+0x7a>
      
    case UCG_MSG_DEV_POWER_DOWN:
      /* let do power down by the conroller procedures */
      return ucg_dev_ic_st7735_18(ucg, msg, data);  
 800333c:	f9b7 300a 	ldrsh.w	r3, [r7, #10]
 8003340:	687a      	ldr	r2, [r7, #4]
 8003342:	4619      	mov	r1, r3
 8003344:	68f8      	ldr	r0, [r7, #12]
 8003346:	f7ff fec5 	bl	80030d4 <ucg_dev_ic_st7735_18>
 800334a:	4603      	mov	r3, r0
 800334c:	e00f      	b.n	800336e <ucg_dev_st7735_18x128x128+0x7a>
    
    case UCG_MSG_GET_DIMENSION:
      ((ucg_wh_t *)data)->w = 128;
 800334e:	687b      	ldr	r3, [r7, #4]
 8003350:	2280      	movs	r2, #128	@ 0x80
 8003352:	801a      	strh	r2, [r3, #0]
      ((ucg_wh_t *)data)->h = 128;
 8003354:	687b      	ldr	r3, [r7, #4]
 8003356:	2280      	movs	r2, #128	@ 0x80
 8003358:	805a      	strh	r2, [r3, #2]
      return 1;
 800335a:	2301      	movs	r3, #1
 800335c:	e007      	b.n	800336e <ucg_dev_st7735_18x128x128+0x7a>
  }
  
  /* all other messages are handled by the controller procedures */
  return ucg_dev_ic_st7735_18(ucg, msg, data);  
 800335e:	f9b7 300a 	ldrsh.w	r3, [r7, #10]
 8003362:	687a      	ldr	r2, [r7, #4]
 8003364:	4619      	mov	r1, r3
 8003366:	68f8      	ldr	r0, [r7, #12]
 8003368:	f7ff feb4 	bl	80030d4 <ucg_dev_ic_st7735_18>
 800336c:	4603      	mov	r3, r0
}
 800336e:	4618      	mov	r0, r3
 8003370:	3710      	adds	r7, #16
 8003372:	46bd      	mov	sp, r7
 8003374:	bd80      	pop	{r7, pc}
 8003376:	bf00      	nop
 8003378:	08005c24 	.word	0x08005c24

0800337c <ucg_font_get_byte>:
/* low level byte and word access */

/* removed NOINLINE, because it leads to smaller code, might also be faster */
//static uint8_t ucg_font_get_byte(const ucg_fntpgm_uint8_t *font, uint8_t offset) UCG_NOINLINE;
static uint8_t ucg_font_get_byte(const ucg_fntpgm_uint8_t *font, uint8_t offset)
{
 800337c:	b480      	push	{r7}
 800337e:	b083      	sub	sp, #12
 8003380:	af00      	add	r7, sp, #0
 8003382:	6078      	str	r0, [r7, #4]
 8003384:	460b      	mov	r3, r1
 8003386:	70fb      	strb	r3, [r7, #3]
  font += offset;
 8003388:	78fb      	ldrb	r3, [r7, #3]
 800338a:	687a      	ldr	r2, [r7, #4]
 800338c:	4413      	add	r3, r2
 800338e:	607b      	str	r3, [r7, #4]
  return ucg_pgm_read( (ucg_pgm_uint8_t *)font );  
 8003390:	687b      	ldr	r3, [r7, #4]
 8003392:	781b      	ldrb	r3, [r3, #0]
}
 8003394:	4618      	mov	r0, r3
 8003396:	370c      	adds	r7, #12
 8003398:	46bd      	mov	sp, r7
 800339a:	f85d 7b04 	ldr.w	r7, [sp], #4
 800339e:	4770      	bx	lr

080033a0 <ucg_font_get_word>:

static uint16_t ucg_font_get_word(const ucg_fntpgm_uint8_t *font, uint8_t offset) UCG_NOINLINE; 
static uint16_t ucg_font_get_word(const ucg_fntpgm_uint8_t *font, uint8_t offset)
{
 80033a0:	b480      	push	{r7}
 80033a2:	b085      	sub	sp, #20
 80033a4:	af00      	add	r7, sp, #0
 80033a6:	6078      	str	r0, [r7, #4]
 80033a8:	460b      	mov	r3, r1
 80033aa:	70fb      	strb	r3, [r7, #3]
    uint16_t pos;
    font += offset;
 80033ac:	78fb      	ldrb	r3, [r7, #3]
 80033ae:	687a      	ldr	r2, [r7, #4]
 80033b0:	4413      	add	r3, r2
 80033b2:	607b      	str	r3, [r7, #4]
    pos = ucg_pgm_read( (ucg_pgm_uint8_t *)font );
 80033b4:	687b      	ldr	r3, [r7, #4]
 80033b6:	781b      	ldrb	r3, [r3, #0]
 80033b8:	81fb      	strh	r3, [r7, #14]
    font++;
 80033ba:	687b      	ldr	r3, [r7, #4]
 80033bc:	3301      	adds	r3, #1
 80033be:	607b      	str	r3, [r7, #4]
    pos <<= 8;
 80033c0:	89fb      	ldrh	r3, [r7, #14]
 80033c2:	021b      	lsls	r3, r3, #8
 80033c4:	81fb      	strh	r3, [r7, #14]
    pos += ucg_pgm_read( (ucg_pgm_uint8_t *)font);
 80033c6:	687b      	ldr	r3, [r7, #4]
 80033c8:	781b      	ldrb	r3, [r3, #0]
 80033ca:	461a      	mov	r2, r3
 80033cc:	89fb      	ldrh	r3, [r7, #14]
 80033ce:	4413      	add	r3, r2
 80033d0:	81fb      	strh	r3, [r7, #14]
    return pos;
 80033d2:	89fb      	ldrh	r3, [r7, #14]
}
 80033d4:	4618      	mov	r0, r3
 80033d6:	3714      	adds	r7, #20
 80033d8:	46bd      	mov	sp, r7
 80033da:	f85d 7b04 	ldr.w	r7, [sp], #4
 80033de:	4770      	bx	lr

080033e0 <ucg_read_font_info>:

/*========================================================================*/
/* new font format */
void ucg_read_font_info(ucg_font_info_t *font_info, const ucg_fntpgm_uint8_t *font)
{
 80033e0:	b580      	push	{r7, lr}
 80033e2:	b082      	sub	sp, #8
 80033e4:	af00      	add	r7, sp, #0
 80033e6:	6078      	str	r0, [r7, #4]
 80033e8:	6039      	str	r1, [r7, #0]
  /* offset 0 */
  font_info->glyph_cnt = ucg_font_get_byte(font, 0);
 80033ea:	2100      	movs	r1, #0
 80033ec:	6838      	ldr	r0, [r7, #0]
 80033ee:	f7ff ffc5 	bl	800337c <ucg_font_get_byte>
 80033f2:	4603      	mov	r3, r0
 80033f4:	461a      	mov	r2, r3
 80033f6:	687b      	ldr	r3, [r7, #4]
 80033f8:	701a      	strb	r2, [r3, #0]
  font_info->bbx_mode = ucg_font_get_byte(font, 1);
 80033fa:	2101      	movs	r1, #1
 80033fc:	6838      	ldr	r0, [r7, #0]
 80033fe:	f7ff ffbd 	bl	800337c <ucg_font_get_byte>
 8003402:	4603      	mov	r3, r0
 8003404:	461a      	mov	r2, r3
 8003406:	687b      	ldr	r3, [r7, #4]
 8003408:	705a      	strb	r2, [r3, #1]
  font_info->bits_per_0 = ucg_font_get_byte(font, 2);
 800340a:	2102      	movs	r1, #2
 800340c:	6838      	ldr	r0, [r7, #0]
 800340e:	f7ff ffb5 	bl	800337c <ucg_font_get_byte>
 8003412:	4603      	mov	r3, r0
 8003414:	461a      	mov	r2, r3
 8003416:	687b      	ldr	r3, [r7, #4]
 8003418:	709a      	strb	r2, [r3, #2]
  font_info->bits_per_1 = ucg_font_get_byte(font, 3);
 800341a:	2103      	movs	r1, #3
 800341c:	6838      	ldr	r0, [r7, #0]
 800341e:	f7ff ffad 	bl	800337c <ucg_font_get_byte>
 8003422:	4603      	mov	r3, r0
 8003424:	461a      	mov	r2, r3
 8003426:	687b      	ldr	r3, [r7, #4]
 8003428:	70da      	strb	r2, [r3, #3]
  
  /* offset 4 */
  font_info->bits_per_char_width = ucg_font_get_byte(font, 4);
 800342a:	2104      	movs	r1, #4
 800342c:	6838      	ldr	r0, [r7, #0]
 800342e:	f7ff ffa5 	bl	800337c <ucg_font_get_byte>
 8003432:	4603      	mov	r3, r0
 8003434:	461a      	mov	r2, r3
 8003436:	687b      	ldr	r3, [r7, #4]
 8003438:	711a      	strb	r2, [r3, #4]
  font_info->bits_per_char_height = ucg_font_get_byte(font, 5);
 800343a:	2105      	movs	r1, #5
 800343c:	6838      	ldr	r0, [r7, #0]
 800343e:	f7ff ff9d 	bl	800337c <ucg_font_get_byte>
 8003442:	4603      	mov	r3, r0
 8003444:	461a      	mov	r2, r3
 8003446:	687b      	ldr	r3, [r7, #4]
 8003448:	715a      	strb	r2, [r3, #5]
  font_info->bits_per_char_x = ucg_font_get_byte(font, 6);
 800344a:	2106      	movs	r1, #6
 800344c:	6838      	ldr	r0, [r7, #0]
 800344e:	f7ff ff95 	bl	800337c <ucg_font_get_byte>
 8003452:	4603      	mov	r3, r0
 8003454:	461a      	mov	r2, r3
 8003456:	687b      	ldr	r3, [r7, #4]
 8003458:	719a      	strb	r2, [r3, #6]
  font_info->bits_per_char_y = ucg_font_get_byte(font, 7);
 800345a:	2107      	movs	r1, #7
 800345c:	6838      	ldr	r0, [r7, #0]
 800345e:	f7ff ff8d 	bl	800337c <ucg_font_get_byte>
 8003462:	4603      	mov	r3, r0
 8003464:	461a      	mov	r2, r3
 8003466:	687b      	ldr	r3, [r7, #4]
 8003468:	71da      	strb	r2, [r3, #7]
  font_info->bits_per_delta_x = ucg_font_get_byte(font, 8);
 800346a:	2108      	movs	r1, #8
 800346c:	6838      	ldr	r0, [r7, #0]
 800346e:	f7ff ff85 	bl	800337c <ucg_font_get_byte>
 8003472:	4603      	mov	r3, r0
 8003474:	461a      	mov	r2, r3
 8003476:	687b      	ldr	r3, [r7, #4]
 8003478:	721a      	strb	r2, [r3, #8]
  
  /* offset 9 */
  font_info->max_char_width = ucg_font_get_byte(font, 9);
 800347a:	2109      	movs	r1, #9
 800347c:	6838      	ldr	r0, [r7, #0]
 800347e:	f7ff ff7d 	bl	800337c <ucg_font_get_byte>
 8003482:	4603      	mov	r3, r0
 8003484:	b25a      	sxtb	r2, r3
 8003486:	687b      	ldr	r3, [r7, #4]
 8003488:	725a      	strb	r2, [r3, #9]
  font_info->max_char_height = ucg_font_get_byte(font, 10);
 800348a:	210a      	movs	r1, #10
 800348c:	6838      	ldr	r0, [r7, #0]
 800348e:	f7ff ff75 	bl	800337c <ucg_font_get_byte>
 8003492:	4603      	mov	r3, r0
 8003494:	b25a      	sxtb	r2, r3
 8003496:	687b      	ldr	r3, [r7, #4]
 8003498:	729a      	strb	r2, [r3, #10]
  font_info->x_offset = ucg_font_get_byte(font, 11);
 800349a:	210b      	movs	r1, #11
 800349c:	6838      	ldr	r0, [r7, #0]
 800349e:	f7ff ff6d 	bl	800337c <ucg_font_get_byte>
 80034a2:	4603      	mov	r3, r0
 80034a4:	b25a      	sxtb	r2, r3
 80034a6:	687b      	ldr	r3, [r7, #4]
 80034a8:	72da      	strb	r2, [r3, #11]
  font_info->y_offset = ucg_font_get_byte(font, 12);
 80034aa:	210c      	movs	r1, #12
 80034ac:	6838      	ldr	r0, [r7, #0]
 80034ae:	f7ff ff65 	bl	800337c <ucg_font_get_byte>
 80034b2:	4603      	mov	r3, r0
 80034b4:	b25a      	sxtb	r2, r3
 80034b6:	687b      	ldr	r3, [r7, #4]
 80034b8:	731a      	strb	r2, [r3, #12]
  
  /* offset 13 */
  font_info->ascent_A = ucg_font_get_byte(font, 13);
 80034ba:	210d      	movs	r1, #13
 80034bc:	6838      	ldr	r0, [r7, #0]
 80034be:	f7ff ff5d 	bl	800337c <ucg_font_get_byte>
 80034c2:	4603      	mov	r3, r0
 80034c4:	b25a      	sxtb	r2, r3
 80034c6:	687b      	ldr	r3, [r7, #4]
 80034c8:	735a      	strb	r2, [r3, #13]
  font_info->descent_g = ucg_font_get_byte(font, 14);
 80034ca:	210e      	movs	r1, #14
 80034cc:	6838      	ldr	r0, [r7, #0]
 80034ce:	f7ff ff55 	bl	800337c <ucg_font_get_byte>
 80034d2:	4603      	mov	r3, r0
 80034d4:	b25a      	sxtb	r2, r3
 80034d6:	687b      	ldr	r3, [r7, #4]
 80034d8:	739a      	strb	r2, [r3, #14]
  font_info->ascent_para = ucg_font_get_byte(font, 15);
 80034da:	210f      	movs	r1, #15
 80034dc:	6838      	ldr	r0, [r7, #0]
 80034de:	f7ff ff4d 	bl	800337c <ucg_font_get_byte>
 80034e2:	4603      	mov	r3, r0
 80034e4:	b25a      	sxtb	r2, r3
 80034e6:	687b      	ldr	r3, [r7, #4]
 80034e8:	73da      	strb	r2, [r3, #15]
  font_info->descent_para = ucg_font_get_byte(font, 16);
 80034ea:	2110      	movs	r1, #16
 80034ec:	6838      	ldr	r0, [r7, #0]
 80034ee:	f7ff ff45 	bl	800337c <ucg_font_get_byte>
 80034f2:	4603      	mov	r3, r0
 80034f4:	b25a      	sxtb	r2, r3
 80034f6:	687b      	ldr	r3, [r7, #4]
 80034f8:	741a      	strb	r2, [r3, #16]
  
  /* offset 17 */
  font_info->start_pos_upper_A = ucg_font_get_word(font, 17);
 80034fa:	2111      	movs	r1, #17
 80034fc:	6838      	ldr	r0, [r7, #0]
 80034fe:	f7ff ff4f 	bl	80033a0 <ucg_font_get_word>
 8003502:	4603      	mov	r3, r0
 8003504:	461a      	mov	r2, r3
 8003506:	687b      	ldr	r3, [r7, #4]
 8003508:	825a      	strh	r2, [r3, #18]
  font_info->start_pos_lower_a = ucg_font_get_word(font, 19);  
 800350a:	2113      	movs	r1, #19
 800350c:	6838      	ldr	r0, [r7, #0]
 800350e:	f7ff ff47 	bl	80033a0 <ucg_font_get_word>
 8003512:	4603      	mov	r3, r0
 8003514:	461a      	mov	r2, r3
 8003516:	687b      	ldr	r3, [r7, #4]
 8003518:	829a      	strh	r2, [r3, #20]
}
 800351a:	bf00      	nop
 800351c:	3708      	adds	r7, #8
 800351e:	46bd      	mov	sp, r7
 8003520:	bd80      	pop	{r7, pc}

08003522 <ucg_font_decode_get_unsigned_bits>:
/*========================================================================*/
/* glyph handling */

/* optimized */
uint8_t ucg_font_decode_get_unsigned_bits(ucg_font_decode_t *f, uint8_t cnt) 
{
 8003522:	b480      	push	{r7}
 8003524:	b085      	sub	sp, #20
 8003526:	af00      	add	r7, sp, #0
 8003528:	6078      	str	r0, [r7, #4]
 800352a:	460b      	mov	r3, r1
 800352c:	70fb      	strb	r3, [r7, #3]
  uint8_t val;
  uint8_t bit_pos = f->decode_bit_pos;
 800352e:	687b      	ldr	r3, [r7, #4]
 8003530:	7b1b      	ldrb	r3, [r3, #12]
 8003532:	737b      	strb	r3, [r7, #13]
  uint8_t bit_pos_plus_cnt;
  
  //val = *(f->decode_ptr);
  val = ucg_pgm_read( (ucg_pgm_uint8_t *)(f->decode_ptr) );  
 8003534:	687b      	ldr	r3, [r7, #4]
 8003536:	681b      	ldr	r3, [r3, #0]
 8003538:	781b      	ldrb	r3, [r3, #0]
 800353a:	73fb      	strb	r3, [r7, #15]
  
  val >>= bit_pos;
 800353c:	7bfa      	ldrb	r2, [r7, #15]
 800353e:	7b7b      	ldrb	r3, [r7, #13]
 8003540:	fa42 f303 	asr.w	r3, r2, r3
 8003544:	73fb      	strb	r3, [r7, #15]
  bit_pos_plus_cnt = bit_pos;
 8003546:	7b7b      	ldrb	r3, [r7, #13]
 8003548:	73bb      	strb	r3, [r7, #14]
  bit_pos_plus_cnt += cnt;
 800354a:	7bba      	ldrb	r2, [r7, #14]
 800354c:	78fb      	ldrb	r3, [r7, #3]
 800354e:	4413      	add	r3, r2
 8003550:	73bb      	strb	r3, [r7, #14]
  if ( bit_pos_plus_cnt >= 8 )
 8003552:	7bbb      	ldrb	r3, [r7, #14]
 8003554:	2b07      	cmp	r3, #7
 8003556:	d91a      	bls.n	800358e <ucg_font_decode_get_unsigned_bits+0x6c>
  {
    uint8_t s = 8;
 8003558:	2308      	movs	r3, #8
 800355a:	733b      	strb	r3, [r7, #12]
    s -= bit_pos;
 800355c:	7b3a      	ldrb	r2, [r7, #12]
 800355e:	7b7b      	ldrb	r3, [r7, #13]
 8003560:	1ad3      	subs	r3, r2, r3
 8003562:	733b      	strb	r3, [r7, #12]
    f->decode_ptr++;
 8003564:	687b      	ldr	r3, [r7, #4]
 8003566:	681b      	ldr	r3, [r3, #0]
 8003568:	1c5a      	adds	r2, r3, #1
 800356a:	687b      	ldr	r3, [r7, #4]
 800356c:	601a      	str	r2, [r3, #0]
    //val |= *(f->decode_ptr) << (8-bit_pos);
    val |= ucg_pgm_read( (ucg_pgm_uint8_t *)(f->decode_ptr) ) << (s);
 800356e:	687b      	ldr	r3, [r7, #4]
 8003570:	681b      	ldr	r3, [r3, #0]
 8003572:	781b      	ldrb	r3, [r3, #0]
 8003574:	461a      	mov	r2, r3
 8003576:	7b3b      	ldrb	r3, [r7, #12]
 8003578:	fa02 f303 	lsl.w	r3, r2, r3
 800357c:	b25a      	sxtb	r2, r3
 800357e:	f997 300f 	ldrsb.w	r3, [r7, #15]
 8003582:	4313      	orrs	r3, r2
 8003584:	b25b      	sxtb	r3, r3
 8003586:	73fb      	strb	r3, [r7, #15]
    //bit_pos -= 8;
    bit_pos_plus_cnt -= 8;
 8003588:	7bbb      	ldrb	r3, [r7, #14]
 800358a:	3b08      	subs	r3, #8
 800358c:	73bb      	strb	r3, [r7, #14]
  }
  val &= (1U<<cnt)-1;
 800358e:	78fb      	ldrb	r3, [r7, #3]
 8003590:	f04f 32ff 	mov.w	r2, #4294967295
 8003594:	fa02 f303 	lsl.w	r3, r2, r3
 8003598:	b2db      	uxtb	r3, r3
 800359a:	43db      	mvns	r3, r3
 800359c:	b2da      	uxtb	r2, r3
 800359e:	7bfb      	ldrb	r3, [r7, #15]
 80035a0:	4013      	ands	r3, r2
 80035a2:	73fb      	strb	r3, [r7, #15]
  //bit_pos += cnt;
  
  f->decode_bit_pos = bit_pos_plus_cnt;
 80035a4:	687b      	ldr	r3, [r7, #4]
 80035a6:	7bba      	ldrb	r2, [r7, #14]
 80035a8:	731a      	strb	r2, [r3, #12]
  return val;
 80035aa:	7bfb      	ldrb	r3, [r7, #15]
}
 80035ac:	4618      	mov	r0, r3
 80035ae:	3714      	adds	r7, #20
 80035b0:	46bd      	mov	sp, r7
 80035b2:	f85d 7b04 	ldr.w	r7, [sp], #4
 80035b6:	4770      	bx	lr

080035b8 <ucg_font_decode_get_signed_bits>:
	r = bits(x)+1;

*/
/* optimized */
int8_t ucg_font_decode_get_signed_bits(ucg_font_decode_t *f, uint8_t cnt)
{
 80035b8:	b580      	push	{r7, lr}
 80035ba:	b084      	sub	sp, #16
 80035bc:	af00      	add	r7, sp, #0
 80035be:	6078      	str	r0, [r7, #4]
 80035c0:	460b      	mov	r3, r1
 80035c2:	70fb      	strb	r3, [r7, #3]
  int8_t v, d;
  v = (int8_t)ucg_font_decode_get_unsigned_bits(f, cnt);
 80035c4:	78fb      	ldrb	r3, [r7, #3]
 80035c6:	4619      	mov	r1, r3
 80035c8:	6878      	ldr	r0, [r7, #4]
 80035ca:	f7ff ffaa 	bl	8003522 <ucg_font_decode_get_unsigned_bits>
 80035ce:	4603      	mov	r3, r0
 80035d0:	73fb      	strb	r3, [r7, #15]
  d = 1;
 80035d2:	2301      	movs	r3, #1
 80035d4:	73bb      	strb	r3, [r7, #14]
  cnt--;
 80035d6:	78fb      	ldrb	r3, [r7, #3]
 80035d8:	3b01      	subs	r3, #1
 80035da:	70fb      	strb	r3, [r7, #3]
  d <<= cnt;
 80035dc:	f997 200e 	ldrsb.w	r2, [r7, #14]
 80035e0:	78fb      	ldrb	r3, [r7, #3]
 80035e2:	fa02 f303 	lsl.w	r3, r2, r3
 80035e6:	73bb      	strb	r3, [r7, #14]
  v -= d;
 80035e8:	7bfa      	ldrb	r2, [r7, #15]
 80035ea:	7bbb      	ldrb	r3, [r7, #14]
 80035ec:	1ad3      	subs	r3, r2, r3
 80035ee:	b2db      	uxtb	r3, r3
 80035f0:	73fb      	strb	r3, [r7, #15]
  return v;
 80035f2:	f997 300f 	ldrsb.w	r3, [r7, #15]
  //return (int8_t)ucg_font_decode_get_unsigned_bits(f, cnt) - ((1<<cnt)>>1);
}
 80035f6:	4618      	mov	r0, r3
 80035f8:	3710      	adds	r7, #16
 80035fa:	46bd      	mov	sp, r7
 80035fc:	bd80      	pop	{r7, pc}

080035fe <ucg_add_vector_y>:
}
*/

static ucg_int_t ucg_add_vector_y(ucg_int_t dy, int8_t x, int8_t y, uint8_t dir) UCG_NOINLINE;
static ucg_int_t ucg_add_vector_y(ucg_int_t dy, int8_t x, int8_t y, uint8_t dir)
{
 80035fe:	b490      	push	{r4, r7}
 8003600:	b082      	sub	sp, #8
 8003602:	af00      	add	r7, sp, #0
 8003604:	4604      	mov	r4, r0
 8003606:	4608      	mov	r0, r1
 8003608:	4611      	mov	r1, r2
 800360a:	461a      	mov	r2, r3
 800360c:	4623      	mov	r3, r4
 800360e:	80fb      	strh	r3, [r7, #6]
 8003610:	4603      	mov	r3, r0
 8003612:	717b      	strb	r3, [r7, #5]
 8003614:	460b      	mov	r3, r1
 8003616:	713b      	strb	r3, [r7, #4]
 8003618:	4613      	mov	r3, r2
 800361a:	70fb      	strb	r3, [r7, #3]
  switch(dir)
 800361c:	78fb      	ldrb	r3, [r7, #3]
 800361e:	2b02      	cmp	r3, #2
 8003620:	d016      	beq.n	8003650 <ucg_add_vector_y+0x52>
 8003622:	2b02      	cmp	r3, #2
 8003624:	dc1c      	bgt.n	8003660 <ucg_add_vector_y+0x62>
 8003626:	2b00      	cmp	r3, #0
 8003628:	d002      	beq.n	8003630 <ucg_add_vector_y+0x32>
 800362a:	2b01      	cmp	r3, #1
 800362c:	d008      	beq.n	8003640 <ucg_add_vector_y+0x42>
 800362e:	e017      	b.n	8003660 <ucg_add_vector_y+0x62>
  {
    case 0:
      dy += y;
 8003630:	f997 3004 	ldrsb.w	r3, [r7, #4]
 8003634:	b29a      	uxth	r2, r3
 8003636:	88fb      	ldrh	r3, [r7, #6]
 8003638:	4413      	add	r3, r2
 800363a:	b29b      	uxth	r3, r3
 800363c:	80fb      	strh	r3, [r7, #6]
      break;
 800363e:	e017      	b.n	8003670 <ucg_add_vector_y+0x72>
    case 1:
      dy += x;
 8003640:	f997 3005 	ldrsb.w	r3, [r7, #5]
 8003644:	b29a      	uxth	r2, r3
 8003646:	88fb      	ldrh	r3, [r7, #6]
 8003648:	4413      	add	r3, r2
 800364a:	b29b      	uxth	r3, r3
 800364c:	80fb      	strh	r3, [r7, #6]
      break;
 800364e:	e00f      	b.n	8003670 <ucg_add_vector_y+0x72>
    case 2:
      dy -= y;
 8003650:	88fa      	ldrh	r2, [r7, #6]
 8003652:	f997 3004 	ldrsb.w	r3, [r7, #4]
 8003656:	b29b      	uxth	r3, r3
 8003658:	1ad3      	subs	r3, r2, r3
 800365a:	b29b      	uxth	r3, r3
 800365c:	80fb      	strh	r3, [r7, #6]
      break;
 800365e:	e007      	b.n	8003670 <ucg_add_vector_y+0x72>
    default:
      dy -= x;
 8003660:	88fa      	ldrh	r2, [r7, #6]
 8003662:	f997 3005 	ldrsb.w	r3, [r7, #5]
 8003666:	b29b      	uxth	r3, r3
 8003668:	1ad3      	subs	r3, r2, r3
 800366a:	b29b      	uxth	r3, r3
 800366c:	80fb      	strh	r3, [r7, #6]
      break;      
 800366e:	bf00      	nop
  }
  return dy;
 8003670:	f9b7 3006 	ldrsh.w	r3, [r7, #6]
}
 8003674:	4618      	mov	r0, r3
 8003676:	3708      	adds	r7, #8
 8003678:	46bd      	mov	sp, r7
 800367a:	bc90      	pop	{r4, r7}
 800367c:	4770      	bx	lr

0800367e <ucg_add_vector_x>:

static ucg_int_t ucg_add_vector_x(ucg_int_t dx, int8_t x, int8_t y, uint8_t dir) UCG_NOINLINE;
static ucg_int_t ucg_add_vector_x(ucg_int_t dx, int8_t x, int8_t y, uint8_t dir)
{
 800367e:	b490      	push	{r4, r7}
 8003680:	b082      	sub	sp, #8
 8003682:	af00      	add	r7, sp, #0
 8003684:	4604      	mov	r4, r0
 8003686:	4608      	mov	r0, r1
 8003688:	4611      	mov	r1, r2
 800368a:	461a      	mov	r2, r3
 800368c:	4623      	mov	r3, r4
 800368e:	80fb      	strh	r3, [r7, #6]
 8003690:	4603      	mov	r3, r0
 8003692:	717b      	strb	r3, [r7, #5]
 8003694:	460b      	mov	r3, r1
 8003696:	713b      	strb	r3, [r7, #4]
 8003698:	4613      	mov	r3, r2
 800369a:	70fb      	strb	r3, [r7, #3]
  switch(dir)
 800369c:	78fb      	ldrb	r3, [r7, #3]
 800369e:	2b02      	cmp	r3, #2
 80036a0:	d016      	beq.n	80036d0 <ucg_add_vector_x+0x52>
 80036a2:	2b02      	cmp	r3, #2
 80036a4:	dc1c      	bgt.n	80036e0 <ucg_add_vector_x+0x62>
 80036a6:	2b00      	cmp	r3, #0
 80036a8:	d002      	beq.n	80036b0 <ucg_add_vector_x+0x32>
 80036aa:	2b01      	cmp	r3, #1
 80036ac:	d008      	beq.n	80036c0 <ucg_add_vector_x+0x42>
 80036ae:	e017      	b.n	80036e0 <ucg_add_vector_x+0x62>
  {
    case 0:
      dx += x;
 80036b0:	f997 3005 	ldrsb.w	r3, [r7, #5]
 80036b4:	b29a      	uxth	r2, r3
 80036b6:	88fb      	ldrh	r3, [r7, #6]
 80036b8:	4413      	add	r3, r2
 80036ba:	b29b      	uxth	r3, r3
 80036bc:	80fb      	strh	r3, [r7, #6]
      break;
 80036be:	e017      	b.n	80036f0 <ucg_add_vector_x+0x72>
    case 1:
      dx -= y;
 80036c0:	88fa      	ldrh	r2, [r7, #6]
 80036c2:	f997 3004 	ldrsb.w	r3, [r7, #4]
 80036c6:	b29b      	uxth	r3, r3
 80036c8:	1ad3      	subs	r3, r2, r3
 80036ca:	b29b      	uxth	r3, r3
 80036cc:	80fb      	strh	r3, [r7, #6]
      break;
 80036ce:	e00f      	b.n	80036f0 <ucg_add_vector_x+0x72>
    case 2:
      dx -= x;
 80036d0:	88fa      	ldrh	r2, [r7, #6]
 80036d2:	f997 3005 	ldrsb.w	r3, [r7, #5]
 80036d6:	b29b      	uxth	r3, r3
 80036d8:	1ad3      	subs	r3, r2, r3
 80036da:	b29b      	uxth	r3, r3
 80036dc:	80fb      	strh	r3, [r7, #6]
      break;
 80036de:	e007      	b.n	80036f0 <ucg_add_vector_x+0x72>
    default:
      dx += y;
 80036e0:	f997 3004 	ldrsb.w	r3, [r7, #4]
 80036e4:	b29a      	uxth	r2, r3
 80036e6:	88fb      	ldrh	r3, [r7, #6]
 80036e8:	4413      	add	r3, r2
 80036ea:	b29b      	uxth	r3, r3
 80036ec:	80fb      	strh	r3, [r7, #6]
      break;      
 80036ee:	bf00      	nop
  }
  return dx;
 80036f0:	f9b7 3006 	ldrsh.w	r3, [r7, #6]
}
 80036f4:	4618      	mov	r0, r3
 80036f6:	3708      	adds	r7, #8
 80036f8:	46bd      	mov	sp, r7
 80036fa:	bc90      	pop	{r4, r7}
 80036fc:	4770      	bx	lr

080036fe <ucg_font_decode_len>:
  Called by:
    ucg_font_decode_glyph()
*/
/* optimized */
void ucg_font_decode_len(ucg_t *ucg, uint8_t len, uint8_t is_foreground)
{
 80036fe:	b590      	push	{r4, r7, lr}
 8003700:	b089      	sub	sp, #36	@ 0x24
 8003702:	af02      	add	r7, sp, #8
 8003704:	6078      	str	r0, [r7, #4]
 8003706:	460b      	mov	r3, r1
 8003708:	70fb      	strb	r3, [r7, #3]
 800370a:	4613      	mov	r3, r2
 800370c:	70bb      	strb	r3, [r7, #2]
  uint8_t lx,ly;
  
  /* target position on the screen */
  ucg_int_t x, y;
  
  ucg_font_decode_t *decode = &(ucg->font_decode);
 800370e:	687b      	ldr	r3, [r7, #4]
 8003710:	3380      	adds	r3, #128	@ 0x80
 8003712:	613b      	str	r3, [r7, #16]
  
  cnt = len;
 8003714:	78fb      	ldrb	r3, [r7, #3]
 8003716:	75fb      	strb	r3, [r7, #23]
  
  /* get the local position */
  lx = decode->x;
 8003718:	693b      	ldr	r3, [r7, #16]
 800371a:	f993 3008 	ldrsb.w	r3, [r3, #8]
 800371e:	757b      	strb	r3, [r7, #21]
  ly = decode->y;
 8003720:	693b      	ldr	r3, [r7, #16]
 8003722:	f993 3009 	ldrsb.w	r3, [r3, #9]
 8003726:	753b      	strb	r3, [r7, #20]
  
  for(;;)
  {
    /* calculate the number of pixel to the right edge of the glyph */
    rem = decode->glyph_width;
 8003728:	693b      	ldr	r3, [r7, #16]
 800372a:	f993 300a 	ldrsb.w	r3, [r3, #10]
 800372e:	73fb      	strb	r3, [r7, #15]
    rem -= lx;
 8003730:	7bfa      	ldrb	r2, [r7, #15]
 8003732:	7d7b      	ldrb	r3, [r7, #21]
 8003734:	1ad3      	subs	r3, r2, r3
 8003736:	73fb      	strb	r3, [r7, #15]
    
    /* calculate how many pixel to draw. This is either to the right edge */
    /* or lesser, if not enough pixel are left */
    current = rem;
 8003738:	7bfb      	ldrb	r3, [r7, #15]
 800373a:	75bb      	strb	r3, [r7, #22]
    if ( cnt < rem )
 800373c:	7dfa      	ldrb	r2, [r7, #23]
 800373e:	7bfb      	ldrb	r3, [r7, #15]
 8003740:	429a      	cmp	r2, r3
 8003742:	d201      	bcs.n	8003748 <ucg_font_decode_len+0x4a>
      current = cnt;
 8003744:	7dfb      	ldrb	r3, [r7, #23]
 8003746:	75bb      	strb	r3, [r7, #22]
    
    /* now draw the line, but apply the rotation around the glyph target position */
    //ucg_font_decode_draw_pixel(ucg, lx, ly, current, is_foreground);

    /* get target position */
    x = decode->target_x;
 8003748:	693b      	ldr	r3, [r7, #16]
 800374a:	889b      	ldrh	r3, [r3, #4]
 800374c:	81bb      	strh	r3, [r7, #12]
    y = decode->target_y;
 800374e:	693b      	ldr	r3, [r7, #16]
 8003750:	88db      	ldrh	r3, [r3, #6]
 8003752:	817b      	strh	r3, [r7, #10]

    /* apply rotation */
    x = ucg_add_vector_x(x, lx, ly, decode->dir);
 8003754:	f997 1015 	ldrsb.w	r1, [r7, #21]
 8003758:	f997 2014 	ldrsb.w	r2, [r7, #20]
 800375c:	693b      	ldr	r3, [r7, #16]
 800375e:	7b9b      	ldrb	r3, [r3, #14]
 8003760:	f9b7 000c 	ldrsh.w	r0, [r7, #12]
 8003764:	f7ff ff8b 	bl	800367e <ucg_add_vector_x>
 8003768:	4603      	mov	r3, r0
 800376a:	81bb      	strh	r3, [r7, #12]
    y = ucg_add_vector_y(y, lx, ly, decode->dir);
 800376c:	f997 1015 	ldrsb.w	r1, [r7, #21]
 8003770:	f997 2014 	ldrsb.w	r2, [r7, #20]
 8003774:	693b      	ldr	r3, [r7, #16]
 8003776:	7b9b      	ldrb	r3, [r3, #14]
 8003778:	f9b7 000a 	ldrsh.w	r0, [r7, #10]
 800377c:	f7ff ff3f 	bl	80035fe <ucg_add_vector_y>
 8003780:	4603      	mov	r3, r0
 8003782:	817b      	strh	r3, [r7, #10]
    
    /* draw foreground and background (if required) */
    if ( is_foreground )
 8003784:	78bb      	ldrb	r3, [r7, #2]
 8003786:	2b00      	cmp	r3, #0
 8003788:	d010      	beq.n	80037ac <ucg_font_decode_len+0xae>
    {
      ucg_Draw90Line(ucg, x, y, current, decode->dir, 0);
 800378a:	7dbb      	ldrb	r3, [r7, #22]
 800378c:	b218      	sxth	r0, r3
 800378e:	693b      	ldr	r3, [r7, #16]
 8003790:	7b9b      	ldrb	r3, [r3, #14]
 8003792:	b21b      	sxth	r3, r3
 8003794:	f9b7 200a 	ldrsh.w	r2, [r7, #10]
 8003798:	f9b7 100c 	ldrsh.w	r1, [r7, #12]
 800379c:	2400      	movs	r4, #0
 800379e:	9401      	str	r4, [sp, #4]
 80037a0:	9300      	str	r3, [sp, #0]
 80037a2:	4603      	mov	r3, r0
 80037a4:	6878      	ldr	r0, [r7, #4]
 80037a6:	f000 fbbf 	bl	8003f28 <ucg_Draw90Line>
 80037aa:	e013      	b.n	80037d4 <ucg_font_decode_len+0xd6>
    }
    else if ( decode->is_transparent == 0 )    
 80037ac:	693b      	ldr	r3, [r7, #16]
 80037ae:	7b5b      	ldrb	r3, [r3, #13]
 80037b0:	2b00      	cmp	r3, #0
 80037b2:	d10f      	bne.n	80037d4 <ucg_font_decode_len+0xd6>
    {
      ucg_Draw90Line(ucg, x, y, current, decode->dir, 1);
 80037b4:	7dbb      	ldrb	r3, [r7, #22]
 80037b6:	b218      	sxth	r0, r3
 80037b8:	693b      	ldr	r3, [r7, #16]
 80037ba:	7b9b      	ldrb	r3, [r3, #14]
 80037bc:	b21b      	sxth	r3, r3
 80037be:	f9b7 200a 	ldrsh.w	r2, [r7, #10]
 80037c2:	f9b7 100c 	ldrsh.w	r1, [r7, #12]
 80037c6:	2401      	movs	r4, #1
 80037c8:	9401      	str	r4, [sp, #4]
 80037ca:	9300      	str	r3, [sp, #0]
 80037cc:	4603      	mov	r3, r0
 80037ce:	6878      	ldr	r0, [r7, #4]
 80037d0:	f000 fbaa 	bl	8003f28 <ucg_Draw90Line>
    }
    
    /* check, whether the end of the run length code has been reached */
    if ( cnt < rem )
 80037d4:	7dfa      	ldrb	r2, [r7, #23]
 80037d6:	7bfb      	ldrb	r3, [r7, #15]
 80037d8:	429a      	cmp	r2, r3
 80037da:	d309      	bcc.n	80037f0 <ucg_font_decode_len+0xf2>
      break;
    cnt -= rem;
 80037dc:	7dfa      	ldrb	r2, [r7, #23]
 80037de:	7bfb      	ldrb	r3, [r7, #15]
 80037e0:	1ad3      	subs	r3, r2, r3
 80037e2:	75fb      	strb	r3, [r7, #23]
    lx = 0;
 80037e4:	2300      	movs	r3, #0
 80037e6:	757b      	strb	r3, [r7, #21]
    ly++;
 80037e8:	7d3b      	ldrb	r3, [r7, #20]
 80037ea:	3301      	adds	r3, #1
 80037ec:	753b      	strb	r3, [r7, #20]
    rem = decode->glyph_width;
 80037ee:	e79b      	b.n	8003728 <ucg_font_decode_len+0x2a>
      break;
 80037f0:	bf00      	nop
  }
  //ucg_font_decode_draw_pixel(ucg, x,y, cnt, is_foreground);
  lx += cnt;
 80037f2:	7d7a      	ldrb	r2, [r7, #21]
 80037f4:	7dfb      	ldrb	r3, [r7, #23]
 80037f6:	4413      	add	r3, r2
 80037f8:	757b      	strb	r3, [r7, #21]
  
  decode->x = lx;
 80037fa:	f997 2015 	ldrsb.w	r2, [r7, #21]
 80037fe:	693b      	ldr	r3, [r7, #16]
 8003800:	721a      	strb	r2, [r3, #8]
  decode->y = ly;
 8003802:	f997 2014 	ldrsb.w	r2, [r7, #20]
 8003806:	693b      	ldr	r3, [r7, #16]
 8003808:	725a      	strb	r2, [r3, #9]
  
}
 800380a:	bf00      	nop
 800380c:	371c      	adds	r7, #28
 800380e:	46bd      	mov	sp, r7
 8003810:	bd90      	pop	{r4, r7, pc}

08003812 <ucg_font_setup_decode>:

static void ucg_font_setup_decode(ucg_t *ucg, const uint8_t *glyph_data)
{
 8003812:	b580      	push	{r7, lr}
 8003814:	b084      	sub	sp, #16
 8003816:	af00      	add	r7, sp, #0
 8003818:	6078      	str	r0, [r7, #4]
 800381a:	6039      	str	r1, [r7, #0]
  ucg_font_decode_t *decode = &(ucg->font_decode);
 800381c:	687b      	ldr	r3, [r7, #4]
 800381e:	3380      	adds	r3, #128	@ 0x80
 8003820:	60fb      	str	r3, [r7, #12]
  decode->decode_ptr = glyph_data;
 8003822:	68fb      	ldr	r3, [r7, #12]
 8003824:	683a      	ldr	r2, [r7, #0]
 8003826:	601a      	str	r2, [r3, #0]
  decode->decode_bit_pos = 0;
 8003828:	68fb      	ldr	r3, [r7, #12]
 800382a:	2200      	movs	r2, #0
 800382c:	731a      	strb	r2, [r3, #12]
  
  decode->decode_ptr += 1;
 800382e:	68fb      	ldr	r3, [r7, #12]
 8003830:	681b      	ldr	r3, [r3, #0]
 8003832:	1c5a      	adds	r2, r3, #1
 8003834:	68fb      	ldr	r3, [r7, #12]
 8003836:	601a      	str	r2, [r3, #0]
  decode->decode_ptr += 1;
 8003838:	68fb      	ldr	r3, [r7, #12]
 800383a:	681b      	ldr	r3, [r3, #0]
 800383c:	1c5a      	adds	r2, r3, #1
 800383e:	68fb      	ldr	r3, [r7, #12]
 8003840:	601a      	str	r2, [r3, #0]
  
  decode->glyph_width = ucg_font_decode_get_unsigned_bits(decode, ucg->font_info.bits_per_char_width);
 8003842:	687b      	ldr	r3, [r7, #4]
 8003844:	f893 3094 	ldrb.w	r3, [r3, #148]	@ 0x94
 8003848:	4619      	mov	r1, r3
 800384a:	68f8      	ldr	r0, [r7, #12]
 800384c:	f7ff fe69 	bl	8003522 <ucg_font_decode_get_unsigned_bits>
 8003850:	4603      	mov	r3, r0
 8003852:	b25a      	sxtb	r2, r3
 8003854:	68fb      	ldr	r3, [r7, #12]
 8003856:	729a      	strb	r2, [r3, #10]
  decode->glyph_height = ucg_font_decode_get_unsigned_bits(decode,ucg->font_info.bits_per_char_height);
 8003858:	687b      	ldr	r3, [r7, #4]
 800385a:	f893 3095 	ldrb.w	r3, [r3, #149]	@ 0x95
 800385e:	4619      	mov	r1, r3
 8003860:	68f8      	ldr	r0, [r7, #12]
 8003862:	f7ff fe5e 	bl	8003522 <ucg_font_decode_get_unsigned_bits>
 8003866:	4603      	mov	r3, r0
 8003868:	b25a      	sxtb	r2, r3
 800386a:	68fb      	ldr	r3, [r7, #12]
 800386c:	72da      	strb	r2, [r3, #11]
}
 800386e:	bf00      	nop
 8003870:	3710      	adds	r7, #16
 8003872:	46bd      	mov	sp, r7
 8003874:	bd80      	pop	{r7, pc}

08003876 <ucg_font_decode_glyph>:
    ucg_font_decode_len()
*/
/* optimized */

int8_t ucg_font_decode_glyph(ucg_t *ucg, const uint8_t *glyph_data)
{
 8003876:	b580      	push	{r7, lr}
 8003878:	b084      	sub	sp, #16
 800387a:	af00      	add	r7, sp, #0
 800387c:	6078      	str	r0, [r7, #4]
 800387e:	6039      	str	r1, [r7, #0]
  int8_t d;
  int8_t h;
//  ucg_scan = ucg;
//  decode = &(ucg_scan->font_decode);
    
  ucg_font_setup_decode(ucg, glyph_data);
 8003880:	6839      	ldr	r1, [r7, #0]
 8003882:	6878      	ldr	r0, [r7, #4]
 8003884:	f7ff ffc5 	bl	8003812 <ucg_font_setup_decode>
  h = ucg->font_decode.glyph_height;
 8003888:	687b      	ldr	r3, [r7, #4]
 800388a:	f893 308b 	ldrb.w	r3, [r3, #139]	@ 0x8b
 800388e:	73fb      	strb	r3, [r7, #15]
  
  x = ucg_font_decode_get_signed_bits(&ucg->font_decode, ucg->font_info.bits_per_char_x);
 8003890:	687b      	ldr	r3, [r7, #4]
 8003892:	f103 0280 	add.w	r2, r3, #128	@ 0x80
 8003896:	687b      	ldr	r3, [r7, #4]
 8003898:	f893 3096 	ldrb.w	r3, [r3, #150]	@ 0x96
 800389c:	4619      	mov	r1, r3
 800389e:	4610      	mov	r0, r2
 80038a0:	f7ff fe8a 	bl	80035b8 <ucg_font_decode_get_signed_bits>
 80038a4:	4603      	mov	r3, r0
 80038a6:	73bb      	strb	r3, [r7, #14]
  y = ucg_font_decode_get_signed_bits(&ucg->font_decode, ucg->font_info.bits_per_char_y);
 80038a8:	687b      	ldr	r3, [r7, #4]
 80038aa:	f103 0280 	add.w	r2, r3, #128	@ 0x80
 80038ae:	687b      	ldr	r3, [r7, #4]
 80038b0:	f893 3097 	ldrb.w	r3, [r3, #151]	@ 0x97
 80038b4:	4619      	mov	r1, r3
 80038b6:	4610      	mov	r0, r2
 80038b8:	f7ff fe7e 	bl	80035b8 <ucg_font_decode_get_signed_bits>
 80038bc:	4603      	mov	r3, r0
 80038be:	737b      	strb	r3, [r7, #13]
  d = ucg_font_decode_get_signed_bits(&ucg->font_decode, ucg->font_info.bits_per_delta_x);
 80038c0:	687b      	ldr	r3, [r7, #4]
 80038c2:	f103 0280 	add.w	r2, r3, #128	@ 0x80
 80038c6:	687b      	ldr	r3, [r7, #4]
 80038c8:	f893 3098 	ldrb.w	r3, [r3, #152]	@ 0x98
 80038cc:	4619      	mov	r1, r3
 80038ce:	4610      	mov	r0, r2
 80038d0:	f7ff fe72 	bl	80035b8 <ucg_font_decode_get_signed_bits>
 80038d4:	4603      	mov	r3, r0
 80038d6:	733b      	strb	r3, [r7, #12]
  
  if ( ucg->font_decode.glyph_width > 0 )
 80038d8:	687b      	ldr	r3, [r7, #4]
 80038da:	f993 308a 	ldrsb.w	r3, [r3, #138]	@ 0x8a
 80038de:	2b00      	cmp	r3, #0
 80038e0:	dd69      	ble.n	80039b6 <ucg_font_decode_glyph+0x140>
  {
	ucg->font_decode.target_x = ucg_add_vector_x(ucg->font_decode.target_x, x, -(h+y), ucg->font_decode.dir);
 80038e2:	687b      	ldr	r3, [r7, #4]
 80038e4:	f9b3 0084 	ldrsh.w	r0, [r3, #132]	@ 0x84
 80038e8:	7bfa      	ldrb	r2, [r7, #15]
 80038ea:	7b7b      	ldrb	r3, [r7, #13]
 80038ec:	4413      	add	r3, r2
 80038ee:	b2db      	uxtb	r3, r3
 80038f0:	425b      	negs	r3, r3
 80038f2:	b2db      	uxtb	r3, r3
 80038f4:	b25a      	sxtb	r2, r3
 80038f6:	687b      	ldr	r3, [r7, #4]
 80038f8:	f893 308e 	ldrb.w	r3, [r3, #142]	@ 0x8e
 80038fc:	f997 100e 	ldrsb.w	r1, [r7, #14]
 8003900:	f7ff febd 	bl	800367e <ucg_add_vector_x>
 8003904:	4603      	mov	r3, r0
 8003906:	461a      	mov	r2, r3
 8003908:	687b      	ldr	r3, [r7, #4]
 800390a:	f8a3 2084 	strh.w	r2, [r3, #132]	@ 0x84
	ucg->font_decode.target_y = ucg_add_vector_y(ucg->font_decode.target_y, x, -(h+y), ucg->font_decode.dir);
 800390e:	687b      	ldr	r3, [r7, #4]
 8003910:	f9b3 0086 	ldrsh.w	r0, [r3, #134]	@ 0x86
 8003914:	7bfa      	ldrb	r2, [r7, #15]
 8003916:	7b7b      	ldrb	r3, [r7, #13]
 8003918:	4413      	add	r3, r2
 800391a:	b2db      	uxtb	r3, r3
 800391c:	425b      	negs	r3, r3
 800391e:	b2db      	uxtb	r3, r3
 8003920:	b25a      	sxtb	r2, r3
 8003922:	687b      	ldr	r3, [r7, #4]
 8003924:	f893 308e 	ldrb.w	r3, [r3, #142]	@ 0x8e
 8003928:	f997 100e 	ldrsb.w	r1, [r7, #14]
 800392c:	f7ff fe67 	bl	80035fe <ucg_add_vector_y>
 8003930:	4603      	mov	r3, r0
 8003932:	461a      	mov	r2, r3
 8003934:	687b      	ldr	r3, [r7, #4]
 8003936:	f8a3 2086 	strh.w	r2, [r3, #134]	@ 0x86
    //ucg_add_vector(&(decode->target_x), &(decode->target_y), x, -(h+y), decode->dir);

    /* reset local x/y position */
	ucg->font_decode.x = 0;
 800393a:	687b      	ldr	r3, [r7, #4]
 800393c:	2200      	movs	r2, #0
 800393e:	f883 2088 	strb.w	r2, [r3, #136]	@ 0x88
	ucg->font_decode.y = 0;
 8003942:	687b      	ldr	r3, [r7, #4]
 8003944:	2200      	movs	r2, #0
 8003946:	f883 2089 	strb.w	r2, [r3, #137]	@ 0x89

    for(;;)
    {
      a = ucg_font_decode_get_unsigned_bits(&ucg->font_decode, ucg->font_info.bits_per_0);
 800394a:	687b      	ldr	r3, [r7, #4]
 800394c:	f103 0280 	add.w	r2, r3, #128	@ 0x80
 8003950:	687b      	ldr	r3, [r7, #4]
 8003952:	f893 3092 	ldrb.w	r3, [r3, #146]	@ 0x92
 8003956:	4619      	mov	r1, r3
 8003958:	4610      	mov	r0, r2
 800395a:	f7ff fde2 	bl	8003522 <ucg_font_decode_get_unsigned_bits>
 800395e:	4603      	mov	r3, r0
 8003960:	72fb      	strb	r3, [r7, #11]
      b = ucg_font_decode_get_unsigned_bits(&ucg->font_decode, ucg->font_info.bits_per_1);
 8003962:	687b      	ldr	r3, [r7, #4]
 8003964:	f103 0280 	add.w	r2, r3, #128	@ 0x80
 8003968:	687b      	ldr	r3, [r7, #4]
 800396a:	f893 3093 	ldrb.w	r3, [r3, #147]	@ 0x93
 800396e:	4619      	mov	r1, r3
 8003970:	4610      	mov	r0, r2
 8003972:	f7ff fdd6 	bl	8003522 <ucg_font_decode_get_unsigned_bits>
 8003976:	4603      	mov	r3, r0
 8003978:	72bb      	strb	r3, [r7, #10]
      do
      {
		ucg_font_decode_len(ucg, a, 0);
 800397a:	7afb      	ldrb	r3, [r7, #11]
 800397c:	2200      	movs	r2, #0
 800397e:	4619      	mov	r1, r3
 8003980:	6878      	ldr	r0, [r7, #4]
 8003982:	f7ff febc 	bl	80036fe <ucg_font_decode_len>
		ucg_font_decode_len(ucg, b, 1);
 8003986:	7abb      	ldrb	r3, [r7, #10]
 8003988:	2201      	movs	r2, #1
 800398a:	4619      	mov	r1, r3
 800398c:	6878      	ldr	r0, [r7, #4]
 800398e:	f7ff feb6 	bl	80036fe <ucg_font_decode_len>
      } while( ucg_font_decode_get_unsigned_bits(&ucg->font_decode, 1) != 0 );
 8003992:	687b      	ldr	r3, [r7, #4]
 8003994:	3380      	adds	r3, #128	@ 0x80
 8003996:	2101      	movs	r1, #1
 8003998:	4618      	mov	r0, r3
 800399a:	f7ff fdc2 	bl	8003522 <ucg_font_decode_get_unsigned_bits>
 800399e:	4603      	mov	r3, r0
 80039a0:	2b00      	cmp	r3, #0
 80039a2:	d1ea      	bne.n	800397a <ucg_font_decode_glyph+0x104>

      if ( ucg->font_decode.y >= h )
 80039a4:	687b      	ldr	r3, [r7, #4]
 80039a6:	f993 3089 	ldrsb.w	r3, [r3, #137]	@ 0x89
 80039aa:	f997 200f 	ldrsb.w	r2, [r7, #15]
 80039ae:	429a      	cmp	r2, r3
 80039b0:	dd00      	ble.n	80039b4 <ucg_font_decode_glyph+0x13e>
      a = ucg_font_decode_get_unsigned_bits(&ucg->font_decode, ucg->font_info.bits_per_0);
 80039b2:	e7ca      	b.n	800394a <ucg_font_decode_glyph+0xd4>
	    break;
 80039b4:	bf00      	nop
    }
  }
  return d;
 80039b6:	f997 300c 	ldrsb.w	r3, [r7, #12]
}
 80039ba:	4618      	mov	r0, r3
 80039bc:	3710      	adds	r7, #16
 80039be:	46bd      	mov	sp, r7
 80039c0:	bd80      	pop	{r7, pc}

080039c2 <ucg_font_get_glyph_data>:
    encoding: Encoding (ASCII code) of the glyph
  Return:
    Address of the glyph data or NULL, if the encoding is not avialable in the font.
*/
const uint8_t *ucg_font_get_glyph_data(ucg_t *ucg, uint8_t encoding)
{
 80039c2:	b480      	push	{r7}
 80039c4:	b085      	sub	sp, #20
 80039c6:	af00      	add	r7, sp, #0
 80039c8:	6078      	str	r0, [r7, #4]
 80039ca:	460b      	mov	r3, r1
 80039cc:	70fb      	strb	r3, [r7, #3]
  const uint8_t *font = ucg->font;
 80039ce:	687b      	ldr	r3, [r7, #4]
 80039d0:	6f9b      	ldr	r3, [r3, #120]	@ 0x78
 80039d2:	60fb      	str	r3, [r7, #12]
  font += UCG_FONT_DATA_STRUCT_SIZE;
 80039d4:	68fb      	ldr	r3, [r7, #12]
 80039d6:	3315      	adds	r3, #21
 80039d8:	60fb      	str	r3, [r7, #12]
  
  if ( encoding >= 'a' )
 80039da:	78fb      	ldrb	r3, [r7, #3]
 80039dc:	2b60      	cmp	r3, #96	@ 0x60
 80039de:	d907      	bls.n	80039f0 <ucg_font_get_glyph_data+0x2e>
  {
    font += ucg->font_info.start_pos_lower_a;
 80039e0:	687b      	ldr	r3, [r7, #4]
 80039e2:	f8b3 30a4 	ldrh.w	r3, [r3, #164]	@ 0xa4
 80039e6:	461a      	mov	r2, r3
 80039e8:	68fb      	ldr	r3, [r7, #12]
 80039ea:	4413      	add	r3, r2
 80039ec:	60fb      	str	r3, [r7, #12]
 80039ee:	e009      	b.n	8003a04 <ucg_font_get_glyph_data+0x42>
  }
  else if ( encoding >= 'A' )
 80039f0:	78fb      	ldrb	r3, [r7, #3]
 80039f2:	2b40      	cmp	r3, #64	@ 0x40
 80039f4:	d906      	bls.n	8003a04 <ucg_font_get_glyph_data+0x42>
  {
    font += ucg->font_info.start_pos_upper_A;
 80039f6:	687b      	ldr	r3, [r7, #4]
 80039f8:	f8b3 30a2 	ldrh.w	r3, [r3, #162]	@ 0xa2
 80039fc:	461a      	mov	r2, r3
 80039fe:	68fb      	ldr	r3, [r7, #12]
 8003a00:	4413      	add	r3, r2
 8003a02:	60fb      	str	r3, [r7, #12]
  }
  
  for(;;)
  {
    if ( ucg_pgm_read( ((ucg_pgm_uint8_t *)font) + 1 ) == 0 )
 8003a04:	68fb      	ldr	r3, [r7, #12]
 8003a06:	3301      	adds	r3, #1
 8003a08:	781b      	ldrb	r3, [r3, #0]
 8003a0a:	2b00      	cmp	r3, #0
 8003a0c:	d00e      	beq.n	8003a2c <ucg_font_get_glyph_data+0x6a>
      break;
    if ( ucg_pgm_read( (ucg_pgm_uint8_t *)font ) == encoding )
 8003a0e:	68fb      	ldr	r3, [r7, #12]
 8003a10:	781b      	ldrb	r3, [r3, #0]
 8003a12:	78fa      	ldrb	r2, [r7, #3]
 8003a14:	429a      	cmp	r2, r3
 8003a16:	d101      	bne.n	8003a1c <ucg_font_get_glyph_data+0x5a>
    {
      return font;
 8003a18:	68fb      	ldr	r3, [r7, #12]
 8003a1a:	e009      	b.n	8003a30 <ucg_font_get_glyph_data+0x6e>
    }
    font += ucg_pgm_read( ((ucg_pgm_uint8_t *)font) + 1 );
 8003a1c:	68fb      	ldr	r3, [r7, #12]
 8003a1e:	3301      	adds	r3, #1
 8003a20:	781b      	ldrb	r3, [r3, #0]
 8003a22:	461a      	mov	r2, r3
 8003a24:	68fb      	ldr	r3, [r7, #12]
 8003a26:	4413      	add	r3, r2
 8003a28:	60fb      	str	r3, [r7, #12]
    if ( ucg_pgm_read( ((ucg_pgm_uint8_t *)font) + 1 ) == 0 )
 8003a2a:	e7eb      	b.n	8003a04 <ucg_font_get_glyph_data+0x42>
      break;
 8003a2c:	bf00      	nop
  }
  return NULL;
 8003a2e:	2300      	movs	r3, #0
}
 8003a30:	4618      	mov	r0, r3
 8003a32:	3714      	adds	r7, #20
 8003a34:	46bd      	mov	sp, r7
 8003a36:	f85d 7b04 	ldr.w	r7, [sp], #4
 8003a3a:	4770      	bx	lr

08003a3c <ucg_font_draw_glyph>:

ucg_int_t ucg_font_draw_glyph(ucg_t *ucg, ucg_int_t x, ucg_int_t y, uint8_t dir, uint8_t encoding)
{
 8003a3c:	b580      	push	{r7, lr}
 8003a3e:	b086      	sub	sp, #24
 8003a40:	af00      	add	r7, sp, #0
 8003a42:	60f8      	str	r0, [r7, #12]
 8003a44:	4608      	mov	r0, r1
 8003a46:	4611      	mov	r1, r2
 8003a48:	461a      	mov	r2, r3
 8003a4a:	4603      	mov	r3, r0
 8003a4c:	817b      	strh	r3, [r7, #10]
 8003a4e:	460b      	mov	r3, r1
 8003a50:	813b      	strh	r3, [r7, #8]
 8003a52:	4613      	mov	r3, r2
 8003a54:	71fb      	strb	r3, [r7, #7]
  ucg_int_t dx = 0;
 8003a56:	2300      	movs	r3, #0
 8003a58:	82fb      	strh	r3, [r7, #22]
  ucg->font_decode.target_x = x;
 8003a5a:	68fb      	ldr	r3, [r7, #12]
 8003a5c:	897a      	ldrh	r2, [r7, #10]
 8003a5e:	f8a3 2084 	strh.w	r2, [r3, #132]	@ 0x84
  ucg->font_decode.target_y = y;
 8003a62:	68fb      	ldr	r3, [r7, #12]
 8003a64:	893a      	ldrh	r2, [r7, #8]
 8003a66:	f8a3 2086 	strh.w	r2, [r3, #134]	@ 0x86
  //ucg->font_decode.is_transparent = is_transparent; this is already set
  ucg->font_decode.dir = dir;
 8003a6a:	68fb      	ldr	r3, [r7, #12]
 8003a6c:	79fa      	ldrb	r2, [r7, #7]
 8003a6e:	f883 208e 	strb.w	r2, [r3, #142]	@ 0x8e
  const uint8_t *glyph_data = ucg_font_get_glyph_data(ucg, encoding);
 8003a72:	f897 3020 	ldrb.w	r3, [r7, #32]
 8003a76:	4619      	mov	r1, r3
 8003a78:	68f8      	ldr	r0, [r7, #12]
 8003a7a:	f7ff ffa2 	bl	80039c2 <ucg_font_get_glyph_data>
 8003a7e:	6138      	str	r0, [r7, #16]
  if ( glyph_data != NULL )
 8003a80:	693b      	ldr	r3, [r7, #16]
 8003a82:	2b00      	cmp	r3, #0
 8003a84:	d005      	beq.n	8003a92 <ucg_font_draw_glyph+0x56>
  {
    dx = ucg_font_decode_glyph(ucg, glyph_data);
 8003a86:	6939      	ldr	r1, [r7, #16]
 8003a88:	68f8      	ldr	r0, [r7, #12]
 8003a8a:	f7ff fef4 	bl	8003876 <ucg_font_decode_glyph>
 8003a8e:	4603      	mov	r3, r0
 8003a90:	82fb      	strh	r3, [r7, #22]
  }
  return dx;
 8003a92:	f9b7 3016 	ldrsh.w	r3, [r7, #22]
}
 8003a96:	4618      	mov	r0, r3
 8003a98:	3718      	adds	r7, #24
 8003a9a:	46bd      	mov	sp, r7
 8003a9c:	bd80      	pop	{r7, pc}

08003a9e <ucg_SetFontMode>:
    UCG_FONT_MODE_SOLID
    UCG_FONT_MODE_NONE
  This has been changed for the new font procedures  
*/
void ucg_SetFontMode(ucg_t *ucg, uint8_t is_transparent)
{
 8003a9e:	b480      	push	{r7}
 8003aa0:	b083      	sub	sp, #12
 8003aa2:	af00      	add	r7, sp, #0
 8003aa4:	6078      	str	r0, [r7, #4]
 8003aa6:	460b      	mov	r3, r1
 8003aa8:	70fb      	strb	r3, [r7, #3]
  ucg->font_decode.is_transparent = is_transparent;		// new font procedures
 8003aaa:	687b      	ldr	r3, [r7, #4]
 8003aac:	78fa      	ldrb	r2, [r7, #3]
 8003aae:	f883 208d 	strb.w	r2, [r3, #141]	@ 0x8d
}
 8003ab2:	bf00      	nop
 8003ab4:	370c      	adds	r7, #12
 8003ab6:	46bd      	mov	sp, r7
 8003ab8:	f85d 7b04 	ldr.w	r7, [sp], #4
 8003abc:	4770      	bx	lr
	...

08003ac0 <ucg_DrawGlyph>:

ucg_int_t ucg_DrawGlyph(ucg_t *ucg, ucg_int_t x, ucg_int_t y, uint8_t dir, uint8_t encoding)
{
 8003ac0:	b580      	push	{r7, lr}
 8003ac2:	b086      	sub	sp, #24
 8003ac4:	af02      	add	r7, sp, #8
 8003ac6:	60f8      	str	r0, [r7, #12]
 8003ac8:	4608      	mov	r0, r1
 8003aca:	4611      	mov	r1, r2
 8003acc:	461a      	mov	r2, r3
 8003ace:	4603      	mov	r3, r0
 8003ad0:	817b      	strh	r3, [r7, #10]
 8003ad2:	460b      	mov	r3, r1
 8003ad4:	813b      	strh	r3, [r7, #8]
 8003ad6:	4613      	mov	r3, r2
 8003ad8:	71fb      	strb	r3, [r7, #7]
  switch(dir)
 8003ada:	79fb      	ldrb	r3, [r7, #7]
 8003adc:	2b03      	cmp	r3, #3
 8003ade:	d837      	bhi.n	8003b50 <ucg_DrawGlyph+0x90>
 8003ae0:	a201      	add	r2, pc, #4	@ (adr r2, 8003ae8 <ucg_DrawGlyph+0x28>)
 8003ae2:	f852 f023 	ldr.w	pc, [r2, r3, lsl #2]
 8003ae6:	bf00      	nop
 8003ae8:	08003af9 	.word	0x08003af9
 8003aec:	08003b0f 	.word	0x08003b0f
 8003af0:	08003b25 	.word	0x08003b25
 8003af4:	08003b3b 	.word	0x08003b3b
  {
    case 0:
      y += ucg->font_calc_vref(ucg);
 8003af8:	68fb      	ldr	r3, [r7, #12]
 8003afa:	6fdb      	ldr	r3, [r3, #124]	@ 0x7c
 8003afc:	68f8      	ldr	r0, [r7, #12]
 8003afe:	4798      	blx	r3
 8003b00:	4603      	mov	r3, r0
 8003b02:	b29a      	uxth	r2, r3
 8003b04:	893b      	ldrh	r3, [r7, #8]
 8003b06:	4413      	add	r3, r2
 8003b08:	b29b      	uxth	r3, r3
 8003b0a:	813b      	strh	r3, [r7, #8]
      break;
 8003b0c:	e020      	b.n	8003b50 <ucg_DrawGlyph+0x90>
    case 1:
      x -= ucg->font_calc_vref(ucg);
 8003b0e:	68fb      	ldr	r3, [r7, #12]
 8003b10:	6fdb      	ldr	r3, [r3, #124]	@ 0x7c
 8003b12:	68f8      	ldr	r0, [r7, #12]
 8003b14:	4798      	blx	r3
 8003b16:	4603      	mov	r3, r0
 8003b18:	897a      	ldrh	r2, [r7, #10]
 8003b1a:	b29b      	uxth	r3, r3
 8003b1c:	1ad3      	subs	r3, r2, r3
 8003b1e:	b29b      	uxth	r3, r3
 8003b20:	817b      	strh	r3, [r7, #10]
      break;
 8003b22:	e015      	b.n	8003b50 <ucg_DrawGlyph+0x90>
    case 2:
      y -= ucg->font_calc_vref(ucg);
 8003b24:	68fb      	ldr	r3, [r7, #12]
 8003b26:	6fdb      	ldr	r3, [r3, #124]	@ 0x7c
 8003b28:	68f8      	ldr	r0, [r7, #12]
 8003b2a:	4798      	blx	r3
 8003b2c:	4603      	mov	r3, r0
 8003b2e:	893a      	ldrh	r2, [r7, #8]
 8003b30:	b29b      	uxth	r3, r3
 8003b32:	1ad3      	subs	r3, r2, r3
 8003b34:	b29b      	uxth	r3, r3
 8003b36:	813b      	strh	r3, [r7, #8]
      break;
 8003b38:	e00a      	b.n	8003b50 <ucg_DrawGlyph+0x90>
    case 3:
      x += ucg->font_calc_vref(ucg);
 8003b3a:	68fb      	ldr	r3, [r7, #12]
 8003b3c:	6fdb      	ldr	r3, [r3, #124]	@ 0x7c
 8003b3e:	68f8      	ldr	r0, [r7, #12]
 8003b40:	4798      	blx	r3
 8003b42:	4603      	mov	r3, r0
 8003b44:	b29a      	uxth	r2, r3
 8003b46:	897b      	ldrh	r3, [r7, #10]
 8003b48:	4413      	add	r3, r2
 8003b4a:	b29b      	uxth	r3, r3
 8003b4c:	817b      	strh	r3, [r7, #10]
      break;
 8003b4e:	bf00      	nop
  }
  return ucg_font_draw_glyph(ucg, x, y, dir, encoding);
 8003b50:	79f8      	ldrb	r0, [r7, #7]
 8003b52:	f9b7 2008 	ldrsh.w	r2, [r7, #8]
 8003b56:	f9b7 100a 	ldrsh.w	r1, [r7, #10]
 8003b5a:	7e3b      	ldrb	r3, [r7, #24]
 8003b5c:	9300      	str	r3, [sp, #0]
 8003b5e:	4603      	mov	r3, r0
 8003b60:	68f8      	ldr	r0, [r7, #12]
 8003b62:	f7ff ff6b 	bl	8003a3c <ucg_font_draw_glyph>
 8003b66:	4603      	mov	r3, r0
}
 8003b68:	4618      	mov	r0, r3
 8003b6a:	3710      	adds	r7, #16
 8003b6c:	46bd      	mov	sp, r7
 8003b6e:	bd80      	pop	{r7, pc}

08003b70 <task_drawString>:

ucg_draw_string_t ucg_draw_str;

void task_drawString(void *arg)
{
 8003b70:	b580      	push	{r7, lr}
 8003b72:	b086      	sub	sp, #24
 8003b74:	af02      	add	r7, sp, #8
 8003b76:	6078      	str	r0, [r7, #4]
	ucg_int_t delta = 0;
 8003b78:	2300      	movs	r3, #0
 8003b7a:	81fb      	strh	r3, [r7, #14]
	ucg_t *ucg = (ucg_t *)arg;
 8003b7c:	687b      	ldr	r3, [r7, #4]
 8003b7e:	60bb      	str	r3, [r7, #8]

	static uint8_t next = 0;
	switch (next)
 8003b80:	4b45      	ldr	r3, [pc, #276]	@ (8003c98 <task_drawString+0x128>)
 8003b82:	781b      	ldrb	r3, [r3, #0]
 8003b84:	2b00      	cmp	r3, #0
 8003b86:	d002      	beq.n	8003b8e <task_drawString+0x1e>
 8003b88:	2b01      	cmp	r3, #1
 8003b8a:	d01e      	beq.n	8003bca <task_drawString+0x5a>
 8003b8c:	e07b      	b.n	8003c86 <task_drawString+0x116>
	{
		case 0:
			if (bufNumItems(&fontQueue) != 0)
 8003b8e:	4843      	ldr	r0, [pc, #268]	@ (8003c9c <task_drawString+0x12c>)
 8003b90:	f000 fb5b 	bl	800424a <bufNumItems>
 8003b94:	4603      	mov	r3, r0
 8003b96:	2b00      	cmp	r3, #0
 8003b98:	d007      	beq.n	8003baa <task_drawString+0x3a>
			{
				bufDeDat(&fontQueue, (uint8_t *)&ucg_draw_str);
 8003b9a:	4941      	ldr	r1, [pc, #260]	@ (8003ca0 <task_drawString+0x130>)
 8003b9c:	483f      	ldr	r0, [pc, #252]	@ (8003c9c <task_drawString+0x12c>)
 8003b9e:	f000 fbee 	bl	800437e <bufDeDat>
				next = 1;
 8003ba2:	4b3d      	ldr	r3, [pc, #244]	@ (8003c98 <task_drawString+0x128>)
 8003ba4:	2201      	movs	r2, #1
 8003ba6:	701a      	strb	r2, [r3, #0]
					TimerStop(idTaskScanDecodeLen);
					idTaskScanDecodeLen = NO_TIMER;
				}
				next = 0;
			}
			break;
 8003ba8:	e071      	b.n	8003c8e <task_drawString+0x11e>
				if (idTaskScanDecodeLen != NO_TIMER)
 8003baa:	4b3e      	ldr	r3, [pc, #248]	@ (8003ca4 <task_drawString+0x134>)
 8003bac:	781b      	ldrb	r3, [r3, #0]
 8003bae:	2bff      	cmp	r3, #255	@ 0xff
 8003bb0:	d007      	beq.n	8003bc2 <task_drawString+0x52>
					TimerStop(idTaskScanDecodeLen);
 8003bb2:	4b3c      	ldr	r3, [pc, #240]	@ (8003ca4 <task_drawString+0x134>)
 8003bb4:	781b      	ldrb	r3, [r3, #0]
 8003bb6:	4618      	mov	r0, r3
 8003bb8:	f7fd ffac 	bl	8001b14 <TimerStop>
					idTaskScanDecodeLen = NO_TIMER;
 8003bbc:	4b39      	ldr	r3, [pc, #228]	@ (8003ca4 <task_drawString+0x134>)
 8003bbe:	22ff      	movs	r2, #255	@ 0xff
 8003bc0:	701a      	strb	r2, [r3, #0]
				next = 0;
 8003bc2:	4b35      	ldr	r3, [pc, #212]	@ (8003c98 <task_drawString+0x128>)
 8003bc4:	2200      	movs	r2, #0
 8003bc6:	701a      	strb	r2, [r3, #0]
			break;
 8003bc8:	e061      	b.n	8003c8e <task_drawString+0x11e>

		case 1:
			if ( *ucg_draw_str.str != '\0' )
 8003bca:	4b35      	ldr	r3, [pc, #212]	@ (8003ca0 <task_drawString+0x130>)
 8003bcc:	689b      	ldr	r3, [r3, #8]
 8003bce:	781b      	ldrb	r3, [r3, #0]
 8003bd0:	2b00      	cmp	r3, #0
 8003bd2:	d054      	beq.n	8003c7e <task_drawString+0x10e>
			{
				delta = ucg_DrawGlyph(ucg, ucg_draw_str.x, ucg_draw_str.y, ucg_draw_str.dir, (uint8_t)*ucg_draw_str.str);
 8003bd4:	4b32      	ldr	r3, [pc, #200]	@ (8003ca0 <task_drawString+0x130>)
 8003bd6:	f9b3 1000 	ldrsh.w	r1, [r3]
 8003bda:	4b31      	ldr	r3, [pc, #196]	@ (8003ca0 <task_drawString+0x130>)
 8003bdc:	f9b3 2002 	ldrsh.w	r2, [r3, #2]
 8003be0:	4b2f      	ldr	r3, [pc, #188]	@ (8003ca0 <task_drawString+0x130>)
 8003be2:	7918      	ldrb	r0, [r3, #4]
 8003be4:	4b2e      	ldr	r3, [pc, #184]	@ (8003ca0 <task_drawString+0x130>)
 8003be6:	689b      	ldr	r3, [r3, #8]
 8003be8:	781b      	ldrb	r3, [r3, #0]
 8003bea:	9300      	str	r3, [sp, #0]
 8003bec:	4603      	mov	r3, r0
 8003bee:	68b8      	ldr	r0, [r7, #8]
 8003bf0:	f7ff ff66 	bl	8003ac0 <ucg_DrawGlyph>
 8003bf4:	4603      	mov	r3, r0
 8003bf6:	81fb      	strh	r3, [r7, #14]

				switch (ucg_draw_str.dir)
 8003bf8:	4b29      	ldr	r3, [pc, #164]	@ (8003ca0 <task_drawString+0x130>)
 8003bfa:	791b      	ldrb	r3, [r3, #4]
 8003bfc:	2b03      	cmp	r3, #3
 8003bfe:	d837      	bhi.n	8003c70 <task_drawString+0x100>
 8003c00:	a201      	add	r2, pc, #4	@ (adr r2, 8003c08 <task_drawString+0x98>)
 8003c02:	f852 f023 	ldr.w	pc, [r2, r3, lsl #2]
 8003c06:	bf00      	nop
 8003c08:	08003c19 	.word	0x08003c19
 8003c0c:	08003c2f 	.word	0x08003c2f
 8003c10:	08003c45 	.word	0x08003c45
 8003c14:	08003c5b 	.word	0x08003c5b
				{
					case 0:
						ucg_draw_str.x += delta;
 8003c18:	4b21      	ldr	r3, [pc, #132]	@ (8003ca0 <task_drawString+0x130>)
 8003c1a:	f9b3 3000 	ldrsh.w	r3, [r3]
 8003c1e:	b29a      	uxth	r2, r3
 8003c20:	89fb      	ldrh	r3, [r7, #14]
 8003c22:	4413      	add	r3, r2
 8003c24:	b29b      	uxth	r3, r3
 8003c26:	b21a      	sxth	r2, r3
 8003c28:	4b1d      	ldr	r3, [pc, #116]	@ (8003ca0 <task_drawString+0x130>)
 8003c2a:	801a      	strh	r2, [r3, #0]
						break;
 8003c2c:	e021      	b.n	8003c72 <task_drawString+0x102>

					case 1:
						ucg_draw_str.y += delta;
 8003c2e:	4b1c      	ldr	r3, [pc, #112]	@ (8003ca0 <task_drawString+0x130>)
 8003c30:	f9b3 3002 	ldrsh.w	r3, [r3, #2]
 8003c34:	b29a      	uxth	r2, r3
 8003c36:	89fb      	ldrh	r3, [r7, #14]
 8003c38:	4413      	add	r3, r2
 8003c3a:	b29b      	uxth	r3, r3
 8003c3c:	b21a      	sxth	r2, r3
 8003c3e:	4b18      	ldr	r3, [pc, #96]	@ (8003ca0 <task_drawString+0x130>)
 8003c40:	805a      	strh	r2, [r3, #2]
						break;
 8003c42:	e016      	b.n	8003c72 <task_drawString+0x102>

					case 2:
						ucg_draw_str.x -= delta;
 8003c44:	4b16      	ldr	r3, [pc, #88]	@ (8003ca0 <task_drawString+0x130>)
 8003c46:	f9b3 3000 	ldrsh.w	r3, [r3]
 8003c4a:	b29a      	uxth	r2, r3
 8003c4c:	89fb      	ldrh	r3, [r7, #14]
 8003c4e:	1ad3      	subs	r3, r2, r3
 8003c50:	b29b      	uxth	r3, r3
 8003c52:	b21a      	sxth	r2, r3
 8003c54:	4b12      	ldr	r3, [pc, #72]	@ (8003ca0 <task_drawString+0x130>)
 8003c56:	801a      	strh	r2, [r3, #0]
						break;
 8003c58:	e00b      	b.n	8003c72 <task_drawString+0x102>

					case 3:
						ucg_draw_str.y -= delta;
 8003c5a:	4b11      	ldr	r3, [pc, #68]	@ (8003ca0 <task_drawString+0x130>)
 8003c5c:	f9b3 3002 	ldrsh.w	r3, [r3, #2]
 8003c60:	b29a      	uxth	r2, r3
 8003c62:	89fb      	ldrh	r3, [r7, #14]
 8003c64:	1ad3      	subs	r3, r2, r3
 8003c66:	b29b      	uxth	r3, r3
 8003c68:	b21a      	sxth	r2, r3
 8003c6a:	4b0d      	ldr	r3, [pc, #52]	@ (8003ca0 <task_drawString+0x130>)
 8003c6c:	805a      	strh	r2, [r3, #2]
						break;
 8003c6e:	e000      	b.n	8003c72 <task_drawString+0x102>

					default:
						break;
 8003c70:	bf00      	nop
				}

				ucg_draw_str.str++;
 8003c72:	4b0b      	ldr	r3, [pc, #44]	@ (8003ca0 <task_drawString+0x130>)
 8003c74:	689b      	ldr	r3, [r3, #8]
 8003c76:	3301      	adds	r3, #1
 8003c78:	4a09      	ldr	r2, [pc, #36]	@ (8003ca0 <task_drawString+0x130>)
 8003c7a:	6093      	str	r3, [r2, #8]
			}
			else
			{
				next = 0;
			}
			break;
 8003c7c:	e007      	b.n	8003c8e <task_drawString+0x11e>
				next = 0;
 8003c7e:	4b06      	ldr	r3, [pc, #24]	@ (8003c98 <task_drawString+0x128>)
 8003c80:	2200      	movs	r2, #0
 8003c82:	701a      	strb	r2, [r3, #0]
			break;
 8003c84:	e003      	b.n	8003c8e <task_drawString+0x11e>

		default:
			next = 0;
 8003c86:	4b04      	ldr	r3, [pc, #16]	@ (8003c98 <task_drawString+0x128>)
 8003c88:	2200      	movs	r2, #0
 8003c8a:	701a      	strb	r2, [r3, #0]
			break;
 8003c8c:	bf00      	nop
	}
}
 8003c8e:	bf00      	nop
 8003c90:	3710      	adds	r7, #16
 8003c92:	46bd      	mov	sp, r7
 8003c94:	bd80      	pop	{r7, pc}
 8003c96:	bf00      	nop
 8003c98:	2000142c 	.word	0x2000142c
 8003c9c:	20000410 	.word	0x20000410
 8003ca0:	20001420 	.word	0x20001420
 8003ca4:	20000060 	.word	0x20000060

08003ca8 <ucg_DrawString>:

ucg_int_t ucg_DrawString(ucg_t *ucg, ucg_int_t x, ucg_int_t y, uint8_t dir, const char *str)
{
 8003ca8:	b580      	push	{r7, lr}
 8003caa:	b08a      	sub	sp, #40	@ 0x28
 8003cac:	af02      	add	r7, sp, #8
 8003cae:	60f8      	str	r0, [r7, #12]
 8003cb0:	4608      	mov	r0, r1
 8003cb2:	4611      	mov	r1, r2
 8003cb4:	461a      	mov	r2, r3
 8003cb6:	4603      	mov	r3, r0
 8003cb8:	817b      	strh	r3, [r7, #10]
 8003cba:	460b      	mov	r3, r1
 8003cbc:	813b      	strh	r3, [r7, #8]
 8003cbe:	4613      	mov	r3, r2
 8003cc0:	71fb      	strb	r3, [r7, #7]
	ucg_int_t sum = 0;
 8003cc2:	2300      	movs	r3, #0
 8003cc4:	83fb      	strh	r3, [r7, #30]
	ucg_draw_string_t drawStr;

	drawStr.x = x;
 8003cc6:	897b      	ldrh	r3, [r7, #10]
 8003cc8:	823b      	strh	r3, [r7, #16]
	drawStr.y = y;
 8003cca:	893b      	ldrh	r3, [r7, #8]
 8003ccc:	827b      	strh	r3, [r7, #18]
	drawStr.dir = dir;
 8003cce:	79fb      	ldrb	r3, [r7, #7]
 8003cd0:	753b      	strb	r3, [r7, #20]
    drawStr.str = (char *)str;
 8003cd2:	6abb      	ldr	r3, [r7, #40]	@ 0x28
 8003cd4:	61bb      	str	r3, [r7, #24]

	bufEnDat(&fontQueue, (uint8_t *)&drawStr);
 8003cd6:	f107 0310 	add.w	r3, r7, #16
 8003cda:	4619      	mov	r1, r3
 8003cdc:	480c      	ldr	r0, [pc, #48]	@ (8003d10 <ucg_DrawString+0x68>)
 8003cde:	f000 faff 	bl	80042e0 <bufEnDat>

	/* decode glyph */
	if (idTaskScanDecodeLen == NO_TIMER)
 8003ce2:	4b0c      	ldr	r3, [pc, #48]	@ (8003d14 <ucg_DrawString+0x6c>)
 8003ce4:	781b      	ldrb	r3, [r3, #0]
 8003ce6:	2bff      	cmp	r3, #255	@ 0xff
 8003ce8:	d10b      	bne.n	8003d02 <ucg_DrawString+0x5a>
	{
		idTaskScanDecodeLen = TimerStart("ucg_DrawString", 30, TIMER_REPEAT_FOREVER, task_drawString, ucg);
 8003cea:	68fb      	ldr	r3, [r7, #12]
 8003cec:	9300      	str	r3, [sp, #0]
 8003cee:	4b0a      	ldr	r3, [pc, #40]	@ (8003d18 <ucg_DrawString+0x70>)
 8003cf0:	22ff      	movs	r2, #255	@ 0xff
 8003cf2:	211e      	movs	r1, #30
 8003cf4:	4809      	ldr	r0, [pc, #36]	@ (8003d1c <ucg_DrawString+0x74>)
 8003cf6:	f7fd feab 	bl	8001a50 <TimerStart>
 8003cfa:	4603      	mov	r3, r0
 8003cfc:	461a      	mov	r2, r3
 8003cfe:	4b05      	ldr	r3, [pc, #20]	@ (8003d14 <ucg_DrawString+0x6c>)
 8003d00:	701a      	strb	r2, [r3, #0]
	}

	return sum;
 8003d02:	f9b7 301e 	ldrsh.w	r3, [r7, #30]
}
 8003d06:	4618      	mov	r0, r3
 8003d08:	3720      	adds	r7, #32
 8003d0a:	46bd      	mov	sp, r7
 8003d0c:	bd80      	pop	{r7, pc}
 8003d0e:	bf00      	nop
 8003d10:	20000410 	.word	0x20000410
 8003d14:	20000060 	.word	0x20000060
 8003d18:	08003b71 	.word	0x08003b71
 8003d1c:	08005a74 	.word	0x08005a74

08003d20 <ucg_UpdateRefHeight>:
/*===============================================*/

/* set ascent/descent for reference point calculation */

void ucg_UpdateRefHeight(ucg_t *ucg)
{
 8003d20:	b480      	push	{r7}
 8003d22:	b083      	sub	sp, #12
 8003d24:	af00      	add	r7, sp, #0
 8003d26:	6078      	str	r0, [r7, #4]
  if ( ucg->font == NULL )
 8003d28:	687b      	ldr	r3, [r7, #4]
 8003d2a:	6f9b      	ldr	r3, [r3, #120]	@ 0x78
 8003d2c:	2b00      	cmp	r3, #0
 8003d2e:	d05d      	beq.n	8003dec <ucg_UpdateRefHeight+0xcc>
    return;
  ucg->font_ref_ascent = ucg->font_info.ascent_A;
 8003d30:	687b      	ldr	r3, [r7, #4]
 8003d32:	f993 209d 	ldrsb.w	r2, [r3, #157]	@ 0x9d
 8003d36:	687b      	ldr	r3, [r7, #4]
 8003d38:	f883 20ac 	strb.w	r2, [r3, #172]	@ 0xac
  ucg->font_ref_descent = ucg->font_info.descent_g;
 8003d3c:	687b      	ldr	r3, [r7, #4]
 8003d3e:	f993 209e 	ldrsb.w	r2, [r3, #158]	@ 0x9e
 8003d42:	687b      	ldr	r3, [r7, #4]
 8003d44:	f883 20ad 	strb.w	r2, [r3, #173]	@ 0xad
  if ( ucg->font_height_mode == UCG_FONT_HEIGHT_MODE_TEXT )
 8003d48:	687b      	ldr	r3, [r7, #4]
 8003d4a:	f893 30ab 	ldrb.w	r3, [r3, #171]	@ 0xab
 8003d4e:	2b00      	cmp	r3, #0
 8003d50:	d04d      	beq.n	8003dee <ucg_UpdateRefHeight+0xce>
  {
  }
  else if ( ucg->font_height_mode == UCG_FONT_HEIGHT_MODE_XTEXT )
 8003d52:	687b      	ldr	r3, [r7, #4]
 8003d54:	f893 30ab 	ldrb.w	r3, [r3, #171]	@ 0xab
 8003d58:	2b01      	cmp	r3, #1
 8003d5a:	d11c      	bne.n	8003d96 <ucg_UpdateRefHeight+0x76>
  {
    if ( ucg->font_ref_ascent < ucg->font_info.ascent_para )
 8003d5c:	687b      	ldr	r3, [r7, #4]
 8003d5e:	f993 20ac 	ldrsb.w	r2, [r3, #172]	@ 0xac
 8003d62:	687b      	ldr	r3, [r7, #4]
 8003d64:	f993 309f 	ldrsb.w	r3, [r3, #159]	@ 0x9f
 8003d68:	429a      	cmp	r2, r3
 8003d6a:	da05      	bge.n	8003d78 <ucg_UpdateRefHeight+0x58>
      ucg->font_ref_ascent = ucg->font_info.ascent_para;
 8003d6c:	687b      	ldr	r3, [r7, #4]
 8003d6e:	f993 209f 	ldrsb.w	r2, [r3, #159]	@ 0x9f
 8003d72:	687b      	ldr	r3, [r7, #4]
 8003d74:	f883 20ac 	strb.w	r2, [r3, #172]	@ 0xac
    if ( ucg->font_ref_descent > ucg->font_info.descent_para )
 8003d78:	687b      	ldr	r3, [r7, #4]
 8003d7a:	f993 20ad 	ldrsb.w	r2, [r3, #173]	@ 0xad
 8003d7e:	687b      	ldr	r3, [r7, #4]
 8003d80:	f993 30a0 	ldrsb.w	r3, [r3, #160]	@ 0xa0
 8003d84:	429a      	cmp	r2, r3
 8003d86:	dd32      	ble.n	8003dee <ucg_UpdateRefHeight+0xce>
      ucg->font_ref_descent = ucg->font_info.descent_para;
 8003d88:	687b      	ldr	r3, [r7, #4]
 8003d8a:	f993 20a0 	ldrsb.w	r2, [r3, #160]	@ 0xa0
 8003d8e:	687b      	ldr	r3, [r7, #4]
 8003d90:	f883 20ad 	strb.w	r2, [r3, #173]	@ 0xad
 8003d94:	e02b      	b.n	8003dee <ucg_UpdateRefHeight+0xce>
  }
  else
  {
    if ( ucg->font_ref_ascent < ucg->font_info.max_char_height+ucg->font_info.y_offset )
 8003d96:	687b      	ldr	r3, [r7, #4]
 8003d98:	f993 30ac 	ldrsb.w	r3, [r3, #172]	@ 0xac
 8003d9c:	461a      	mov	r2, r3
 8003d9e:	687b      	ldr	r3, [r7, #4]
 8003da0:	f993 309a 	ldrsb.w	r3, [r3, #154]	@ 0x9a
 8003da4:	4619      	mov	r1, r3
 8003da6:	687b      	ldr	r3, [r7, #4]
 8003da8:	f993 309c 	ldrsb.w	r3, [r3, #156]	@ 0x9c
 8003dac:	440b      	add	r3, r1
 8003dae:	429a      	cmp	r2, r3
 8003db0:	da0d      	bge.n	8003dce <ucg_UpdateRefHeight+0xae>
      ucg->font_ref_ascent = ucg->font_info.max_char_height+ucg->font_info.y_offset;
 8003db2:	687b      	ldr	r3, [r7, #4]
 8003db4:	f993 309a 	ldrsb.w	r3, [r3, #154]	@ 0x9a
 8003db8:	b2da      	uxtb	r2, r3
 8003dba:	687b      	ldr	r3, [r7, #4]
 8003dbc:	f993 309c 	ldrsb.w	r3, [r3, #156]	@ 0x9c
 8003dc0:	b2db      	uxtb	r3, r3
 8003dc2:	4413      	add	r3, r2
 8003dc4:	b2db      	uxtb	r3, r3
 8003dc6:	b25a      	sxtb	r2, r3
 8003dc8:	687b      	ldr	r3, [r7, #4]
 8003dca:	f883 20ac 	strb.w	r2, [r3, #172]	@ 0xac
    if ( ucg->font_ref_descent > ucg->font_info.y_offset )
 8003dce:	687b      	ldr	r3, [r7, #4]
 8003dd0:	f993 20ad 	ldrsb.w	r2, [r3, #173]	@ 0xad
 8003dd4:	687b      	ldr	r3, [r7, #4]
 8003dd6:	f993 309c 	ldrsb.w	r3, [r3, #156]	@ 0x9c
 8003dda:	429a      	cmp	r2, r3
 8003ddc:	dd07      	ble.n	8003dee <ucg_UpdateRefHeight+0xce>
      ucg->font_ref_descent = ucg->font_info.y_offset;
 8003dde:	687b      	ldr	r3, [r7, #4]
 8003de0:	f993 209c 	ldrsb.w	r2, [r3, #156]	@ 0x9c
 8003de4:	687b      	ldr	r3, [r7, #4]
 8003de6:	f883 20ad 	strb.w	r2, [r3, #173]	@ 0xad
 8003dea:	e000      	b.n	8003dee <ucg_UpdateRefHeight+0xce>
    return;
 8003dec:	bf00      	nop
  }  
}
 8003dee:	370c      	adds	r7, #12
 8003df0:	46bd      	mov	sp, r7
 8003df2:	f85d 7b04 	ldr.w	r7, [sp], #4
 8003df6:	4770      	bx	lr

08003df8 <ucg_font_calc_vref_font>:

/*===============================================*/
/* callback procedures to correct the y position */

ucg_int_t ucg_font_calc_vref_font(ucg_t *ucg)
{
 8003df8:	b480      	push	{r7}
 8003dfa:	b083      	sub	sp, #12
 8003dfc:	af00      	add	r7, sp, #0
 8003dfe:	6078      	str	r0, [r7, #4]
  return 0;
 8003e00:	2300      	movs	r3, #0
}
 8003e02:	4618      	mov	r0, r3
 8003e04:	370c      	adds	r7, #12
 8003e06:	46bd      	mov	sp, r7
 8003e08:	f85d 7b04 	ldr.w	r7, [sp], #4
 8003e0c:	4770      	bx	lr
	...

08003e10 <ucg_SetFontPosBaseline>:

void ucg_SetFontPosBaseline(ucg_t *ucg)
{
 8003e10:	b480      	push	{r7}
 8003e12:	b083      	sub	sp, #12
 8003e14:	af00      	add	r7, sp, #0
 8003e16:	6078      	str	r0, [r7, #4]
  ucg->font_calc_vref = ucg_font_calc_vref_font;
 8003e18:	687b      	ldr	r3, [r7, #4]
 8003e1a:	4a04      	ldr	r2, [pc, #16]	@ (8003e2c <ucg_SetFontPosBaseline+0x1c>)
 8003e1c:	67da      	str	r2, [r3, #124]	@ 0x7c
}
 8003e1e:	bf00      	nop
 8003e20:	370c      	adds	r7, #12
 8003e22:	46bd      	mov	sp, r7
 8003e24:	f85d 7b04 	ldr.w	r7, [sp], #4
 8003e28:	4770      	bx	lr
 8003e2a:	bf00      	nop
 8003e2c:	08003df9 	.word	0x08003df9

08003e30 <ucg_SetFont>:
}

/*===============================================*/

void ucg_SetFont(ucg_t *ucg, const ucg_fntpgm_uint8_t  *font)
{
 8003e30:	b580      	push	{r7, lr}
 8003e32:	b082      	sub	sp, #8
 8003e34:	af00      	add	r7, sp, #0
 8003e36:	6078      	str	r0, [r7, #4]
 8003e38:	6039      	str	r1, [r7, #0]
  if ( ucg->font != font )
 8003e3a:	687b      	ldr	r3, [r7, #4]
 8003e3c:	6f9b      	ldr	r3, [r3, #120]	@ 0x78
 8003e3e:	683a      	ldr	r2, [r7, #0]
 8003e40:	429a      	cmp	r2, r3
 8003e42:	d012      	beq.n	8003e6a <ucg_SetFont+0x3a>
  {
    ucg->font = font;
 8003e44:	687b      	ldr	r3, [r7, #4]
 8003e46:	683a      	ldr	r2, [r7, #0]
 8003e48:	679a      	str	r2, [r3, #120]	@ 0x78
    ucg_read_font_info(&(ucg->font_info), font);
 8003e4a:	687b      	ldr	r3, [r7, #4]
 8003e4c:	3390      	adds	r3, #144	@ 0x90
 8003e4e:	6839      	ldr	r1, [r7, #0]
 8003e50:	4618      	mov	r0, r3
 8003e52:	f7ff fac5 	bl	80033e0 <ucg_read_font_info>
    ucg_UpdateRefHeight(ucg);
 8003e56:	6878      	ldr	r0, [r7, #4]
 8003e58:	f7ff ff62 	bl	8003d20 <ucg_UpdateRefHeight>
    //ucg_SetFontPosBaseline(ucg);

    // Init queue font
    bufInit(pQueueFont, &fontQueue, sizeof(ucg_draw_string_t), SIZE_QUEUE_DATA_FONT);
 8003e5c:	f44f 5380 	mov.w	r3, #4096	@ 0x1000
 8003e60:	220c      	movs	r2, #12
 8003e62:	4904      	ldr	r1, [pc, #16]	@ (8003e74 <ucg_SetFont+0x44>)
 8003e64:	4804      	ldr	r0, [pc, #16]	@ (8003e78 <ucg_SetFont+0x48>)
 8003e66:	f000 f9d5 	bl	8004214 <bufInit>
  }
}
 8003e6a:	bf00      	nop
 8003e6c:	3708      	adds	r7, #8
 8003e6e:	46bd      	mov	sp, r7
 8003e70:	bd80      	pop	{r7, pc}
 8003e72:	bf00      	nop
 8003e74:	20000410 	.word	0x20000410
 8003e78:	20000420 	.word	0x20000420

08003e7c <ucg_init_struct>:
uint8_t global_SREG_backup;		// used by the atomic macros
#endif


void ucg_init_struct(ucg_t *ucg)
{
 8003e7c:	b480      	push	{r7}
 8003e7e:	b083      	sub	sp, #12
 8003e80:	af00      	add	r7, sp, #0
 8003e82:	6078      	str	r0, [r7, #4]
  //memset(ucg, 0, sizeof(ucg_t));
  ucg->is_power_up = 0;
 8003e84:	687a      	ldr	r2, [r7, #4]
 8003e86:	7813      	ldrb	r3, [r2, #0]
 8003e88:	f36f 0300 	bfc	r3, #0, #1
 8003e8c:	7013      	strb	r3, [r2, #0]
  ucg->rotate_chain_device_cb = 0;
 8003e8e:	687b      	ldr	r3, [r7, #4]
 8003e90:	2200      	movs	r2, #0
 8003e92:	611a      	str	r2, [r3, #16]
  ucg->arg.scale = 1;
 8003e94:	687b      	ldr	r3, [r7, #4]
 8003e96:	2201      	movs	r2, #1
 8003e98:	865a      	strh	r2, [r3, #50]	@ 0x32
  //ucg->display_offset.x = 0;
  //ucg->display_offset.y = 0;
  ucg->font = 0;
 8003e9a:	687b      	ldr	r3, [r7, #4]
 8003e9c:	2200      	movs	r2, #0
 8003e9e:	679a      	str	r2, [r3, #120]	@ 0x78
  //ucg->font_mode = UCG_FONT_MODE_NONE;   Old font procedures
  ucg->font_decode.is_transparent = 1;  // new font procedures
 8003ea0:	687b      	ldr	r3, [r7, #4]
 8003ea2:	2201      	movs	r2, #1
 8003ea4:	f883 208d 	strb.w	r2, [r3, #141]	@ 0x8d
  
  ucg->com_initial_change_sent = 0;
 8003ea8:	687b      	ldr	r3, [r7, #4]
 8003eaa:	2200      	movs	r2, #0
 8003eac:	f883 20ae 	strb.w	r2, [r3, #174]	@ 0xae
  ucg->com_status = 0;
 8003eb0:	687b      	ldr	r3, [r7, #4]
 8003eb2:	2200      	movs	r2, #0
 8003eb4:	f883 20af 	strb.w	r2, [r3, #175]	@ 0xaf
  ucg->com_cfg_cd = 0;
 8003eb8:	687b      	ldr	r3, [r7, #4]
 8003eba:	2200      	movs	r2, #0
 8003ebc:	f883 20b0 	strb.w	r2, [r3, #176]	@ 0xb0
}
 8003ec0:	bf00      	nop
 8003ec2:	370c      	adds	r7, #12
 8003ec4:	46bd      	mov	sp, r7
 8003ec6:	f85d 7b04 	ldr.w	r7, [sp], #4
 8003eca:	4770      	bx	lr

08003ecc <ucg_Init>:


ucg_int_t ucg_Init(ucg_t *ucg, ucg_dev_fnptr device_cb, ucg_dev_fnptr ext_cb, ucg_com_fnptr com_cb)
{
 8003ecc:	b580      	push	{r7, lr}
 8003ece:	b086      	sub	sp, #24
 8003ed0:	af00      	add	r7, sp, #0
 8003ed2:	60f8      	str	r0, [r7, #12]
 8003ed4:	60b9      	str	r1, [r7, #8]
 8003ed6:	607a      	str	r2, [r7, #4]
 8003ed8:	603b      	str	r3, [r7, #0]
  ucg_int_t r;
  ucg_init_struct(ucg);
 8003eda:	68f8      	ldr	r0, [r7, #12]
 8003edc:	f7ff ffce 	bl	8003e7c <ucg_init_struct>
  if ( ext_cb == (ucg_dev_fnptr)0 )
 8003ee0:	687b      	ldr	r3, [r7, #4]
 8003ee2:	2b00      	cmp	r3, #0
 8003ee4:	d103      	bne.n	8003eee <ucg_Init+0x22>
    ucg->ext_cb = ucg_ext_none;
 8003ee6:	68fb      	ldr	r3, [r7, #12]
 8003ee8:	4a0e      	ldr	r2, [pc, #56]	@ (8003f24 <ucg_Init+0x58>)
 8003eea:	60da      	str	r2, [r3, #12]
 8003eec:	e002      	b.n	8003ef4 <ucg_Init+0x28>
 else 
    ucg->ext_cb = ext_cb;
 8003eee:	68fb      	ldr	r3, [r7, #12]
 8003ef0:	687a      	ldr	r2, [r7, #4]
 8003ef2:	60da      	str	r2, [r3, #12]
  ucg->device_cb = device_cb;
 8003ef4:	68fb      	ldr	r3, [r7, #12]
 8003ef6:	68ba      	ldr	r2, [r7, #8]
 8003ef8:	609a      	str	r2, [r3, #8]
  ucg->com_cb = com_cb;
 8003efa:	68fb      	ldr	r3, [r7, #12]
 8003efc:	683a      	ldr	r2, [r7, #0]
 8003efe:	61da      	str	r2, [r3, #28]
  ucg_SetFontPosBaseline(ucg);
 8003f00:	68f8      	ldr	r0, [r7, #12]
 8003f02:	f7ff ff85 	bl	8003e10 <ucg_SetFontPosBaseline>
  r = ucg_PowerUp(ucg);
 8003f06:	68f8      	ldr	r0, [r7, #12]
 8003f08:	f7ff f98e 	bl	8003228 <ucg_PowerUp>
 8003f0c:	4603      	mov	r3, r0
 8003f0e:	82fb      	strh	r3, [r7, #22]
  ucg_GetDimension(ucg);
 8003f10:	68f8      	ldr	r0, [r7, #12]
 8003f12:	f7ff f9ce 	bl	80032b2 <ucg_GetDimension>
  return r;
 8003f16:	f9b7 3016 	ldrsh.w	r3, [r7, #22]
}
 8003f1a:	4618      	mov	r0, r3
 8003f1c:	3718      	adds	r7, #24
 8003f1e:	46bd      	mov	sp, r7
 8003f20:	bd80      	pop	{r7, pc}
 8003f22:	bf00      	nop
 8003f24:	08002e81 	.word	0x08002e81

08003f28 <ucg_Draw90Line>:
*/

#include "ucg.h"

void ucg_Draw90Line(ucg_t *ucg, ucg_int_t x, ucg_int_t y, ucg_int_t len, ucg_int_t dir, ucg_int_t col_idx)
{
 8003f28:	b580      	push	{r7, lr}
 8003f2a:	b084      	sub	sp, #16
 8003f2c:	af00      	add	r7, sp, #0
 8003f2e:	60f8      	str	r0, [r7, #12]
 8003f30:	4608      	mov	r0, r1
 8003f32:	4611      	mov	r1, r2
 8003f34:	461a      	mov	r2, r3
 8003f36:	4603      	mov	r3, r0
 8003f38:	817b      	strh	r3, [r7, #10]
 8003f3a:	460b      	mov	r3, r1
 8003f3c:	813b      	strh	r3, [r7, #8]
 8003f3e:	4613      	mov	r3, r2
 8003f40:	80fb      	strh	r3, [r7, #6]
  ucg->arg.pixel.rgb.color[0] = ucg->arg.rgb[col_idx].color[0];
 8003f42:	f9b7 201c 	ldrsh.w	r2, [r7, #28]
 8003f46:	68f9      	ldr	r1, [r7, #12]
 8003f48:	4613      	mov	r3, r2
 8003f4a:	005b      	lsls	r3, r3, #1
 8003f4c:	4413      	add	r3, r2
 8003f4e:	440b      	add	r3, r1
 8003f50:	333a      	adds	r3, #58	@ 0x3a
 8003f52:	781a      	ldrb	r2, [r3, #0]
 8003f54:	68fb      	ldr	r3, [r7, #12]
 8003f56:	f883 2028 	strb.w	r2, [r3, #40]	@ 0x28
  ucg->arg.pixel.rgb.color[1] = ucg->arg.rgb[col_idx].color[1];
 8003f5a:	f9b7 201c 	ldrsh.w	r2, [r7, #28]
 8003f5e:	68f9      	ldr	r1, [r7, #12]
 8003f60:	4613      	mov	r3, r2
 8003f62:	005b      	lsls	r3, r3, #1
 8003f64:	4413      	add	r3, r2
 8003f66:	440b      	add	r3, r1
 8003f68:	333b      	adds	r3, #59	@ 0x3b
 8003f6a:	781a      	ldrb	r2, [r3, #0]
 8003f6c:	68fb      	ldr	r3, [r7, #12]
 8003f6e:	f883 2029 	strb.w	r2, [r3, #41]	@ 0x29
  ucg->arg.pixel.rgb.color[2] = ucg->arg.rgb[col_idx].color[2];
 8003f72:	f9b7 201c 	ldrsh.w	r2, [r7, #28]
 8003f76:	68f9      	ldr	r1, [r7, #12]
 8003f78:	4613      	mov	r3, r2
 8003f7a:	005b      	lsls	r3, r3, #1
 8003f7c:	4413      	add	r3, r2
 8003f7e:	440b      	add	r3, r1
 8003f80:	333c      	adds	r3, #60	@ 0x3c
 8003f82:	781a      	ldrb	r2, [r3, #0]
 8003f84:	68fb      	ldr	r3, [r7, #12]
 8003f86:	f883 202a 	strb.w	r2, [r3, #42]	@ 0x2a
  ucg->arg.pixel.pos.x = x;
 8003f8a:	68fb      	ldr	r3, [r7, #12]
 8003f8c:	897a      	ldrh	r2, [r7, #10]
 8003f8e:	849a      	strh	r2, [r3, #36]	@ 0x24
  ucg->arg.pixel.pos.y = y;
 8003f90:	68fb      	ldr	r3, [r7, #12]
 8003f92:	893a      	ldrh	r2, [r7, #8]
 8003f94:	84da      	strh	r2, [r3, #38]	@ 0x26
  ucg->arg.len = len;
 8003f96:	68fb      	ldr	r3, [r7, #12]
 8003f98:	88fa      	ldrh	r2, [r7, #6]
 8003f9a:	859a      	strh	r2, [r3, #44]	@ 0x2c
  ucg->arg.dir = dir;
 8003f9c:	68fb      	ldr	r3, [r7, #12]
 8003f9e:	8b3a      	ldrh	r2, [r7, #24]
 8003fa0:	85da      	strh	r2, [r3, #46]	@ 0x2e
  ucg_DrawL90FXWithArg(ucg);
 8003fa2:	68f8      	ldr	r0, [r7, #12]
 8003fa4:	f7ff f997 	bl	80032d6 <ucg_DrawL90FXWithArg>
}
 8003fa8:	bf00      	nop
 8003faa:	3710      	adds	r7, #16
 8003fac:	46bd      	mov	sp, r7
 8003fae:	bd80      	pop	{r7, pc}

08003fb0 <ucg_DrawHLine>:

void ucg_DrawHLine(ucg_t *ucg, ucg_int_t x, ucg_int_t y, ucg_int_t len)
{
 8003fb0:	b580      	push	{r7, lr}
 8003fb2:	b086      	sub	sp, #24
 8003fb4:	af02      	add	r7, sp, #8
 8003fb6:	60f8      	str	r0, [r7, #12]
 8003fb8:	4608      	mov	r0, r1
 8003fba:	4611      	mov	r1, r2
 8003fbc:	461a      	mov	r2, r3
 8003fbe:	4603      	mov	r3, r0
 8003fc0:	817b      	strh	r3, [r7, #10]
 8003fc2:	460b      	mov	r3, r1
 8003fc4:	813b      	strh	r3, [r7, #8]
 8003fc6:	4613      	mov	r3, r2
 8003fc8:	80fb      	strh	r3, [r7, #6]
  ucg_Draw90Line(ucg, x, y, len, 0, 0);
 8003fca:	f9b7 3006 	ldrsh.w	r3, [r7, #6]
 8003fce:	f9b7 2008 	ldrsh.w	r2, [r7, #8]
 8003fd2:	f9b7 100a 	ldrsh.w	r1, [r7, #10]
 8003fd6:	2000      	movs	r0, #0
 8003fd8:	9001      	str	r0, [sp, #4]
 8003fda:	2000      	movs	r0, #0
 8003fdc:	9000      	str	r0, [sp, #0]
 8003fde:	68f8      	ldr	r0, [r7, #12]
 8003fe0:	f7ff ffa2 	bl	8003f28 <ucg_Draw90Line>
}
 8003fe4:	bf00      	nop
 8003fe6:	3710      	adds	r7, #16
 8003fe8:	46bd      	mov	sp, r7
 8003fea:	bd80      	pop	{r7, pc}

08003fec <ucg_SetColor>:
*/

#include "ucg.h"

void ucg_SetColor(ucg_t *ucg, uint8_t idx, uint8_t r, uint8_t g, uint8_t b)
{
 8003fec:	b480      	push	{r7}
 8003fee:	b083      	sub	sp, #12
 8003ff0:	af00      	add	r7, sp, #0
 8003ff2:	6078      	str	r0, [r7, #4]
 8003ff4:	4608      	mov	r0, r1
 8003ff6:	4611      	mov	r1, r2
 8003ff8:	461a      	mov	r2, r3
 8003ffa:	4603      	mov	r3, r0
 8003ffc:	70fb      	strb	r3, [r7, #3]
 8003ffe:	460b      	mov	r3, r1
 8004000:	70bb      	strb	r3, [r7, #2]
 8004002:	4613      	mov	r3, r2
 8004004:	707b      	strb	r3, [r7, #1]
  //ucg->arg.pixel.rgb.color[0] = r;
  //ucg->arg.pixel.rgb.color[1] = g;
  //ucg->arg.pixel.rgb.color[2] = b;
  ucg->arg.rgb[idx].color[0] = r;
 8004006:	78fa      	ldrb	r2, [r7, #3]
 8004008:	6879      	ldr	r1, [r7, #4]
 800400a:	4613      	mov	r3, r2
 800400c:	005b      	lsls	r3, r3, #1
 800400e:	4413      	add	r3, r2
 8004010:	440b      	add	r3, r1
 8004012:	333a      	adds	r3, #58	@ 0x3a
 8004014:	78ba      	ldrb	r2, [r7, #2]
 8004016:	701a      	strb	r2, [r3, #0]
  ucg->arg.rgb[idx].color[1] = g;
 8004018:	78fa      	ldrb	r2, [r7, #3]
 800401a:	6879      	ldr	r1, [r7, #4]
 800401c:	4613      	mov	r3, r2
 800401e:	005b      	lsls	r3, r3, #1
 8004020:	4413      	add	r3, r2
 8004022:	440b      	add	r3, r1
 8004024:	333b      	adds	r3, #59	@ 0x3b
 8004026:	787a      	ldrb	r2, [r7, #1]
 8004028:	701a      	strb	r2, [r3, #0]
  ucg->arg.rgb[idx].color[2] = b;
 800402a:	78fa      	ldrb	r2, [r7, #3]
 800402c:	6879      	ldr	r1, [r7, #4]
 800402e:	4613      	mov	r3, r2
 8004030:	005b      	lsls	r3, r3, #1
 8004032:	4413      	add	r3, r2
 8004034:	440b      	add	r3, r1
 8004036:	333c      	adds	r3, #60	@ 0x3c
 8004038:	7c3a      	ldrb	r2, [r7, #16]
 800403a:	701a      	strb	r2, [r3, #0]
}
 800403c:	bf00      	nop
 800403e:	370c      	adds	r7, #12
 8004040:	46bd      	mov	sp, r7
 8004042:	f85d 7b04 	ldr.w	r7, [sp], #4
 8004046:	4770      	bx	lr

08004048 <ucg_UndoRotate>:
#include "ucg.h"
#include <assert.h>

/* Side-Effects: Update dimension and reset clip range to max */
void ucg_UndoRotate(ucg_t *ucg)
{
 8004048:	b580      	push	{r7, lr}
 800404a:	b082      	sub	sp, #8
 800404c:	af00      	add	r7, sp, #0
 800404e:	6078      	str	r0, [r7, #4]
  if ( ucg->rotate_chain_device_cb != NULL )
 8004050:	687b      	ldr	r3, [r7, #4]
 8004052:	691b      	ldr	r3, [r3, #16]
 8004054:	2b00      	cmp	r3, #0
 8004056:	d006      	beq.n	8004066 <ucg_UndoRotate+0x1e>
  {
    ucg->device_cb = ucg->rotate_chain_device_cb;
 8004058:	687b      	ldr	r3, [r7, #4]
 800405a:	691a      	ldr	r2, [r3, #16]
 800405c:	687b      	ldr	r3, [r7, #4]
 800405e:	609a      	str	r2, [r3, #8]
    ucg->rotate_chain_device_cb = NULL;
 8004060:	687b      	ldr	r3, [r7, #4]
 8004062:	2200      	movs	r2, #0
 8004064:	611a      	str	r2, [r3, #16]
  }
  ucg_GetDimension(ucg);
 8004066:	6878      	ldr	r0, [r7, #4]
 8004068:	f7ff f923 	bl	80032b2 <ucg_GetDimension>
  ucg_SetMaxClipRange(ucg);
 800406c:	6878      	ldr	r0, [r7, #4]
 800406e:	f7ff f908 	bl	8003282 <ucg_SetMaxClipRange>
}
 8004072:	bf00      	nop
 8004074:	3708      	adds	r7, #8
 8004076:	46bd      	mov	sp, r7
 8004078:	bd80      	pop	{r7, pc}

0800407a <ucg_rotate_180_xy>:

/*================================================*/
/* 180 degree */

static void ucg_rotate_180_xy(ucg_t *ucg, ucg_xy_t *xy)
{
 800407a:	b480      	push	{r7}
 800407c:	b085      	sub	sp, #20
 800407e:	af00      	add	r7, sp, #0
 8004080:	6078      	str	r0, [r7, #4]
 8004082:	6039      	str	r1, [r7, #0]
    ucg_int_t x, y;
    y = ucg->rotate_dimension.h;
 8004084:	687b      	ldr	r3, [r7, #4]
 8004086:	8adb      	ldrh	r3, [r3, #22]
 8004088:	81fb      	strh	r3, [r7, #14]
    y -= xy->y;
 800408a:	89fa      	ldrh	r2, [r7, #14]
 800408c:	683b      	ldr	r3, [r7, #0]
 800408e:	f9b3 3002 	ldrsh.w	r3, [r3, #2]
 8004092:	b29b      	uxth	r3, r3
 8004094:	1ad3      	subs	r3, r2, r3
 8004096:	b29b      	uxth	r3, r3
 8004098:	81fb      	strh	r3, [r7, #14]
    y--;
 800409a:	f9b7 300e 	ldrsh.w	r3, [r7, #14]
 800409e:	b29b      	uxth	r3, r3
 80040a0:	3b01      	subs	r3, #1
 80040a2:	b29b      	uxth	r3, r3
 80040a4:	81fb      	strh	r3, [r7, #14]
    xy->y = y;
 80040a6:	683b      	ldr	r3, [r7, #0]
 80040a8:	89fa      	ldrh	r2, [r7, #14]
 80040aa:	805a      	strh	r2, [r3, #2]
  
    x = ucg->rotate_dimension.w;
 80040ac:	687b      	ldr	r3, [r7, #4]
 80040ae:	8a9b      	ldrh	r3, [r3, #20]
 80040b0:	81bb      	strh	r3, [r7, #12]
    x -= xy->x;
 80040b2:	89ba      	ldrh	r2, [r7, #12]
 80040b4:	683b      	ldr	r3, [r7, #0]
 80040b6:	f9b3 3000 	ldrsh.w	r3, [r3]
 80040ba:	b29b      	uxth	r3, r3
 80040bc:	1ad3      	subs	r3, r2, r3
 80040be:	b29b      	uxth	r3, r3
 80040c0:	81bb      	strh	r3, [r7, #12]
    x--;
 80040c2:	f9b7 300c 	ldrsh.w	r3, [r7, #12]
 80040c6:	b29b      	uxth	r3, r3
 80040c8:	3b01      	subs	r3, #1
 80040ca:	b29b      	uxth	r3, r3
 80040cc:	81bb      	strh	r3, [r7, #12]
    xy->x = x;
 80040ce:	683b      	ldr	r3, [r7, #0]
 80040d0:	89ba      	ldrh	r2, [r7, #12]
 80040d2:	801a      	strh	r2, [r3, #0]
  
}
 80040d4:	bf00      	nop
 80040d6:	3714      	adds	r7, #20
 80040d8:	46bd      	mov	sp, r7
 80040da:	f85d 7b04 	ldr.w	r7, [sp], #4
 80040de:	4770      	bx	lr

080040e0 <ucg_dev_rotate180>:

ucg_int_t ucg_dev_rotate180(ucg_t *ucg, ucg_int_t msg, void *data)
{
 80040e0:	b580      	push	{r7, lr}
 80040e2:	b084      	sub	sp, #16
 80040e4:	af00      	add	r7, sp, #0
 80040e6:	60f8      	str	r0, [r7, #12]
 80040e8:	460b      	mov	r3, r1
 80040ea:	607a      	str	r2, [r7, #4]
 80040ec:	817b      	strh	r3, [r7, #10]
  switch(msg)
 80040ee:	f9b7 300a 	ldrsh.w	r3, [r7, #10]
 80040f2:	3b0c      	subs	r3, #12
 80040f4:	2b0b      	cmp	r3, #11
 80040f6:	d866      	bhi.n	80041c6 <ucg_dev_rotate180+0xe6>
 80040f8:	a201      	add	r2, pc, #4	@ (adr r2, 8004100 <ucg_dev_rotate180+0x20>)
 80040fa:	f852 f023 	ldr.w	pc, [r2, r3, lsl #2]
 80040fe:	bf00      	nop
 8004100:	0800414f 	.word	0x0800414f
 8004104:	080041c7 	.word	0x080041c7
 8004108:	080041c7 	.word	0x080041c7
 800410c:	08004131 	.word	0x08004131
 8004110:	080041c7 	.word	0x080041c7
 8004114:	080041c7 	.word	0x080041c7
 8004118:	080041c7 	.word	0x080041c7
 800411c:	080041c7 	.word	0x080041c7
 8004120:	08004197 	.word	0x08004197
 8004124:	08004197 	.word	0x08004197
 8004128:	080041c7 	.word	0x080041c7
 800412c:	08004197 	.word	0x08004197
  {
    case UCG_MSG_GET_DIMENSION:
      ucg->rotate_chain_device_cb(ucg, msg, &(ucg->rotate_dimension)); 
 8004130:	68fb      	ldr	r3, [r7, #12]
 8004132:	691b      	ldr	r3, [r3, #16]
 8004134:	68fa      	ldr	r2, [r7, #12]
 8004136:	3214      	adds	r2, #20
 8004138:	f9b7 100a 	ldrsh.w	r1, [r7, #10]
 800413c:	68f8      	ldr	r0, [r7, #12]
 800413e:	4798      	blx	r3
      *((ucg_wh_t *)data) = (ucg->rotate_dimension);
 8004140:	687a      	ldr	r2, [r7, #4]
 8004142:	68fb      	ldr	r3, [r7, #12]
 8004144:	3314      	adds	r3, #20
 8004146:	6818      	ldr	r0, [r3, #0]
 8004148:	6010      	str	r0, [r2, #0]
      return 1;
 800414a:	2301      	movs	r3, #1
 800414c:	e043      	b.n	80041d6 <ucg_dev_rotate180+0xf6>
    case UCG_MSG_SET_CLIP_BOX:
      /* calculate and rotate lower right point of the clip box */
      ((ucg_box_t * )data)->ul.y += ((ucg_box_t * )data)->size.h-1;
 800414e:	687b      	ldr	r3, [r7, #4]
 8004150:	f9b3 3002 	ldrsh.w	r3, [r3, #2]
 8004154:	b29a      	uxth	r2, r3
 8004156:	687b      	ldr	r3, [r7, #4]
 8004158:	f9b3 3006 	ldrsh.w	r3, [r3, #6]
 800415c:	b29b      	uxth	r3, r3
 800415e:	4413      	add	r3, r2
 8004160:	b29b      	uxth	r3, r3
 8004162:	3b01      	subs	r3, #1
 8004164:	b29b      	uxth	r3, r3
 8004166:	b21a      	sxth	r2, r3
 8004168:	687b      	ldr	r3, [r7, #4]
 800416a:	805a      	strh	r2, [r3, #2]
      ((ucg_box_t * )data)->ul.x += ((ucg_box_t * )data)->size.w-1;
 800416c:	687b      	ldr	r3, [r7, #4]
 800416e:	f9b3 3000 	ldrsh.w	r3, [r3]
 8004172:	b29a      	uxth	r2, r3
 8004174:	687b      	ldr	r3, [r7, #4]
 8004176:	f9b3 3004 	ldrsh.w	r3, [r3, #4]
 800417a:	b29b      	uxth	r3, r3
 800417c:	4413      	add	r3, r2
 800417e:	b29b      	uxth	r3, r3
 8004180:	3b01      	subs	r3, #1
 8004182:	b29b      	uxth	r3, r3
 8004184:	b21a      	sxth	r2, r3
 8004186:	687b      	ldr	r3, [r7, #4]
 8004188:	801a      	strh	r2, [r3, #0]
      ucg_rotate_180_xy(ucg, &(((ucg_box_t * )data)->ul)); 
 800418a:	687b      	ldr	r3, [r7, #4]
 800418c:	4619      	mov	r1, r3
 800418e:	68f8      	ldr	r0, [r7, #12]
 8004190:	f7ff ff73 	bl	800407a <ucg_rotate_180_xy>
      /* box dimensions are the same */
      break;
 8004194:	e017      	b.n	80041c6 <ucg_dev_rotate180+0xe6>
#ifdef UCG_MSG_DRAW_L90BF
    case UCG_MSG_DRAW_L90BF:
#endif /* UCG_MSG_DRAW_L90BF */
    case UCG_MSG_DRAW_L90SE:
    //case UCG_MSG_DRAW_L90RL:
      ucg->arg.dir+=2;
 8004196:	68fb      	ldr	r3, [r7, #12]
 8004198:	f9b3 302e 	ldrsh.w	r3, [r3, #46]	@ 0x2e
 800419c:	b29b      	uxth	r3, r3
 800419e:	3302      	adds	r3, #2
 80041a0:	b29b      	uxth	r3, r3
 80041a2:	b21a      	sxth	r2, r3
 80041a4:	68fb      	ldr	r3, [r7, #12]
 80041a6:	85da      	strh	r2, [r3, #46]	@ 0x2e
      ucg->arg.dir&=3;
 80041a8:	68fb      	ldr	r3, [r7, #12]
 80041aa:	f9b3 302e 	ldrsh.w	r3, [r3, #46]	@ 0x2e
 80041ae:	f003 0303 	and.w	r3, r3, #3
 80041b2:	b21a      	sxth	r2, r3
 80041b4:	68fb      	ldr	r3, [r7, #12]
 80041b6:	85da      	strh	r2, [r3, #46]	@ 0x2e
      ucg_rotate_180_xy(ucg, &(ucg->arg.pixel.pos)); 
 80041b8:	68fb      	ldr	r3, [r7, #12]
 80041ba:	3324      	adds	r3, #36	@ 0x24
 80041bc:	4619      	mov	r1, r3
 80041be:	68f8      	ldr	r0, [r7, #12]
 80041c0:	f7ff ff5b 	bl	800407a <ucg_rotate_180_xy>
      break;
 80041c4:	bf00      	nop
  }
  return ucg->rotate_chain_device_cb(ucg, msg, data);  
 80041c6:	68fb      	ldr	r3, [r7, #12]
 80041c8:	691b      	ldr	r3, [r3, #16]
 80041ca:	f9b7 100a 	ldrsh.w	r1, [r7, #10]
 80041ce:	687a      	ldr	r2, [r7, #4]
 80041d0:	68f8      	ldr	r0, [r7, #12]
 80041d2:	4798      	blx	r3
 80041d4:	4603      	mov	r3, r0
}
 80041d6:	4618      	mov	r0, r3
 80041d8:	3710      	adds	r7, #16
 80041da:	46bd      	mov	sp, r7
 80041dc:	bd80      	pop	{r7, pc}
 80041de:	bf00      	nop

080041e0 <ucg_SetRotate180>:

/* Side-Effects: Update dimension and reset clip range to max */
void ucg_SetRotate180(ucg_t *ucg)
{
 80041e0:	b580      	push	{r7, lr}
 80041e2:	b082      	sub	sp, #8
 80041e4:	af00      	add	r7, sp, #0
 80041e6:	6078      	str	r0, [r7, #4]
  ucg_UndoRotate(ucg);
 80041e8:	6878      	ldr	r0, [r7, #4]
 80041ea:	f7ff ff2d 	bl	8004048 <ucg_UndoRotate>
  ucg->rotate_chain_device_cb = ucg->device_cb;
 80041ee:	687b      	ldr	r3, [r7, #4]
 80041f0:	689a      	ldr	r2, [r3, #8]
 80041f2:	687b      	ldr	r3, [r7, #4]
 80041f4:	611a      	str	r2, [r3, #16]
  ucg->device_cb = ucg_dev_rotate180;
 80041f6:	687b      	ldr	r3, [r7, #4]
 80041f8:	4a05      	ldr	r2, [pc, #20]	@ (8004210 <ucg_SetRotate180+0x30>)
 80041fa:	609a      	str	r2, [r3, #8]
  ucg_GetDimension(ucg);
 80041fc:	6878      	ldr	r0, [r7, #4]
 80041fe:	f7ff f858 	bl	80032b2 <ucg_GetDimension>
  ucg_SetMaxClipRange(ucg);
 8004202:	6878      	ldr	r0, [r7, #4]
 8004204:	f7ff f83d 	bl	8003282 <ucg_SetMaxClipRange>
}
 8004208:	bf00      	nop
 800420a:	3708      	adds	r7, #8
 800420c:	46bd      	mov	sp, r7
 800420e:	bd80      	pop	{r7, pc}
 8004210:	080040e1 	.word	0x080040e1

08004214 <bufInit>:
bufInit(
    void *pBuffer,
    buffqueue_p pQueue,
	uint8_t sizeofElement,
	uint16_t numberOfElement
) {
 8004214:	b580      	push	{r7, lr}
 8004216:	b084      	sub	sp, #16
 8004218:	af00      	add	r7, sp, #0
 800421a:	60f8      	str	r0, [r7, #12]
 800421c:	60b9      	str	r1, [r7, #8]
 800421e:	4611      	mov	r1, r2
 8004220:	461a      	mov	r2, r3
 8004222:	460b      	mov	r3, r1
 8004224:	71fb      	strb	r3, [r7, #7]
 8004226:	4613      	mov	r3, r2
 8004228:	80bb      	strh	r3, [r7, #4]
    pQueue->wSize = numberOfElement;
 800422a:	68bb      	ldr	r3, [r7, #8]
 800422c:	88ba      	ldrh	r2, [r7, #4]
 800422e:	801a      	strh	r2, [r3, #0]
    pQueue->byItemSize = sizeofElement;
 8004230:	68bb      	ldr	r3, [r7, #8]
 8004232:	79fa      	ldrb	r2, [r7, #7]
 8004234:	711a      	strb	r2, [r3, #4]
    pQueue->pData = (uint8_t *)pBuffer;
 8004236:	68bb      	ldr	r3, [r7, #8]
 8004238:	68fa      	ldr	r2, [r7, #12]
 800423a:	60da      	str	r2, [r3, #12]
    bufFlush(pQueue);
 800423c:	68b8      	ldr	r0, [r7, #8]
 800423e:	f000 f836 	bl	80042ae <bufFlush>
}
 8004242:	bf00      	nop
 8004244:	3710      	adds	r7, #16
 8004246:	46bd      	mov	sp, r7
 8004248:	bd80      	pop	{r7, pc}

0800424a <bufNumItems>:
 * @return The number of items in the ring buffer
 */
uint16_t
bufNumItems(
	buffqueue_p pQueue
) {
 800424a:	b480      	push	{r7}
 800424c:	b083      	sub	sp, #12
 800424e:	af00      	add	r7, sp, #0
 8004250:	6078      	str	r0, [r7, #4]
    return pQueue->wCountEle;
 8004252:	687b      	ldr	r3, [r7, #4]
 8004254:	885b      	ldrh	r3, [r3, #2]
}
 8004256:	4618      	mov	r0, r3
 8004258:	370c      	adds	r7, #12
 800425a:	46bd      	mov	sp, r7
 800425c:	f85d 7b04 	ldr.w	r7, [sp], #4
 8004260:	4770      	bx	lr

08004262 <bufIsFull>:
 * @return 1 if full; 0 otherwise
 */
uint8_t
bufIsFull(
    buffqueue_p pQueue
) {
 8004262:	b480      	push	{r7}
 8004264:	b083      	sub	sp, #12
 8004266:	af00      	add	r7, sp, #0
 8004268:	6078      	str	r0, [r7, #4]
    return (pQueue->wCountEle >= pQueue->wSize);
 800426a:	687b      	ldr	r3, [r7, #4]
 800426c:	885a      	ldrh	r2, [r3, #2]
 800426e:	687b      	ldr	r3, [r7, #4]
 8004270:	881b      	ldrh	r3, [r3, #0]
 8004272:	429a      	cmp	r2, r3
 8004274:	bf2c      	ite	cs
 8004276:	2301      	movcs	r3, #1
 8004278:	2300      	movcc	r3, #0
 800427a:	b2db      	uxtb	r3, r3
}
 800427c:	4618      	mov	r0, r3
 800427e:	370c      	adds	r7, #12
 8004280:	46bd      	mov	sp, r7
 8004282:	f85d 7b04 	ldr.w	r7, [sp], #4
 8004286:	4770      	bx	lr

08004288 <bufIsEmpty>:
 * @return 1 if empty; 0 otherwise
 */
uint8_t
bufIsEmpty(
    buffqueue_p pQueue
) {
 8004288:	b480      	push	{r7}
 800428a:	b083      	sub	sp, #12
 800428c:	af00      	add	r7, sp, #0
 800428e:	6078      	str	r0, [r7, #4]
    return (pQueue->wHeadIndex == pQueue->wTailIndex);
 8004290:	687b      	ldr	r3, [r7, #4]
 8004292:	88da      	ldrh	r2, [r3, #6]
 8004294:	687b      	ldr	r3, [r7, #4]
 8004296:	891b      	ldrh	r3, [r3, #8]
 8004298:	429a      	cmp	r2, r3
 800429a:	bf0c      	ite	eq
 800429c:	2301      	moveq	r3, #1
 800429e:	2300      	movne	r3, #0
 80042a0:	b2db      	uxtb	r3, r3
}
 80042a2:	4618      	mov	r0, r3
 80042a4:	370c      	adds	r7, #12
 80042a6:	46bd      	mov	sp, r7
 80042a8:	f85d 7b04 	ldr.w	r7, [sp], #4
 80042ac:	4770      	bx	lr

080042ae <bufFlush>:
 * @retval None
 */
void
bufFlush(
    buffqueue_p pQueue
) {
 80042ae:	b580      	push	{r7, lr}
 80042b0:	b082      	sub	sp, #8
 80042b2:	af00      	add	r7, sp, #0
 80042b4:	6078      	str	r0, [r7, #4]
    pQueue->wHeadIndex = 0;
 80042b6:	687b      	ldr	r3, [r7, #4]
 80042b8:	2200      	movs	r2, #0
 80042ba:	80da      	strh	r2, [r3, #6]
    pQueue->wTailIndex = 0;
 80042bc:	687b      	ldr	r3, [r7, #4]
 80042be:	2200      	movs	r2, #0
 80042c0:	811a      	strh	r2, [r3, #8]
    pQueue->wCountEle = 0;
 80042c2:	687b      	ldr	r3, [r7, #4]
 80042c4:	2200      	movs	r2, #0
 80042c6:	805a      	strh	r2, [r3, #2]
    
    memsetl(pQueue->pData, 0, pQueue->wSize);
 80042c8:	687b      	ldr	r3, [r7, #4]
 80042ca:	68d8      	ldr	r0, [r3, #12]
 80042cc:	687b      	ldr	r3, [r7, #4]
 80042ce:	881b      	ldrh	r3, [r3, #0]
 80042d0:	461a      	mov	r2, r3
 80042d2:	2100      	movs	r1, #0
 80042d4:	f000 f898 	bl	8004408 <memsetl>
}
 80042d8:	bf00      	nop
 80042da:	3708      	adds	r7, #8
 80042dc:	46bd      	mov	sp, r7
 80042de:	bd80      	pop	{r7, pc}

080042e0 <bufEnDat>:
 */
uint8_t
bufEnDat(
    buffqueue_p pQueue,
	uint8_t *pReceiverData
) {
 80042e0:	b580      	push	{r7, lr}
 80042e2:	b084      	sub	sp, #16
 80042e4:	af00      	add	r7, sp, #0
 80042e6:	6078      	str	r0, [r7, #4]
 80042e8:	6039      	str	r1, [r7, #0]
  __ASM volatile ("cpsid i" : : : "memory");
 80042ea:	b672      	cpsid	i
}
 80042ec:	bf00      	nop
	__disable_irq();
    
    /* Place data in buffer */
    for (uint8_t i = 0; i < pQueue->byItemSize; i++) {
 80042ee:	2300      	movs	r3, #0
 80042f0:	73fb      	strb	r3, [r7, #15]
 80042f2:	e021      	b.n	8004338 <bufEnDat+0x58>
        pQueue->pData[pQueue->wHeadIndex] = pReceiverData[i];
 80042f4:	7bfb      	ldrb	r3, [r7, #15]
 80042f6:	683a      	ldr	r2, [r7, #0]
 80042f8:	441a      	add	r2, r3
 80042fa:	687b      	ldr	r3, [r7, #4]
 80042fc:	68db      	ldr	r3, [r3, #12]
 80042fe:	6879      	ldr	r1, [r7, #4]
 8004300:	88c9      	ldrh	r1, [r1, #6]
 8004302:	440b      	add	r3, r1
 8004304:	7812      	ldrb	r2, [r2, #0]
 8004306:	701a      	strb	r2, [r3, #0]
        pQueue->wHeadIndex = ((pQueue->wHeadIndex + 1)  & (pQueue->wSize - 1));
 8004308:	687b      	ldr	r3, [r7, #4]
 800430a:	88db      	ldrh	r3, [r3, #6]
 800430c:	3301      	adds	r3, #1
 800430e:	b29b      	uxth	r3, r3
 8004310:	b21a      	sxth	r2, r3
 8004312:	687b      	ldr	r3, [r7, #4]
 8004314:	881b      	ldrh	r3, [r3, #0]
 8004316:	3b01      	subs	r3, #1
 8004318:	b29b      	uxth	r3, r3
 800431a:	b21b      	sxth	r3, r3
 800431c:	4013      	ands	r3, r2
 800431e:	b21b      	sxth	r3, r3
 8004320:	b29a      	uxth	r2, r3
 8004322:	687b      	ldr	r3, [r7, #4]
 8004324:	80da      	strh	r2, [r3, #6]
        pQueue->wCountEle++;
 8004326:	687b      	ldr	r3, [r7, #4]
 8004328:	885b      	ldrh	r3, [r3, #2]
 800432a:	3301      	adds	r3, #1
 800432c:	b29a      	uxth	r2, r3
 800432e:	687b      	ldr	r3, [r7, #4]
 8004330:	805a      	strh	r2, [r3, #2]
    for (uint8_t i = 0; i < pQueue->byItemSize; i++) {
 8004332:	7bfb      	ldrb	r3, [r7, #15]
 8004334:	3301      	adds	r3, #1
 8004336:	73fb      	strb	r3, [r7, #15]
 8004338:	687b      	ldr	r3, [r7, #4]
 800433a:	791b      	ldrb	r3, [r3, #4]
 800433c:	7bfa      	ldrb	r2, [r7, #15]
 800433e:	429a      	cmp	r2, r3
 8004340:	d3d8      	bcc.n	80042f4 <bufEnDat+0x14>
    }
    
    if (bufIsFull(pQueue)) {
 8004342:	6878      	ldr	r0, [r7, #4]
 8004344:	f7ff ff8d 	bl	8004262 <bufIsFull>
 8004348:	4603      	mov	r3, r0
 800434a:	2b00      	cmp	r3, #0
 800434c:	d010      	beq.n	8004370 <bufEnDat+0x90>
        /* Is going to overwrite the oldest byte */
        /* Increase tail index */
        pQueue->wTailIndex = (pQueue->wTailIndex + pQueue->byItemSize) & (pQueue->wSize - 1);
 800434e:	687b      	ldr	r3, [r7, #4]
 8004350:	891b      	ldrh	r3, [r3, #8]
 8004352:	687a      	ldr	r2, [r7, #4]
 8004354:	7912      	ldrb	r2, [r2, #4]
 8004356:	4413      	add	r3, r2
 8004358:	b29b      	uxth	r3, r3
 800435a:	b21a      	sxth	r2, r3
 800435c:	687b      	ldr	r3, [r7, #4]
 800435e:	881b      	ldrh	r3, [r3, #0]
 8004360:	3b01      	subs	r3, #1
 8004362:	b29b      	uxth	r3, r3
 8004364:	b21b      	sxth	r3, r3
 8004366:	4013      	ands	r3, r2
 8004368:	b21b      	sxth	r3, r3
 800436a:	b29a      	uxth	r2, r3
 800436c:	687b      	ldr	r3, [r7, #4]
 800436e:	811a      	strh	r2, [r3, #8]
  __ASM volatile ("cpsie i" : : : "memory");
 8004370:	b662      	cpsie	i
}
 8004372:	bf00      	nop
    }
    
    __enable_irq();
    return ERR_OK;
 8004374:	2300      	movs	r3, #0
}
 8004376:	4618      	mov	r0, r3
 8004378:	3710      	adds	r7, #16
 800437a:	46bd      	mov	sp, r7
 800437c:	bd80      	pop	{r7, pc}

0800437e <bufDeDat>:
 */
uint8_t
bufDeDat(
    buffqueue_p pQueue,
	uint8_t *pBuffer
) {
 800437e:	b580      	push	{r7, lr}
 8004380:	b084      	sub	sp, #16
 8004382:	af00      	add	r7, sp, #0
 8004384:	6078      	str	r0, [r7, #4]
 8004386:	6039      	str	r1, [r7, #0]
  __ASM volatile ("cpsid i" : : : "memory");
 8004388:	b672      	cpsid	i
}
 800438a:	bf00      	nop
	__disable_irq();
    
    if (bufIsEmpty(pQueue)) {
 800438c:	6878      	ldr	r0, [r7, #4]
 800438e:	f7ff ff7b 	bl	8004288 <bufIsEmpty>
 8004392:	4603      	mov	r3, r0
 8004394:	2b00      	cmp	r3, #0
 8004396:	d006      	beq.n	80043a6 <bufDeDat+0x28>
        /* No items */
        pQueue->wCountEle = 0;
 8004398:	687b      	ldr	r3, [r7, #4]
 800439a:	2200      	movs	r2, #0
 800439c:	805a      	strh	r2, [r3, #2]
  __ASM volatile ("cpsie i" : : : "memory");
 800439e:	b662      	cpsie	i
}
 80043a0:	bf00      	nop
        __enable_irq();
        return ERR_BUF_EMPTY;
 80043a2:	2302      	movs	r3, #2
 80043a4:	e02c      	b.n	8004400 <bufDeDat+0x82>
    }
    
    for (uint8_t i = 0; i < pQueue->byItemSize; i++) {
 80043a6:	2300      	movs	r3, #0
 80043a8:	73fb      	strb	r3, [r7, #15]
 80043aa:	e021      	b.n	80043f0 <bufDeDat+0x72>
        pBuffer[i] = pQueue->pData[pQueue->wTailIndex];
 80043ac:	687b      	ldr	r3, [r7, #4]
 80043ae:	68db      	ldr	r3, [r3, #12]
 80043b0:	687a      	ldr	r2, [r7, #4]
 80043b2:	8912      	ldrh	r2, [r2, #8]
 80043b4:	441a      	add	r2, r3
 80043b6:	7bfb      	ldrb	r3, [r7, #15]
 80043b8:	6839      	ldr	r1, [r7, #0]
 80043ba:	440b      	add	r3, r1
 80043bc:	7812      	ldrb	r2, [r2, #0]
 80043be:	701a      	strb	r2, [r3, #0]
        pQueue->wTailIndex = ((pQueue->wTailIndex + 1) & (pQueue->wSize - 1));
 80043c0:	687b      	ldr	r3, [r7, #4]
 80043c2:	891b      	ldrh	r3, [r3, #8]
 80043c4:	3301      	adds	r3, #1
 80043c6:	b29b      	uxth	r3, r3
 80043c8:	b21a      	sxth	r2, r3
 80043ca:	687b      	ldr	r3, [r7, #4]
 80043cc:	881b      	ldrh	r3, [r3, #0]
 80043ce:	3b01      	subs	r3, #1
 80043d0:	b29b      	uxth	r3, r3
 80043d2:	b21b      	sxth	r3, r3
 80043d4:	4013      	ands	r3, r2
 80043d6:	b21b      	sxth	r3, r3
 80043d8:	b29a      	uxth	r2, r3
 80043da:	687b      	ldr	r3, [r7, #4]
 80043dc:	811a      	strh	r2, [r3, #8]
        pQueue->wCountEle--;
 80043de:	687b      	ldr	r3, [r7, #4]
 80043e0:	885b      	ldrh	r3, [r3, #2]
 80043e2:	3b01      	subs	r3, #1
 80043e4:	b29a      	uxth	r2, r3
 80043e6:	687b      	ldr	r3, [r7, #4]
 80043e8:	805a      	strh	r2, [r3, #2]
    for (uint8_t i = 0; i < pQueue->byItemSize; i++) {
 80043ea:	7bfb      	ldrb	r3, [r7, #15]
 80043ec:	3301      	adds	r3, #1
 80043ee:	73fb      	strb	r3, [r7, #15]
 80043f0:	687b      	ldr	r3, [r7, #4]
 80043f2:	791b      	ldrb	r3, [r3, #4]
 80043f4:	7bfa      	ldrb	r2, [r7, #15]
 80043f6:	429a      	cmp	r2, r3
 80043f8:	d3d8      	bcc.n	80043ac <bufDeDat+0x2e>
  __ASM volatile ("cpsie i" : : : "memory");
 80043fa:	b662      	cpsie	i
}
 80043fc:	bf00      	nop
    }
    
    __enable_irq();
    return ERR_OK;
 80043fe:	2300      	movs	r3, #0
}
 8004400:	4618      	mov	r0, r3
 8004402:	3710      	adds	r7, #16
 8004404:	46bd      	mov	sp, r7
 8004406:	bd80      	pop	{r7, pc}

08004408 <memsetl>:
void
memsetl(
	uint8_t *dst,
	uint8_t value,
	uint16_t size
) {
 8004408:	b480      	push	{r7}
 800440a:	b083      	sub	sp, #12
 800440c:	af00      	add	r7, sp, #0
 800440e:	6078      	str	r0, [r7, #4]
 8004410:	460b      	mov	r3, r1
 8004412:	70fb      	strb	r3, [r7, #3]
 8004414:	4613      	mov	r3, r2
 8004416:	803b      	strh	r3, [r7, #0]
    while (size--) {
 8004418:	e004      	b.n	8004424 <memsetl+0x1c>
        *dst++ = value;
 800441a:	687b      	ldr	r3, [r7, #4]
 800441c:	1c5a      	adds	r2, r3, #1
 800441e:	607a      	str	r2, [r7, #4]
 8004420:	78fa      	ldrb	r2, [r7, #3]
 8004422:	701a      	strb	r2, [r3, #0]
    while (size--) {
 8004424:	883b      	ldrh	r3, [r7, #0]
 8004426:	1e5a      	subs	r2, r3, #1
 8004428:	803a      	strh	r2, [r7, #0]
 800442a:	2b00      	cmp	r3, #0
 800442c:	d1f5      	bne.n	800441a <memsetl+0x12>
    }    
}
 800442e:	bf00      	nop
 8004430:	bf00      	nop
 8004432:	370c      	adds	r7, #12
 8004434:	46bd      	mov	sp, r7
 8004436:	f85d 7b04 	ldr.w	r7, [sp], #4
 800443a:	4770      	bx	lr

0800443c <main>:
static void updateTimeHandler(void);
void intTime(void);
void alarmModeHandler (void);
void clearTimeLCDHandler(void);
//--------------------------------------------------------------------------------
int main(void) {
 800443c:	b580      	push	{r7, lr}
 800443e:	af00      	add	r7, sp, #0
	AppInitCommon();
 8004440:	f000 f80e 	bl	8004460 <AppInitCommon>
	SetStateApp(STATE_APP_STARTUP); // Khi ng  ch  STATE_APP_STARTUP
 8004444:	2000      	movs	r0, #0
 8004446:	f000 f86b 	bl	8004520 <SetStateApp>
	EventSchedulerAdd(EVENT_APP_INIT); //Khi to b m buffer  qun l cc s kin ca chng trnh chnh
 800444a:	2001      	movs	r0, #1
 800444c:	f7fd fa60 	bl	8001910 <EventSchedulerAdd>

	/* Loop forever */
	while (1) {
		processTimerScheduler(); // X l cc b hn gi  c to
 8004450:	f7fd fbbc 	bl	8001bcc <processTimerScheduler>
		processEventScheduler(); // X l cc s kin ca chng trnh chnh do b qun l s kin qun l.
 8004454:	f7fd fa72 	bl	800193c <processEventScheduler>
		alarm();
 8004458:	f000 fab6 	bl	80049c8 <alarm>
	while (1) {
 800445c:	bf00      	nop
 800445e:	e7f7      	b.n	8004450 <main+0x14>

08004460 <AppInitCommon>:
 * @func   AppInitCommon
 * @brief  Initialize app
 * @param  None
 * @retval None
 */
static void AppInitCommon(void) {
 8004460:	b580      	push	{r7, lr}
 8004462:	b082      	sub	sp, #8
 8004464:	af02      	add	r7, sp, #8
	// Initializes system clock
	SystemCoreClockUpdate(); //Cu hnh clock ca h thng
 8004466:	f7fb ff41 	bl	80002ec <SystemCoreClockUpdate>
	// Initializes system tick  x l cc s kin thi gian.
	TimerInit();
 800446a:	f7fd facf 	bl	8001a0c <TimerInit>
	intTime();
 800446e:	f000 fad1 	bl	8004a14 <intTime>
	intalarm();
 8004472:	f000 fb05 	bl	8004a80 <intalarm>
	EventSchedulerInit(AppStateManager); // Khi to b m buffer  qun l cc s kin ca chng trnh chnh
 8004476:	4814      	ldr	r0, [pc, #80]	@ (80044c8 <AppInitCommon+0x68>)
 8004478:	f7fd fa2e 	bl	80018d8 <EventSchedulerInit>
	EventButton_Init();	 	// Cu hnh chn GPIO ca cc nt nhn trn mch.
 800447c:	f7fc ff46 	bl	800130c <EventButton_Init>
	BuzzerControl_Init(); 	// Cu hnh chn GPIO ca ci trn mch.
 8004480:	f7fd f816 	bl	80014b0 <BuzzerControl_Init>
	LedControl_Init(); 		// Cu hnh chn GPIO ca cc led RGB trn mch.
 8004484:	f7fd f960 	bl	8001748 <LedControl_Init>
	// Initializes glcd
	Ucglib4WireSWSPI_begin(&ucg, UCG_FONT_MODE_SOLID);
 8004488:	2100      	movs	r1, #0
 800448a:	4810      	ldr	r0, [pc, #64]	@ (80044cc <AppInitCommon+0x6c>)
 800448c:	f7fd fe24 	bl	80020d8 <Ucglib4WireSWSPI_begin>
	ucg_ClearScreen(&ucg);
 8004490:	480e      	ldr	r0, [pc, #56]	@ (80044cc <AppInitCommon+0x6c>)
 8004492:	f7fd fe69 	bl	8002168 <ucg_ClearScreen>
	ucg_SetColor(&ucg, 0, 255, 255, 255);
 8004496:	23ff      	movs	r3, #255	@ 0xff
 8004498:	9300      	str	r3, [sp, #0]
 800449a:	23ff      	movs	r3, #255	@ 0xff
 800449c:	22ff      	movs	r2, #255	@ 0xff
 800449e:	2100      	movs	r1, #0
 80044a0:	480a      	ldr	r0, [pc, #40]	@ (80044cc <AppInitCommon+0x6c>)
 80044a2:	f7ff fda3 	bl	8003fec <ucg_SetColor>
	ucg_SetColor(&ucg, 1, 0, 0, 0);
 80044a6:	2300      	movs	r3, #0
 80044a8:	9300      	str	r3, [sp, #0]
 80044aa:	2300      	movs	r3, #0
 80044ac:	2200      	movs	r2, #0
 80044ae:	2101      	movs	r1, #1
 80044b0:	4806      	ldr	r0, [pc, #24]	@ (80044cc <AppInitCommon+0x6c>)
 80044b2:	f7ff fd9b 	bl	8003fec <ucg_SetColor>
	ucg_SetRotate180(&ucg);
 80044b6:	4805      	ldr	r0, [pc, #20]	@ (80044cc <AppInitCommon+0x6c>)
 80044b8:	f7ff fe92 	bl	80041e0 <ucg_SetRotate180>



	// Update Time
	callUpdateTimeCyCle();
 80044bc:	f000 faf2 	bl	8004aa4 <callUpdateTimeCyCle>

}
 80044c0:	bf00      	nop
 80044c2:	46bd      	mov	sp, r7
 80044c4:	bd80      	pop	{r7, pc}
 80044c6:	bf00      	nop
 80044c8:	080044d1 	.word	0x080044d1
 80044cc:	20001430 	.word	0x20001430

080044d0 <AppStateManager>:

static void AppStateManager(uint8_t event) {
 80044d0:	b580      	push	{r7, lr}
 80044d2:	b082      	sub	sp, #8
 80044d4:	af00      	add	r7, sp, #0
 80044d6:	4603      	mov	r3, r0
 80044d8:	71fb      	strb	r3, [r7, #7]
    switch (GetStateApp())
 80044da:	f000 f831 	bl	8004540 <GetStateApp>
 80044de:	4603      	mov	r3, r0
 80044e0:	2b02      	cmp	r3, #2
 80044e2:	d014      	beq.n	800450e <AppStateManager+0x3e>
 80044e4:	2b02      	cmp	r3, #2
 80044e6:	dc14      	bgt.n	8004512 <AppStateManager+0x42>
 80044e8:	2b00      	cmp	r3, #0
 80044ea:	d002      	beq.n	80044f2 <AppStateManager+0x22>
 80044ec:	2b01      	cmp	r3, #1
 80044ee:	d009      	beq.n	8004504 <AppStateManager+0x34>

        case STATE_APP_RESET:
            break;

        default:
            break;
 80044f0:	e00f      	b.n	8004512 <AppStateManager+0x42>
            if (event == EVENT_APP_INIT)
 80044f2:	79fb      	ldrb	r3, [r7, #7]
 80044f4:	2b01      	cmp	r3, #1
 80044f6:	d10e      	bne.n	8004516 <AppStateManager+0x46>
                LoadConfiguration();
 80044f8:	f000 f82e 	bl	8004558 <LoadConfiguration>
                SetStateApp(STATE_APP_IDLE);
 80044fc:	2001      	movs	r0, #1
 80044fe:	f000 f80f 	bl	8004520 <SetStateApp>
            break;
 8004502:	e008      	b.n	8004516 <AppStateManager+0x46>
            DeviceStateMachine(event);
 8004504:	79fb      	ldrb	r3, [r7, #7]
 8004506:	4618      	mov	r0, r3
 8004508:	f000 f856 	bl	80045b8 <DeviceStateMachine>
            break;
 800450c:	e004      	b.n	8004518 <AppStateManager+0x48>
            break;
 800450e:	bf00      	nop
 8004510:	e002      	b.n	8004518 <AppStateManager+0x48>
            break;
 8004512:	bf00      	nop
 8004514:	e000      	b.n	8004518 <AppStateManager+0x48>
            break;
 8004516:	bf00      	nop
    }
}
 8004518:	bf00      	nop
 800451a:	3708      	adds	r7, #8
 800451c:	46bd      	mov	sp, r7
 800451e:	bd80      	pop	{r7, pc}

08004520 <SetStateApp>:
// hm SetStateApp v GetStateApp  kim tra trng thi ca chng trnh chnh App

static void SetStateApp(state_app_t state) {
 8004520:	b480      	push	{r7}
 8004522:	b083      	sub	sp, #12
 8004524:	af00      	add	r7, sp, #0
 8004526:	4603      	mov	r3, r0
 8004528:	71fb      	strb	r3, [r7, #7]
	/* Set state of application */
	eCurrentState = state;
 800452a:	4a04      	ldr	r2, [pc, #16]	@ (800453c <SetStateApp+0x1c>)
 800452c:	79fb      	ldrb	r3, [r7, #7]
 800452e:	7013      	strb	r3, [r2, #0]
}
 8004530:	bf00      	nop
 8004532:	370c      	adds	r7, #12
 8004534:	46bd      	mov	sp, r7
 8004536:	f85d 7b04 	ldr.w	r7, [sp], #4
 800453a:	4770      	bx	lr
 800453c:	2000142d 	.word	0x2000142d

08004540 <GetStateApp>:


static state_app_t GetStateApp(void) {
 8004540:	b480      	push	{r7}
 8004542:	af00      	add	r7, sp, #0
	/*Return state of application */
	return eCurrentState;
 8004544:	4b03      	ldr	r3, [pc, #12]	@ (8004554 <GetStateApp+0x14>)
 8004546:	781b      	ldrb	r3, [r3, #0]
}
 8004548:	4618      	mov	r0, r3
 800454a:	46bd      	mov	sp, r7
 800454c:	f85d 7b04 	ldr.w	r7, [sp], #4
 8004550:	4770      	bx	lr
 8004552:	bf00      	nop
 8004554:	2000142d 	.word	0x2000142d

08004558 <LoadConfiguration>:
static void LoadConfiguration(void) {
 8004558:	b580      	push	{r7, lr}
 800455a:	b082      	sub	sp, #8
 800455c:	af02      	add	r7, sp, #8
	// Display output
	ucg_SetFont(&ucg, ucg_font_ncenR08_hf);
 800455e:	4911      	ldr	r1, [pc, #68]	@ (80045a4 <LoadConfiguration+0x4c>)
 8004560:	4811      	ldr	r0, [pc, #68]	@ (80045a8 <LoadConfiguration+0x50>)
 8004562:	f7ff fc65 	bl	8003e30 <ucg_SetFont>
	ucg_DrawString(&ucg, 42, 20, 0, "GROUP 3");
 8004566:	4b11      	ldr	r3, [pc, #68]	@ (80045ac <LoadConfiguration+0x54>)
 8004568:	9300      	str	r3, [sp, #0]
 800456a:	2300      	movs	r3, #0
 800456c:	2214      	movs	r2, #20
 800456e:	212a      	movs	r1, #42	@ 0x2a
 8004570:	480d      	ldr	r0, [pc, #52]	@ (80045a8 <LoadConfiguration+0x50>)
 8004572:	f7ff fb99 	bl	8003ca8 <ucg_DrawString>
	ucg_DrawString(&ucg, 50, 40,0, "HOME");
 8004576:	4b0e      	ldr	r3, [pc, #56]	@ (80045b0 <LoadConfiguration+0x58>)
 8004578:	9300      	str	r3, [sp, #0]
 800457a:	2300      	movs	r3, #0
 800457c:	2228      	movs	r2, #40	@ 0x28
 800457e:	2132      	movs	r1, #50	@ 0x32
 8004580:	4809      	ldr	r0, [pc, #36]	@ (80045a8 <LoadConfiguration+0x50>)
 8004582:	f7ff fb91 	bl	8003ca8 <ucg_DrawString>
	writeDate();
 8004586:	f000 fb8b 	bl	8004ca0 <writeDate>
	ucg_DrawString(&ucg, 20, 110, 0, "Locate: ");
 800458a:	4b0a      	ldr	r3, [pc, #40]	@ (80045b4 <LoadConfiguration+0x5c>)
 800458c:	9300      	str	r3, [sp, #0]
 800458e:	2300      	movs	r3, #0
 8004590:	226e      	movs	r2, #110	@ 0x6e
 8004592:	2114      	movs	r1, #20
 8004594:	4804      	ldr	r0, [pc, #16]	@ (80045a8 <LoadConfiguration+0x50>)
 8004596:	f7ff fb87 	bl	8003ca8 <ucg_DrawString>
	writeLocate();
 800459a:	f000 fb3d 	bl	8004c18 <writeLocate>
}
 800459e:	bf00      	nop
 80045a0:	46bd      	mov	sp, r7
 80045a2:	bd80      	pop	{r7, pc}
 80045a4:	08005c50 	.word	0x08005c50
 80045a8:	20001430 	.word	0x20001430
 80045ac:	08005a8c 	.word	0x08005a8c
 80045b0:	08005a94 	.word	0x08005a94
 80045b4:	08005a9c 	.word	0x08005a9c

080045b8 <DeviceStateMachine>:

void DeviceStateMachine(uint8_t event) {
 80045b8:	b580      	push	{r7, lr}
 80045ba:	b084      	sub	sp, #16
 80045bc:	af02      	add	r7, sp, #8
 80045be:	4603      	mov	r3, r0
 80045c0:	71fb      	strb	r3, [r7, #7]
	switch (event) {
 80045c2:	79fb      	ldrb	r3, [r7, #7]
 80045c4:	3b01      	subs	r3, #1
 80045c6:	2b14      	cmp	r3, #20
 80045c8:	f200 81e0 	bhi.w	800498c <DeviceStateMachine+0x3d4>
 80045cc:	a201      	add	r2, pc, #4	@ (adr r2, 80045d4 <DeviceStateMachine+0x1c>)
 80045ce:	f852 f023 	ldr.w	pc, [r2, r3, lsl #2]
 80045d2:	bf00      	nop
 80045d4:	0800481b 	.word	0x0800481b
 80045d8:	0800477b 	.word	0x0800477b
 80045dc:	08004629 	.word	0x08004629
 80045e0:	080048f1 	.word	0x080048f1
 80045e4:	080046df 	.word	0x080046df
 80045e8:	0800498d 	.word	0x0800498d
 80045ec:	0800498d 	.word	0x0800498d
 80045f0:	0800498d 	.word	0x0800498d
 80045f4:	0800498d 	.word	0x0800498d
 80045f8:	0800498d 	.word	0x0800498d
 80045fc:	0800498d 	.word	0x0800498d
 8004600:	0800498d 	.word	0x0800498d
 8004604:	0800498d 	.word	0x0800498d
 8004608:	0800498d 	.word	0x0800498d
 800460c:	0800498d 	.word	0x0800498d
 8004610:	0800498d 	.word	0x0800498d
 8004614:	0800498d 	.word	0x0800498d
 8004618:	0800498d 	.word	0x0800498d
 800461c:	0800498d 	.word	0x0800498d
 8004620:	0800498d 	.word	0x0800498d
 8004624:	08004683 	.word	0x08004683

	case EVENT_OF_BUTTON_3_PRESS_LOGIC: {
		BuzzerControl_SetMelody(pbeep);
 8004628:	48a2      	ldr	r0, [pc, #648]	@ (80048b4 <DeviceStateMachine+0x2fc>)
 800462a:	f7fc ffd1 	bl	80015d0 <BuzzerControl_SetMelody>

			mode = MODE_ALARM;
 800462e:	4ba2      	ldr	r3, [pc, #648]	@ (80048b8 <DeviceStateMachine+0x300>)
 8004630:	2201      	movs	r2, #1
 8004632:	701a      	strb	r2, [r3, #0]
			ucg_DrawString(&ucg, 50, 40, 0, "SETUP");
 8004634:	4ba1      	ldr	r3, [pc, #644]	@ (80048bc <DeviceStateMachine+0x304>)
 8004636:	9300      	str	r3, [sp, #0]
 8004638:	2300      	movs	r3, #0
 800463a:	2228      	movs	r2, #40	@ 0x28
 800463c:	2132      	movs	r1, #50	@ 0x32
 800463e:	48a0      	ldr	r0, [pc, #640]	@ (80048c0 <DeviceStateMachine+0x308>)
 8004640:	f7ff fb32 	bl	8003ca8 <ucg_DrawString>
			stopdisplayUpdateTime();
 8004644:	f000 fa62 	bl	8004b0c <stopdisplayUpdateTime>
			alarmClock.display = DISPLAY_TIME;
 8004648:	4b9e      	ldr	r3, [pc, #632]	@ (80048c4 <DeviceStateMachine+0x30c>)
 800464a:	2200      	movs	r2, #0
 800464c:	775a      	strb	r2, [r3, #29]
			setItem = 0;
 800464e:	4b9e      	ldr	r3, [pc, #632]	@ (80048c8 <DeviceStateMachine+0x310>)
 8004650:	2200      	movs	r2, #0
 8004652:	701a      	strb	r2, [r3, #0]

			if (idAlarmModeTime != NO_TIMER)
 8004654:	4b9d      	ldr	r3, [pc, #628]	@ (80048cc <DeviceStateMachine+0x314>)
 8004656:	781b      	ldrb	r3, [r3, #0]
 8004658:	2bff      	cmp	r3, #255	@ 0xff
 800465a:	d004      	beq.n	8004666 <DeviceStateMachine+0xae>
			{
				TimerStop(idAlarmModeTime);
 800465c:	4b9b      	ldr	r3, [pc, #620]	@ (80048cc <DeviceStateMachine+0x314>)
 800465e:	781b      	ldrb	r3, [r3, #0]
 8004660:	4618      	mov	r0, r3
 8004662:	f7fd fa57 	bl	8001b14 <TimerStop>
			}
			idAlarmModeTime = TimerStart("MODE_ALARM ", 1000, TIMER_REPEAT_FOREVER, (void*) alarmModeHandler, NULL);
 8004666:	2300      	movs	r3, #0
 8004668:	9300      	str	r3, [sp, #0]
 800466a:	4b99      	ldr	r3, [pc, #612]	@ (80048d0 <DeviceStateMachine+0x318>)
 800466c:	22ff      	movs	r2, #255	@ 0xff
 800466e:	f44f 717a 	mov.w	r1, #1000	@ 0x3e8
 8004672:	4898      	ldr	r0, [pc, #608]	@ (80048d4 <DeviceStateMachine+0x31c>)
 8004674:	f7fd f9ec 	bl	8001a50 <TimerStart>
 8004678:	4603      	mov	r3, r0
 800467a:	461a      	mov	r2, r3
 800467c:	4b93      	ldr	r3, [pc, #588]	@ (80048cc <DeviceStateMachine+0x314>)
 800467e:	701a      	strb	r2, [r3, #0]
		break;
 8004680:	e191      	b.n	80049a6 <DeviceStateMachine+0x3ee>
	}
	case EVENT_OF_BUTTON_3_PRESS_2_TIMES:

		mode = MODE_HOME;
 8004682:	4b8d      	ldr	r3, [pc, #564]	@ (80048b8 <DeviceStateMachine+0x300>)
 8004684:	2200      	movs	r2, #0
 8004686:	701a      	strb	r2, [r3, #0]
		if (idAlarmModeTime != NO_TIMER)
 8004688:	4b90      	ldr	r3, [pc, #576]	@ (80048cc <DeviceStateMachine+0x314>)
 800468a:	781b      	ldrb	r3, [r3, #0]
 800468c:	2bff      	cmp	r3, #255	@ 0xff
 800468e:	d004      	beq.n	800469a <DeviceStateMachine+0xe2>
		{
			TimerStop(idAlarmModeTime);
 8004690:	4b8e      	ldr	r3, [pc, #568]	@ (80048cc <DeviceStateMachine+0x314>)
 8004692:	781b      	ldrb	r3, [r3, #0]
 8004694:	4618      	mov	r0, r3
 8004696:	f7fd fa3d 	bl	8001b14 <TimerStop>
		}
		alarmClock.display = NOT_DISPLAY;
 800469a:	4b8a      	ldr	r3, [pc, #552]	@ (80048c4 <DeviceStateMachine+0x30c>)
 800469c:	2201      	movs	r2, #1
 800469e:	775a      	strb	r2, [r3, #29]
		ucg_DrawString(&ucg, 50, 40, 0, "HOME    ");
 80046a0:	4b8d      	ldr	r3, [pc, #564]	@ (80048d8 <DeviceStateMachine+0x320>)
 80046a2:	9300      	str	r3, [sp, #0]
 80046a4:	2300      	movs	r3, #0
 80046a6:	2228      	movs	r2, #40	@ 0x28
 80046a8:	2132      	movs	r1, #50	@ 0x32
 80046aa:	4885      	ldr	r0, [pc, #532]	@ (80048c0 <DeviceStateMachine+0x308>)
 80046ac:	f7ff fafc 	bl	8003ca8 <ucg_DrawString>


		if (idClearLCDTime != NO_TIMER)
 80046b0:	4b8a      	ldr	r3, [pc, #552]	@ (80048dc <DeviceStateMachine+0x324>)
 80046b2:	781b      	ldrb	r3, [r3, #0]
 80046b4:	2bff      	cmp	r3, #255	@ 0xff
 80046b6:	d004      	beq.n	80046c2 <DeviceStateMachine+0x10a>
		{
			TimerStop(idClearLCDTime);
 80046b8:	4b88      	ldr	r3, [pc, #544]	@ (80048dc <DeviceStateMachine+0x324>)
 80046ba:	781b      	ldrb	r3, [r3, #0]
 80046bc:	4618      	mov	r0, r3
 80046be:	f7fd fa29 	bl	8001b14 <TimerStop>
		}
		idClearLCDTime = TimerStart("MODE_ALARM ", 1000, TIMER_REPEAT_ONE_TIME, (void*) clearTimeLCDHandler, NULL);
 80046c2:	2300      	movs	r3, #0
 80046c4:	9300      	str	r3, [sp, #0]
 80046c6:	4b86      	ldr	r3, [pc, #536]	@ (80048e0 <DeviceStateMachine+0x328>)
 80046c8:	2200      	movs	r2, #0
 80046ca:	f44f 717a 	mov.w	r1, #1000	@ 0x3e8
 80046ce:	4881      	ldr	r0, [pc, #516]	@ (80048d4 <DeviceStateMachine+0x31c>)
 80046d0:	f7fd f9be 	bl	8001a50 <TimerStart>
 80046d4:	4603      	mov	r3, r0
 80046d6:	461a      	mov	r2, r3
 80046d8:	4b80      	ldr	r3, [pc, #512]	@ (80048dc <DeviceStateMachine+0x324>)
 80046da:	701a      	strb	r2, [r3, #0]


		break;
 80046dc:	e163      	b.n	80049a6 <DeviceStateMachine+0x3ee>
	case EVENT_OF_BUTTON_5_PRESS_LOGIC: {
		BuzzerControl_SetMelody(pbeep);
 80046de:	4875      	ldr	r0, [pc, #468]	@ (80048b4 <DeviceStateMachine+0x2fc>)
 80046e0:	f7fc ff76 	bl	80015d0 <BuzzerControl_SetMelody>
		if(mode == MODE_ALARM)
 80046e4:	4b74      	ldr	r3, [pc, #464]	@ (80048b8 <DeviceStateMachine+0x300>)
 80046e6:	f993 3000 	ldrsb.w	r3, [r3]
 80046ea:	2b01      	cmp	r3, #1
 80046ec:	f040 8150 	bne.w	8004990 <DeviceStateMachine+0x3d8>
		{
			if(setItem == 0)
 80046f0:	4b75      	ldr	r3, [pc, #468]	@ (80048c8 <DeviceStateMachine+0x310>)
 80046f2:	f993 3000 	ldrsb.w	r3, [r3]
 80046f6:	2b00      	cmp	r3, #0
 80046f8:	d110      	bne.n	800471c <DeviceStateMachine+0x164>
			{
				alarmClock.h--;
 80046fa:	4b72      	ldr	r3, [pc, #456]	@ (80048c4 <DeviceStateMachine+0x30c>)
 80046fc:	f9b3 3008 	ldrsh.w	r3, [r3, #8]
 8004700:	b29b      	uxth	r3, r3
 8004702:	3b01      	subs	r3, #1
 8004704:	b29b      	uxth	r3, r3
 8004706:	b21a      	sxth	r2, r3
 8004708:	4b6e      	ldr	r3, [pc, #440]	@ (80048c4 <DeviceStateMachine+0x30c>)
 800470a:	811a      	strh	r2, [r3, #8]
				if(alarmClock.h < 0)
 800470c:	4b6d      	ldr	r3, [pc, #436]	@ (80048c4 <DeviceStateMachine+0x30c>)
 800470e:	f9b3 3008 	ldrsh.w	r3, [r3, #8]
 8004712:	2b00      	cmp	r3, #0
 8004714:	da02      	bge.n	800471c <DeviceStateMachine+0x164>
				{
					alarmClock.h = 23;
 8004716:	4b6b      	ldr	r3, [pc, #428]	@ (80048c4 <DeviceStateMachine+0x30c>)
 8004718:	2217      	movs	r2, #23
 800471a:	811a      	strh	r2, [r3, #8]
				}
			}
			if(setItem == 1)
 800471c:	4b6a      	ldr	r3, [pc, #424]	@ (80048c8 <DeviceStateMachine+0x310>)
 800471e:	f993 3000 	ldrsb.w	r3, [r3]
 8004722:	2b01      	cmp	r3, #1
 8004724:	d110      	bne.n	8004748 <DeviceStateMachine+0x190>
			{
				alarmClock.m--;
 8004726:	4b67      	ldr	r3, [pc, #412]	@ (80048c4 <DeviceStateMachine+0x30c>)
 8004728:	f9b3 300a 	ldrsh.w	r3, [r3, #10]
 800472c:	b29b      	uxth	r3, r3
 800472e:	3b01      	subs	r3, #1
 8004730:	b29b      	uxth	r3, r3
 8004732:	b21a      	sxth	r2, r3
 8004734:	4b63      	ldr	r3, [pc, #396]	@ (80048c4 <DeviceStateMachine+0x30c>)
 8004736:	815a      	strh	r2, [r3, #10]
				if(alarmClock.m < 0)
 8004738:	4b62      	ldr	r3, [pc, #392]	@ (80048c4 <DeviceStateMachine+0x30c>)
 800473a:	f9b3 300a 	ldrsh.w	r3, [r3, #10]
 800473e:	2b00      	cmp	r3, #0
 8004740:	da02      	bge.n	8004748 <DeviceStateMachine+0x190>
				{
					alarmClock.m = 59;
 8004742:	4b60      	ldr	r3, [pc, #384]	@ (80048c4 <DeviceStateMachine+0x30c>)
 8004744:	223b      	movs	r2, #59	@ 0x3b
 8004746:	815a      	strh	r2, [r3, #10]
				}
			}
			if(setItem == 2)
 8004748:	4b5f      	ldr	r3, [pc, #380]	@ (80048c8 <DeviceStateMachine+0x310>)
 800474a:	f993 3000 	ldrsb.w	r3, [r3]
 800474e:	2b02      	cmp	r3, #2
 8004750:	f040 811e 	bne.w	8004990 <DeviceStateMachine+0x3d8>
			{
				alarmClock.s--;
 8004754:	4b5b      	ldr	r3, [pc, #364]	@ (80048c4 <DeviceStateMachine+0x30c>)
 8004756:	f9b3 300c 	ldrsh.w	r3, [r3, #12]
 800475a:	b29b      	uxth	r3, r3
 800475c:	3b01      	subs	r3, #1
 800475e:	b29b      	uxth	r3, r3
 8004760:	b21a      	sxth	r2, r3
 8004762:	4b58      	ldr	r3, [pc, #352]	@ (80048c4 <DeviceStateMachine+0x30c>)
 8004764:	819a      	strh	r2, [r3, #12]
				if(alarmClock.s < 0)
 8004766:	4b57      	ldr	r3, [pc, #348]	@ (80048c4 <DeviceStateMachine+0x30c>)
 8004768:	f9b3 300c 	ldrsh.w	r3, [r3, #12]
 800476c:	2b00      	cmp	r3, #0
 800476e:	f280 810f 	bge.w	8004990 <DeviceStateMachine+0x3d8>
				{
					alarmClock.s = 59;
 8004772:	4b54      	ldr	r3, [pc, #336]	@ (80048c4 <DeviceStateMachine+0x30c>)
 8004774:	223b      	movs	r2, #59	@ 0x3b
 8004776:	819a      	strh	r2, [r3, #12]
				}
			}

		}
		break;
 8004778:	e10a      	b.n	8004990 <DeviceStateMachine+0x3d8>
	}
	case EVENT_OF_BUTTON_2_PRESS_LOGIC: {
		BuzzerControl_SetMelody(pbeep);
 800477a:	484e      	ldr	r0, [pc, #312]	@ (80048b4 <DeviceStateMachine+0x2fc>)
 800477c:	f7fc ff28 	bl	80015d0 <BuzzerControl_SetMelody>
		if(mode == MODE_ALARM){
 8004780:	4b4d      	ldr	r3, [pc, #308]	@ (80048b8 <DeviceStateMachine+0x300>)
 8004782:	f993 3000 	ldrsb.w	r3, [r3]
 8004786:	2b01      	cmp	r3, #1
 8004788:	d112      	bne.n	80047b0 <DeviceStateMachine+0x1f8>
			setItem--;
 800478a:	4b4f      	ldr	r3, [pc, #316]	@ (80048c8 <DeviceStateMachine+0x310>)
 800478c:	f993 3000 	ldrsb.w	r3, [r3]
 8004790:	b2db      	uxtb	r3, r3
 8004792:	3b01      	subs	r3, #1
 8004794:	b2db      	uxtb	r3, r3
 8004796:	b25a      	sxtb	r2, r3
 8004798:	4b4b      	ldr	r3, [pc, #300]	@ (80048c8 <DeviceStateMachine+0x310>)
 800479a:	701a      	strb	r2, [r3, #0]
			if(setItem < 0){
 800479c:	4b4a      	ldr	r3, [pc, #296]	@ (80048c8 <DeviceStateMachine+0x310>)
 800479e:	f993 3000 	ldrsb.w	r3, [r3]
 80047a2:	2b00      	cmp	r3, #0
 80047a4:	f280 80f6 	bge.w	8004994 <DeviceStateMachine+0x3dc>
				setItem = 2;
 80047a8:	4b47      	ldr	r3, [pc, #284]	@ (80048c8 <DeviceStateMachine+0x310>)
 80047aa:	2202      	movs	r2, #2
 80047ac:	701a      	strb	r2, [r3, #0]
			}
			break;
 80047ae:	e0f1      	b.n	8004994 <DeviceStateMachine+0x3dc>
		}
		if(mode == MODE_HOME){
 80047b0:	4b41      	ldr	r3, [pc, #260]	@ (80048b8 <DeviceStateMachine+0x300>)
 80047b2:	f993 3000 	ldrsb.w	r3, [r3]
 80047b6:	2b00      	cmp	r3, #0
 80047b8:	f040 80ee 	bne.w	8004998 <DeviceStateMachine+0x3e0>
			locateChoose = !locateChoose;
 80047bc:	4b49      	ldr	r3, [pc, #292]	@ (80048e4 <DeviceStateMachine+0x32c>)
 80047be:	f993 3000 	ldrsb.w	r3, [r3]
 80047c2:	2b00      	cmp	r3, #0
 80047c4:	bf0c      	ite	eq
 80047c6:	2301      	moveq	r3, #1
 80047c8:	2300      	movne	r3, #0
 80047ca:	b2db      	uxtb	r3, r3
 80047cc:	b25a      	sxtb	r2, r3
 80047ce:	4b45      	ldr	r3, [pc, #276]	@ (80048e4 <DeviceStateMachine+0x32c>)
 80047d0:	701a      	strb	r2, [r3, #0]
			dateTime.locate = locates[locateChoose];
 80047d2:	4b44      	ldr	r3, [pc, #272]	@ (80048e4 <DeviceStateMachine+0x32c>)
 80047d4:	f993 3000 	ldrsb.w	r3, [r3]
 80047d8:	461a      	mov	r2, r3
 80047da:	4b43      	ldr	r3, [pc, #268]	@ (80048e8 <DeviceStateMachine+0x330>)
 80047dc:	f853 3022 	ldr.w	r3, [r3, r2, lsl #2]
 80047e0:	4a42      	ldr	r2, [pc, #264]	@ (80048ec <DeviceStateMachine+0x334>)
 80047e2:	6193      	str	r3, [r2, #24]
			if(locateChoose == 1){
 80047e4:	4b3f      	ldr	r3, [pc, #252]	@ (80048e4 <DeviceStateMachine+0x32c>)
 80047e6:	f993 3000 	ldrsb.w	r3, [r3]
 80047ea:	2b01      	cmp	r3, #1
 80047ec:	d109      	bne.n	8004802 <DeviceStateMachine+0x24a>
				dateTime.h += 1 ;
 80047ee:	4b3f      	ldr	r3, [pc, #252]	@ (80048ec <DeviceStateMachine+0x334>)
 80047f0:	f9b3 3008 	ldrsh.w	r3, [r3, #8]
 80047f4:	b29b      	uxth	r3, r3
 80047f6:	3301      	adds	r3, #1
 80047f8:	b29b      	uxth	r3, r3
 80047fa:	b21a      	sxth	r2, r3
 80047fc:	4b3b      	ldr	r3, [pc, #236]	@ (80048ec <DeviceStateMachine+0x334>)
 80047fe:	811a      	strh	r2, [r3, #8]
 8004800:	e008      	b.n	8004814 <DeviceStateMachine+0x25c>
			}else{
				dateTime.h -= 1 ;
 8004802:	4b3a      	ldr	r3, [pc, #232]	@ (80048ec <DeviceStateMachine+0x334>)
 8004804:	f9b3 3008 	ldrsh.w	r3, [r3, #8]
 8004808:	b29b      	uxth	r3, r3
 800480a:	3b01      	subs	r3, #1
 800480c:	b29b      	uxth	r3, r3
 800480e:	b21a      	sxth	r2, r3
 8004810:	4b36      	ldr	r3, [pc, #216]	@ (80048ec <DeviceStateMachine+0x334>)
 8004812:	811a      	strh	r2, [r3, #8]
			}
			changeLocate();
 8004814:	f000 fbd6 	bl	8004fc4 <changeLocate>
			break;
 8004818:	e0c5      	b.n	80049a6 <DeviceStateMachine+0x3ee>
		}
		break;
}
	case EVENT_OF_BUTTON_1_PRESS_LOGIC: {
		BuzzerControl_SetMelody(pbeep);
 800481a:	4826      	ldr	r0, [pc, #152]	@ (80048b4 <DeviceStateMachine+0x2fc>)
 800481c:	f7fc fed8 	bl	80015d0 <BuzzerControl_SetMelody>
		if(mode == MODE_ALARM)
 8004820:	4b25      	ldr	r3, [pc, #148]	@ (80048b8 <DeviceStateMachine+0x300>)
 8004822:	f993 3000 	ldrsb.w	r3, [r3]
 8004826:	2b01      	cmp	r3, #1
 8004828:	f040 80b8 	bne.w	800499c <DeviceStateMachine+0x3e4>
		{
			if(setItem == 0)
 800482c:	4b26      	ldr	r3, [pc, #152]	@ (80048c8 <DeviceStateMachine+0x310>)
 800482e:	f993 3000 	ldrsb.w	r3, [r3]
 8004832:	2b00      	cmp	r3, #0
 8004834:	d110      	bne.n	8004858 <DeviceStateMachine+0x2a0>
			{
				alarmClock.h++;
 8004836:	4b23      	ldr	r3, [pc, #140]	@ (80048c4 <DeviceStateMachine+0x30c>)
 8004838:	f9b3 3008 	ldrsh.w	r3, [r3, #8]
 800483c:	b29b      	uxth	r3, r3
 800483e:	3301      	adds	r3, #1
 8004840:	b29b      	uxth	r3, r3
 8004842:	b21a      	sxth	r2, r3
 8004844:	4b1f      	ldr	r3, [pc, #124]	@ (80048c4 <DeviceStateMachine+0x30c>)
 8004846:	811a      	strh	r2, [r3, #8]
				if(alarmClock.h > 23)
 8004848:	4b1e      	ldr	r3, [pc, #120]	@ (80048c4 <DeviceStateMachine+0x30c>)
 800484a:	f9b3 3008 	ldrsh.w	r3, [r3, #8]
 800484e:	2b17      	cmp	r3, #23
 8004850:	dd02      	ble.n	8004858 <DeviceStateMachine+0x2a0>
				{
					alarmClock.h = 0;
 8004852:	4b1c      	ldr	r3, [pc, #112]	@ (80048c4 <DeviceStateMachine+0x30c>)
 8004854:	2200      	movs	r2, #0
 8004856:	811a      	strh	r2, [r3, #8]
				}
			}
			if(setItem == 1)
 8004858:	4b1b      	ldr	r3, [pc, #108]	@ (80048c8 <DeviceStateMachine+0x310>)
 800485a:	f993 3000 	ldrsb.w	r3, [r3]
 800485e:	2b01      	cmp	r3, #1
 8004860:	d110      	bne.n	8004884 <DeviceStateMachine+0x2cc>
			{
				alarmClock.m++;
 8004862:	4b18      	ldr	r3, [pc, #96]	@ (80048c4 <DeviceStateMachine+0x30c>)
 8004864:	f9b3 300a 	ldrsh.w	r3, [r3, #10]
 8004868:	b29b      	uxth	r3, r3
 800486a:	3301      	adds	r3, #1
 800486c:	b29b      	uxth	r3, r3
 800486e:	b21a      	sxth	r2, r3
 8004870:	4b14      	ldr	r3, [pc, #80]	@ (80048c4 <DeviceStateMachine+0x30c>)
 8004872:	815a      	strh	r2, [r3, #10]
				if(alarmClock.m > 59)
 8004874:	4b13      	ldr	r3, [pc, #76]	@ (80048c4 <DeviceStateMachine+0x30c>)
 8004876:	f9b3 300a 	ldrsh.w	r3, [r3, #10]
 800487a:	2b3b      	cmp	r3, #59	@ 0x3b
 800487c:	dd02      	ble.n	8004884 <DeviceStateMachine+0x2cc>
				{
					alarmClock.m = 0;
 800487e:	4b11      	ldr	r3, [pc, #68]	@ (80048c4 <DeviceStateMachine+0x30c>)
 8004880:	2200      	movs	r2, #0
 8004882:	815a      	strh	r2, [r3, #10]
				}
			}
			if(setItem == 2)
 8004884:	4b10      	ldr	r3, [pc, #64]	@ (80048c8 <DeviceStateMachine+0x310>)
 8004886:	f993 3000 	ldrsb.w	r3, [r3]
 800488a:	2b02      	cmp	r3, #2
 800488c:	f040 8086 	bne.w	800499c <DeviceStateMachine+0x3e4>
			{
				alarmClock.s++;
 8004890:	4b0c      	ldr	r3, [pc, #48]	@ (80048c4 <DeviceStateMachine+0x30c>)
 8004892:	f9b3 300c 	ldrsh.w	r3, [r3, #12]
 8004896:	b29b      	uxth	r3, r3
 8004898:	3301      	adds	r3, #1
 800489a:	b29b      	uxth	r3, r3
 800489c:	b21a      	sxth	r2, r3
 800489e:	4b09      	ldr	r3, [pc, #36]	@ (80048c4 <DeviceStateMachine+0x30c>)
 80048a0:	819a      	strh	r2, [r3, #12]
				if(alarmClock.s > 60)
 80048a2:	4b08      	ldr	r3, [pc, #32]	@ (80048c4 <DeviceStateMachine+0x30c>)
 80048a4:	f9b3 300c 	ldrsh.w	r3, [r3, #12]
 80048a8:	2b3c      	cmp	r3, #60	@ 0x3c
 80048aa:	dd77      	ble.n	800499c <DeviceStateMachine+0x3e4>
				{
					alarmClock.s = 0;
 80048ac:	4b05      	ldr	r3, [pc, #20]	@ (80048c4 <DeviceStateMachine+0x30c>)
 80048ae:	2200      	movs	r2, #0
 80048b0:	819a      	strh	r2, [r3, #12]
				}
			}
		}
		break;
 80048b2:	e073      	b.n	800499c <DeviceStateMachine+0x3e4>
 80048b4:	20000058 	.word	0x20000058
 80048b8:	20001536 	.word	0x20001536
 80048bc:	08005aa8 	.word	0x08005aa8
 80048c0:	20001430 	.word	0x20001430
 80048c4:	2000155c 	.word	0x2000155c
 80048c8:	20001537 	.word	0x20001537
 80048cc:	2000006d 	.word	0x2000006d
 80048d0:	08004ef1 	.word	0x08004ef1
 80048d4:	08005ab0 	.word	0x08005ab0
 80048d8:	08005abc 	.word	0x08005abc
 80048dc:	2000006e 	.word	0x2000006e
 80048e0:	08005009 	.word	0x08005009
 80048e4:	20001538 	.word	0x20001538
 80048e8:	20000064 	.word	0x20000064
 80048ec:	2000153c 	.word	0x2000153c
	}
	case EVENT_OF_BUTTON_4_PRESS_LOGIC: {
		BuzzerControl_SetMelody(pbeep);
 80048f0:	482f      	ldr	r0, [pc, #188]	@ (80049b0 <DeviceStateMachine+0x3f8>)
 80048f2:	f7fc fe6d 	bl	80015d0 <BuzzerControl_SetMelody>
		if(mode == MODE_ALARM){
 80048f6:	4b2f      	ldr	r3, [pc, #188]	@ (80049b4 <DeviceStateMachine+0x3fc>)
 80048f8:	f993 3000 	ldrsb.w	r3, [r3]
 80048fc:	2b01      	cmp	r3, #1
 80048fe:	d111      	bne.n	8004924 <DeviceStateMachine+0x36c>
			setItem++;
 8004900:	4b2d      	ldr	r3, [pc, #180]	@ (80049b8 <DeviceStateMachine+0x400>)
 8004902:	f993 3000 	ldrsb.w	r3, [r3]
 8004906:	b2db      	uxtb	r3, r3
 8004908:	3301      	adds	r3, #1
 800490a:	b2db      	uxtb	r3, r3
 800490c:	b25a      	sxtb	r2, r3
 800490e:	4b2a      	ldr	r3, [pc, #168]	@ (80049b8 <DeviceStateMachine+0x400>)
 8004910:	701a      	strb	r2, [r3, #0]
			if(setItem > 2){
 8004912:	4b29      	ldr	r3, [pc, #164]	@ (80049b8 <DeviceStateMachine+0x400>)
 8004914:	f993 3000 	ldrsb.w	r3, [r3]
 8004918:	2b02      	cmp	r3, #2
 800491a:	dd41      	ble.n	80049a0 <DeviceStateMachine+0x3e8>
				setItem = 0;
 800491c:	4b26      	ldr	r3, [pc, #152]	@ (80049b8 <DeviceStateMachine+0x400>)
 800491e:	2200      	movs	r2, #0
 8004920:	701a      	strb	r2, [r3, #0]
			}
			break;
 8004922:	e03d      	b.n	80049a0 <DeviceStateMachine+0x3e8>
		}
		if(mode == MODE_HOME){
 8004924:	4b23      	ldr	r3, [pc, #140]	@ (80049b4 <DeviceStateMachine+0x3fc>)
 8004926:	f993 3000 	ldrsb.w	r3, [r3]
 800492a:	2b00      	cmp	r3, #0
 800492c:	d13a      	bne.n	80049a4 <DeviceStateMachine+0x3ec>
			locateChoose = !locateChoose;
 800492e:	4b23      	ldr	r3, [pc, #140]	@ (80049bc <DeviceStateMachine+0x404>)
 8004930:	f993 3000 	ldrsb.w	r3, [r3]
 8004934:	2b00      	cmp	r3, #0
 8004936:	bf0c      	ite	eq
 8004938:	2301      	moveq	r3, #1
 800493a:	2300      	movne	r3, #0
 800493c:	b2db      	uxtb	r3, r3
 800493e:	b25a      	sxtb	r2, r3
 8004940:	4b1e      	ldr	r3, [pc, #120]	@ (80049bc <DeviceStateMachine+0x404>)
 8004942:	701a      	strb	r2, [r3, #0]
			dateTime.locate = locates[locateChoose];
 8004944:	4b1d      	ldr	r3, [pc, #116]	@ (80049bc <DeviceStateMachine+0x404>)
 8004946:	f993 3000 	ldrsb.w	r3, [r3]
 800494a:	461a      	mov	r2, r3
 800494c:	4b1c      	ldr	r3, [pc, #112]	@ (80049c0 <DeviceStateMachine+0x408>)
 800494e:	f853 3022 	ldr.w	r3, [r3, r2, lsl #2]
 8004952:	4a1c      	ldr	r2, [pc, #112]	@ (80049c4 <DeviceStateMachine+0x40c>)
 8004954:	6193      	str	r3, [r2, #24]
			if(locateChoose == 1){
 8004956:	4b19      	ldr	r3, [pc, #100]	@ (80049bc <DeviceStateMachine+0x404>)
 8004958:	f993 3000 	ldrsb.w	r3, [r3]
 800495c:	2b01      	cmp	r3, #1
 800495e:	d109      	bne.n	8004974 <DeviceStateMachine+0x3bc>
				dateTime.h += 1 ;
 8004960:	4b18      	ldr	r3, [pc, #96]	@ (80049c4 <DeviceStateMachine+0x40c>)
 8004962:	f9b3 3008 	ldrsh.w	r3, [r3, #8]
 8004966:	b29b      	uxth	r3, r3
 8004968:	3301      	adds	r3, #1
 800496a:	b29b      	uxth	r3, r3
 800496c:	b21a      	sxth	r2, r3
 800496e:	4b15      	ldr	r3, [pc, #84]	@ (80049c4 <DeviceStateMachine+0x40c>)
 8004970:	811a      	strh	r2, [r3, #8]
 8004972:	e008      	b.n	8004986 <DeviceStateMachine+0x3ce>
			}else{
				dateTime.h -= 1 ;
 8004974:	4b13      	ldr	r3, [pc, #76]	@ (80049c4 <DeviceStateMachine+0x40c>)
 8004976:	f9b3 3008 	ldrsh.w	r3, [r3, #8]
 800497a:	b29b      	uxth	r3, r3
 800497c:	3b01      	subs	r3, #1
 800497e:	b29b      	uxth	r3, r3
 8004980:	b21a      	sxth	r2, r3
 8004982:	4b10      	ldr	r3, [pc, #64]	@ (80049c4 <DeviceStateMachine+0x40c>)
 8004984:	811a      	strh	r2, [r3, #8]
			}
			changeLocate();
 8004986:	f000 fb1d 	bl	8004fc4 <changeLocate>
			break;
 800498a:	e00c      	b.n	80049a6 <DeviceStateMachine+0x3ee>
		}

		break;
	}
	default:
		break;
 800498c:	bf00      	nop
 800498e:	e00a      	b.n	80049a6 <DeviceStateMachine+0x3ee>
		break;
 8004990:	bf00      	nop
 8004992:	e008      	b.n	80049a6 <DeviceStateMachine+0x3ee>
			break;
 8004994:	bf00      	nop
 8004996:	e006      	b.n	80049a6 <DeviceStateMachine+0x3ee>
		break;
 8004998:	bf00      	nop
 800499a:	e004      	b.n	80049a6 <DeviceStateMachine+0x3ee>
		break;
 800499c:	bf00      	nop
 800499e:	e002      	b.n	80049a6 <DeviceStateMachine+0x3ee>
			break;
 80049a0:	bf00      	nop
 80049a2:	e000      	b.n	80049a6 <DeviceStateMachine+0x3ee>
		break;
 80049a4:	bf00      	nop

}
}
 80049a6:	bf00      	nop
 80049a8:	3708      	adds	r7, #8
 80049aa:	46bd      	mov	sp, r7
 80049ac:	bd80      	pop	{r7, pc}
 80049ae:	bf00      	nop
 80049b0:	20000058 	.word	0x20000058
 80049b4:	20001536 	.word	0x20001536
 80049b8:	20001537 	.word	0x20001537
 80049bc:	20001538 	.word	0x20001538
 80049c0:	20000064 	.word	0x20000064
 80049c4:	2000153c 	.word	0x2000153c

080049c8 <alarm>:

void alarm()
{
 80049c8:	b580      	push	{r7, lr}
 80049ca:	af00      	add	r7, sp, #0
	if(dateTime.h == alarmClock.h && dateTime.m == alarmClock.m)
 80049cc:	4b0e      	ldr	r3, [pc, #56]	@ (8004a08 <alarm+0x40>)
 80049ce:	f9b3 2008 	ldrsh.w	r2, [r3, #8]
 80049d2:	4b0e      	ldr	r3, [pc, #56]	@ (8004a0c <alarm+0x44>)
 80049d4:	f9b3 3008 	ldrsh.w	r3, [r3, #8]
 80049d8:	429a      	cmp	r2, r3
 80049da:	d112      	bne.n	8004a02 <alarm+0x3a>
 80049dc:	4b0a      	ldr	r3, [pc, #40]	@ (8004a08 <alarm+0x40>)
 80049de:	f9b3 200a 	ldrsh.w	r2, [r3, #10]
 80049e2:	4b0a      	ldr	r3, [pc, #40]	@ (8004a0c <alarm+0x44>)
 80049e4:	f9b3 300a 	ldrsh.w	r3, [r3, #10]
 80049e8:	429a      	cmp	r2, r3
 80049ea:	d10a      	bne.n	8004a02 <alarm+0x3a>
	{
		if(dateTime.s == alarmClock.s)
 80049ec:	4b06      	ldr	r3, [pc, #24]	@ (8004a08 <alarm+0x40>)
 80049ee:	f9b3 200c 	ldrsh.w	r2, [r3, #12]
 80049f2:	4b06      	ldr	r3, [pc, #24]	@ (8004a0c <alarm+0x44>)
 80049f4:	f9b3 300c 	ldrsh.w	r3, [r3, #12]
 80049f8:	429a      	cmp	r2, r3
 80049fa:	d102      	bne.n	8004a02 <alarm+0x3a>
		{
			BuzzerControl_SetMelody(pbeep);
 80049fc:	4804      	ldr	r0, [pc, #16]	@ (8004a10 <alarm+0x48>)
 80049fe:	f7fc fde7 	bl	80015d0 <BuzzerControl_SetMelody>
		}

	}
}
 8004a02:	bf00      	nop
 8004a04:	bd80      	pop	{r7, pc}
 8004a06:	bf00      	nop
 8004a08:	2000153c 	.word	0x2000153c
 8004a0c:	2000155c 	.word	0x2000155c
 8004a10:	20000058 	.word	0x20000058

08004a14 <intTime>:

//struct date_time dateTime;
void intTime(void)
{
 8004a14:	b580      	push	{r7, lr}
 8004a16:	af00      	add	r7, sp, #0
    dateTime.h = 01;
 8004a18:	4b16      	ldr	r3, [pc, #88]	@ (8004a74 <intTime+0x60>)
 8004a1a:	2201      	movs	r2, #1
 8004a1c:	811a      	strh	r2, [r3, #8]
    dateTime.m = 01;
 8004a1e:	4b15      	ldr	r3, [pc, #84]	@ (8004a74 <intTime+0x60>)
 8004a20:	2201      	movs	r2, #1
 8004a22:	815a      	strh	r2, [r3, #10]
    dateTime.s = 01;
 8004a24:	4b13      	ldr	r3, [pc, #76]	@ (8004a74 <intTime+0x60>)
 8004a26:	2201      	movs	r2, #1
 8004a28:	819a      	strh	r2, [r3, #12]
    dateTime.day = 9;
 8004a2a:	4b12      	ldr	r3, [pc, #72]	@ (8004a74 <intTime+0x60>)
 8004a2c:	2209      	movs	r2, #9
 8004a2e:	81da      	strh	r2, [r3, #14]
    dateTime.month = 6;
 8004a30:	4b10      	ldr	r3, [pc, #64]	@ (8004a74 <intTime+0x60>)
 8004a32:	2206      	movs	r2, #6
 8004a34:	821a      	strh	r2, [r3, #16]
    dateTime.year = 2024;
 8004a36:	4b0f      	ldr	r3, [pc, #60]	@ (8004a74 <intTime+0x60>)
 8004a38:	f44f 62fd 	mov.w	r2, #2024	@ 0x7e8
 8004a3c:	615a      	str	r2, [r3, #20]
    dateTime.locate = locates[locateChoose];
 8004a3e:	4b0e      	ldr	r3, [pc, #56]	@ (8004a78 <intTime+0x64>)
 8004a40:	f993 3000 	ldrsb.w	r3, [r3]
 8004a44:	461a      	mov	r2, r3
 8004a46:	4b0d      	ldr	r3, [pc, #52]	@ (8004a7c <intTime+0x68>)
 8004a48:	f853 3022 	ldr.w	r3, [r3, r2, lsl #2]
 8004a4c:	4a09      	ldr	r2, [pc, #36]	@ (8004a74 <intTime+0x60>)
 8004a4e:	6193      	str	r3, [r2, #24]
    dateTime.format = 0;
 8004a50:	4b08      	ldr	r3, [pc, #32]	@ (8004a74 <intTime+0x60>)
 8004a52:	2200      	movs	r2, #0
 8004a54:	771a      	strb	r2, [r3, #28]
    dateTime.tick = GetMilSecTick();
 8004a56:	f7fd f8ad 	bl	8001bb4 <GetMilSecTick>
 8004a5a:	4603      	mov	r3, r0
 8004a5c:	461a      	mov	r2, r3
 8004a5e:	4b05      	ldr	r3, [pc, #20]	@ (8004a74 <intTime+0x60>)
 8004a60:	601a      	str	r2, [r3, #0]
    dateTime.tickD = GetMilSecTick();
 8004a62:	f7fd f8a7 	bl	8001bb4 <GetMilSecTick>
 8004a66:	4603      	mov	r3, r0
 8004a68:	461a      	mov	r2, r3
 8004a6a:	4b02      	ldr	r3, [pc, #8]	@ (8004a74 <intTime+0x60>)
 8004a6c:	605a      	str	r2, [r3, #4]
}
 8004a6e:	bf00      	nop
 8004a70:	bd80      	pop	{r7, pc}
 8004a72:	bf00      	nop
 8004a74:	2000153c 	.word	0x2000153c
 8004a78:	20001538 	.word	0x20001538
 8004a7c:	20000064 	.word	0x20000064

08004a80 <intalarm>:

void intalarm(void){
 8004a80:	b480      	push	{r7}
 8004a82:	af00      	add	r7, sp, #0
    alarmClock.h = 00;
 8004a84:	4b06      	ldr	r3, [pc, #24]	@ (8004aa0 <intalarm+0x20>)
 8004a86:	2200      	movs	r2, #0
 8004a88:	811a      	strh	r2, [r3, #8]
	alarmClock.m = 00;
 8004a8a:	4b05      	ldr	r3, [pc, #20]	@ (8004aa0 <intalarm+0x20>)
 8004a8c:	2200      	movs	r2, #0
 8004a8e:	815a      	strh	r2, [r3, #10]
	alarmClock.s = 00;
 8004a90:	4b03      	ldr	r3, [pc, #12]	@ (8004aa0 <intalarm+0x20>)
 8004a92:	2200      	movs	r2, #0
 8004a94:	819a      	strh	r2, [r3, #12]
}
 8004a96:	bf00      	nop
 8004a98:	46bd      	mov	sp, r7
 8004a9a:	f85d 7b04 	ldr.w	r7, [sp], #4
 8004a9e:	4770      	bx	lr
 8004aa0:	2000155c 	.word	0x2000155c

08004aa4 <callUpdateTimeCyCle>:

void callUpdateTimeCyCle(void){
 8004aa4:	b580      	push	{r7, lr}
 8004aa6:	b082      	sub	sp, #8
 8004aa8:	af02      	add	r7, sp, #8
	if (idUpdateTime != NO_TIMER)
 8004aaa:	4b0e      	ldr	r3, [pc, #56]	@ (8004ae4 <callUpdateTimeCyCle+0x40>)
 8004aac:	781b      	ldrb	r3, [r3, #0]
 8004aae:	2bff      	cmp	r3, #255	@ 0xff
 8004ab0:	d004      	beq.n	8004abc <callUpdateTimeCyCle+0x18>
	{
		TimerStop(idUpdateTime);
 8004ab2:	4b0c      	ldr	r3, [pc, #48]	@ (8004ae4 <callUpdateTimeCyCle+0x40>)
 8004ab4:	781b      	ldrb	r3, [r3, #0]
 8004ab6:	4618      	mov	r0, r3
 8004ab8:	f7fd f82c 	bl	8001b14 <TimerStop>
	}
	dateTime.display = DISPLAY_TIME;
 8004abc:	4b0a      	ldr	r3, [pc, #40]	@ (8004ae8 <callUpdateTimeCyCle+0x44>)
 8004abe:	2200      	movs	r2, #0
 8004ac0:	775a      	strb	r2, [r3, #29]
	idUpdateTime = TimerStart("TimerUpCycle", 1000, TIMER_REPEAT_FOREVER, (void*) updateTimeHandler, NULL);
 8004ac2:	2300      	movs	r3, #0
 8004ac4:	9300      	str	r3, [sp, #0]
 8004ac6:	4b09      	ldr	r3, [pc, #36]	@ (8004aec <callUpdateTimeCyCle+0x48>)
 8004ac8:	22ff      	movs	r2, #255	@ 0xff
 8004aca:	f44f 717a 	mov.w	r1, #1000	@ 0x3e8
 8004ace:	4808      	ldr	r0, [pc, #32]	@ (8004af0 <callUpdateTimeCyCle+0x4c>)
 8004ad0:	f7fc ffbe 	bl	8001a50 <TimerStart>
 8004ad4:	4603      	mov	r3, r0
 8004ad6:	461a      	mov	r2, r3
 8004ad8:	4b02      	ldr	r3, [pc, #8]	@ (8004ae4 <callUpdateTimeCyCle+0x40>)
 8004ada:	701a      	strb	r2, [r3, #0]
}
 8004adc:	bf00      	nop
 8004ade:	46bd      	mov	sp, r7
 8004ae0:	bd80      	pop	{r7, pc}
 8004ae2:	bf00      	nop
 8004ae4:	2000006c 	.word	0x2000006c
 8004ae8:	2000153c 	.word	0x2000153c
 8004aec:	08004b25 	.word	0x08004b25
 8004af0:	08005ac8 	.word	0x08005ac8

08004af4 <displayUpdateTime>:

void displayUpdateTime(void){
 8004af4:	b480      	push	{r7}
 8004af6:	af00      	add	r7, sp, #0
	dateTime.display = DISPLAY_TIME;
 8004af8:	4b03      	ldr	r3, [pc, #12]	@ (8004b08 <displayUpdateTime+0x14>)
 8004afa:	2200      	movs	r2, #0
 8004afc:	775a      	strb	r2, [r3, #29]

}
 8004afe:	bf00      	nop
 8004b00:	46bd      	mov	sp, r7
 8004b02:	f85d 7b04 	ldr.w	r7, [sp], #4
 8004b06:	4770      	bx	lr
 8004b08:	2000153c 	.word	0x2000153c

08004b0c <stopdisplayUpdateTime>:

void stopdisplayUpdateTime(void){
 8004b0c:	b480      	push	{r7}
 8004b0e:	af00      	add	r7, sp, #0
	dateTime.display = NOT_DISPLAY;
 8004b10:	4b03      	ldr	r3, [pc, #12]	@ (8004b20 <stopdisplayUpdateTime+0x14>)
 8004b12:	2201      	movs	r2, #1
 8004b14:	775a      	strb	r2, [r3, #29]
}
 8004b16:	bf00      	nop
 8004b18:	46bd      	mov	sp, r7
 8004b1a:	f85d 7b04 	ldr.w	r7, [sp], #4
 8004b1e:	4770      	bx	lr
 8004b20:	2000153c 	.word	0x2000153c

08004b24 <updateTimeHandler>:

static void updateTimeHandler(void){
 8004b24:	b580      	push	{r7, lr}
 8004b26:	af00      	add	r7, sp, #0
//	ucg_SetFont(&ucg,ucg_font_ncenR08_hf);
	writeTime(&dateTime);
 8004b28:	480a      	ldr	r0, [pc, #40]	@ (8004b54 <updateTimeHandler+0x30>)
 8004b2a:	f000 f815 	bl	8004b58 <writeTime>
	if(dateTime.h == 23 && dateTime.m ==59 && dateTime.s == 59){
 8004b2e:	4b09      	ldr	r3, [pc, #36]	@ (8004b54 <updateTimeHandler+0x30>)
 8004b30:	f9b3 3008 	ldrsh.w	r3, [r3, #8]
 8004b34:	2b17      	cmp	r3, #23
 8004b36:	d10b      	bne.n	8004b50 <updateTimeHandler+0x2c>
 8004b38:	4b06      	ldr	r3, [pc, #24]	@ (8004b54 <updateTimeHandler+0x30>)
 8004b3a:	f9b3 300a 	ldrsh.w	r3, [r3, #10]
 8004b3e:	2b3b      	cmp	r3, #59	@ 0x3b
 8004b40:	d106      	bne.n	8004b50 <updateTimeHandler+0x2c>
 8004b42:	4b04      	ldr	r3, [pc, #16]	@ (8004b54 <updateTimeHandler+0x30>)
 8004b44:	f9b3 300c 	ldrsh.w	r3, [r3, #12]
 8004b48:	2b3b      	cmp	r3, #59	@ 0x3b
 8004b4a:	d101      	bne.n	8004b50 <updateTimeHandler+0x2c>
		writeDate();
 8004b4c:	f000 f8a8 	bl	8004ca0 <writeDate>
	}
}
 8004b50:	bf00      	nop
 8004b52:	bd80      	pop	{r7, pc}
 8004b54:	2000153c 	.word	0x2000153c

08004b58 <writeTime>:

void writeTime(struct date_time* timeP)
{
 8004b58:	b580      	push	{r7, lr}
 8004b5a:	b084      	sub	sp, #16
 8004b5c:	af02      	add	r7, sp, #8
 8004b5e:	6078      	str	r0, [r7, #4]
		timeP->s+=1;
 8004b60:	687b      	ldr	r3, [r7, #4]
 8004b62:	f9b3 300c 	ldrsh.w	r3, [r3, #12]
 8004b66:	b29b      	uxth	r3, r3
 8004b68:	3301      	adds	r3, #1
 8004b6a:	b29b      	uxth	r3, r3
 8004b6c:	b21a      	sxth	r2, r3
 8004b6e:	687b      	ldr	r3, [r7, #4]
 8004b70:	819a      	strh	r2, [r3, #12]
		if(timeP->s >= 60)
 8004b72:	687b      	ldr	r3, [r7, #4]
 8004b74:	f9b3 300c 	ldrsh.w	r3, [r3, #12]
 8004b78:	2b3b      	cmp	r3, #59	@ 0x3b
 8004b7a:	dd0b      	ble.n	8004b94 <writeTime+0x3c>
		{
			timeP->s = 0;
 8004b7c:	687b      	ldr	r3, [r7, #4]
 8004b7e:	2200      	movs	r2, #0
 8004b80:	819a      	strh	r2, [r3, #12]
			timeP->m+=1;
 8004b82:	687b      	ldr	r3, [r7, #4]
 8004b84:	f9b3 300a 	ldrsh.w	r3, [r3, #10]
 8004b88:	b29b      	uxth	r3, r3
 8004b8a:	3301      	adds	r3, #1
 8004b8c:	b29b      	uxth	r3, r3
 8004b8e:	b21a      	sxth	r2, r3
 8004b90:	687b      	ldr	r3, [r7, #4]
 8004b92:	815a      	strh	r2, [r3, #10]
		}
		if(timeP->m >= 60)
 8004b94:	687b      	ldr	r3, [r7, #4]
 8004b96:	f9b3 300a 	ldrsh.w	r3, [r3, #10]
 8004b9a:	2b3b      	cmp	r3, #59	@ 0x3b
 8004b9c:	dd0b      	ble.n	8004bb6 <writeTime+0x5e>
		{
			timeP->m = 0;
 8004b9e:	687b      	ldr	r3, [r7, #4]
 8004ba0:	2200      	movs	r2, #0
 8004ba2:	815a      	strh	r2, [r3, #10]
			timeP->h+=1;
 8004ba4:	687b      	ldr	r3, [r7, #4]
 8004ba6:	f9b3 3008 	ldrsh.w	r3, [r3, #8]
 8004baa:	b29b      	uxth	r3, r3
 8004bac:	3301      	adds	r3, #1
 8004bae:	b29b      	uxth	r3, r3
 8004bb0:	b21a      	sxth	r2, r3
 8004bb2:	687b      	ldr	r3, [r7, #4]
 8004bb4:	811a      	strh	r2, [r3, #8]
		}
		if(timeP->h >= 24)
 8004bb6:	687b      	ldr	r3, [r7, #4]
 8004bb8:	f9b3 3008 	ldrsh.w	r3, [r3, #8]
 8004bbc:	2b17      	cmp	r3, #23
 8004bbe:	dd02      	ble.n	8004bc6 <writeTime+0x6e>
		{
			timeP->h = 0;
 8004bc0:	687b      	ldr	r3, [r7, #4]
 8004bc2:	2200      	movs	r2, #0
 8004bc4:	811a      	strh	r2, [r3, #8]
		}
	sprintf(timeT, "Time: %02d : %02d : %02d", timeP->h, timeP->m, timeP->s);
 8004bc6:	687b      	ldr	r3, [r7, #4]
 8004bc8:	f9b3 3008 	ldrsh.w	r3, [r3, #8]
 8004bcc:	461a      	mov	r2, r3
 8004bce:	687b      	ldr	r3, [r7, #4]
 8004bd0:	f9b3 300a 	ldrsh.w	r3, [r3, #10]
 8004bd4:	4619      	mov	r1, r3
 8004bd6:	687b      	ldr	r3, [r7, #4]
 8004bd8:	f9b3 300c 	ldrsh.w	r3, [r3, #12]
 8004bdc:	9300      	str	r3, [sp, #0]
 8004bde:	460b      	mov	r3, r1
 8004be0:	490a      	ldr	r1, [pc, #40]	@ (8004c0c <writeTime+0xb4>)
 8004be2:	480b      	ldr	r0, [pc, #44]	@ (8004c10 <writeTime+0xb8>)
 8004be4:	f000 fa9c 	bl	8005120 <siprintf>
	if(timeP->display == DISPLAY_TIME){
 8004be8:	687b      	ldr	r3, [r7, #4]
 8004bea:	f993 301d 	ldrsb.w	r3, [r3, #29]
 8004bee:	2b00      	cmp	r3, #0
 8004bf0:	d107      	bne.n	8004c02 <writeTime+0xaa>
		ucg_DrawString(&ucg, 20, 70, 0, &timeT);
 8004bf2:	4b07      	ldr	r3, [pc, #28]	@ (8004c10 <writeTime+0xb8>)
 8004bf4:	9300      	str	r3, [sp, #0]
 8004bf6:	2300      	movs	r3, #0
 8004bf8:	2246      	movs	r2, #70	@ 0x46
 8004bfa:	2114      	movs	r1, #20
 8004bfc:	4805      	ldr	r0, [pc, #20]	@ (8004c14 <writeTime+0xbc>)
 8004bfe:	f7ff f853 	bl	8003ca8 <ucg_DrawString>
	}
}
 8004c02:	bf00      	nop
 8004c04:	3708      	adds	r7, #8
 8004c06:	46bd      	mov	sp, r7
 8004c08:	bd80      	pop	{r7, pc}
 8004c0a:	bf00      	nop
 8004c0c:	08005ad8 	.word	0x08005ad8
 8004c10:	200014e4 	.word	0x200014e4
 8004c14:	20001430 	.word	0x20001430

08004c18 <writeLocate>:


void writeLocate(void){
 8004c18:	b580      	push	{r7, lr}
 8004c1a:	b084      	sub	sp, #16
 8004c1c:	af02      	add	r7, sp, #8
		const char *formatStr = dateTime.locate;
 8004c1e:	4b07      	ldr	r3, [pc, #28]	@ (8004c3c <writeLocate+0x24>)
 8004c20:	699b      	ldr	r3, [r3, #24]
 8004c22:	607b      	str	r3, [r7, #4]
		ucg_DrawString(&ucg, 60, 110,0, formatStr);
 8004c24:	687b      	ldr	r3, [r7, #4]
 8004c26:	9300      	str	r3, [sp, #0]
 8004c28:	2300      	movs	r3, #0
 8004c2a:	226e      	movs	r2, #110	@ 0x6e
 8004c2c:	213c      	movs	r1, #60	@ 0x3c
 8004c2e:	4804      	ldr	r0, [pc, #16]	@ (8004c40 <writeLocate+0x28>)
 8004c30:	f7ff f83a 	bl	8003ca8 <ucg_DrawString>
}
 8004c34:	bf00      	nop
 8004c36:	3708      	adds	r7, #8
 8004c38:	46bd      	mov	sp, r7
 8004c3a:	bd80      	pop	{r7, pc}
 8004c3c:	2000153c 	.word	0x2000153c
 8004c40:	20001430 	.word	0x20001430

08004c44 <writeLocateHandler>:

void writeLocateHandler(void){
 8004c44:	b580      	push	{r7, lr}
 8004c46:	b084      	sub	sp, #16
 8004c48:	af02      	add	r7, sp, #8
	static uint8_t count = 0;
	count++;
 8004c4a:	4b12      	ldr	r3, [pc, #72]	@ (8004c94 <writeLocateHandler+0x50>)
 8004c4c:	781b      	ldrb	r3, [r3, #0]
 8004c4e:	3301      	adds	r3, #1
 8004c50:	b2da      	uxtb	r2, r3
 8004c52:	4b10      	ldr	r3, [pc, #64]	@ (8004c94 <writeLocateHandler+0x50>)
 8004c54:	701a      	strb	r2, [r3, #0]
	if(count == 1){
 8004c56:	4b0f      	ldr	r3, [pc, #60]	@ (8004c94 <writeLocateHandler+0x50>)
 8004c58:	781b      	ldrb	r3, [r3, #0]
 8004c5a:	2b01      	cmp	r3, #1
 8004c5c:	d108      	bne.n	8004c70 <writeLocateHandler+0x2c>
		ucg_ClearScreenCustom(&ucg, 60, 110, 20, 128);
 8004c5e:	2380      	movs	r3, #128	@ 0x80
 8004c60:	9300      	str	r3, [sp, #0]
 8004c62:	2314      	movs	r3, #20
 8004c64:	226e      	movs	r2, #110	@ 0x6e
 8004c66:	213c      	movs	r1, #60	@ 0x3c
 8004c68:	480b      	ldr	r0, [pc, #44]	@ (8004c98 <writeLocateHandler+0x54>)
 8004c6a:	f7fd faa5 	bl	80021b8 <ucg_ClearScreenCustom>
	}else{
		const char *formatStr = dateTime.locate;
		ucg_DrawString(&ucg, 60, 110,0, formatStr);
		count = 0;
	}
}
 8004c6e:	e00d      	b.n	8004c8c <writeLocateHandler+0x48>
		const char *formatStr = dateTime.locate;
 8004c70:	4b0a      	ldr	r3, [pc, #40]	@ (8004c9c <writeLocateHandler+0x58>)
 8004c72:	699b      	ldr	r3, [r3, #24]
 8004c74:	607b      	str	r3, [r7, #4]
		ucg_DrawString(&ucg, 60, 110,0, formatStr);
 8004c76:	687b      	ldr	r3, [r7, #4]
 8004c78:	9300      	str	r3, [sp, #0]
 8004c7a:	2300      	movs	r3, #0
 8004c7c:	226e      	movs	r2, #110	@ 0x6e
 8004c7e:	213c      	movs	r1, #60	@ 0x3c
 8004c80:	4805      	ldr	r0, [pc, #20]	@ (8004c98 <writeLocateHandler+0x54>)
 8004c82:	f7ff f811 	bl	8003ca8 <ucg_DrawString>
		count = 0;
 8004c86:	4b03      	ldr	r3, [pc, #12]	@ (8004c94 <writeLocateHandler+0x50>)
 8004c88:	2200      	movs	r2, #0
 8004c8a:	701a      	strb	r2, [r3, #0]
}
 8004c8c:	bf00      	nop
 8004c8e:	3708      	adds	r7, #8
 8004c90:	46bd      	mov	sp, r7
 8004c92:	bd80      	pop	{r7, pc}
 8004c94:	2000157c 	.word	0x2000157c
 8004c98:	20001430 	.word	0x20001430
 8004c9c:	2000153c 	.word	0x2000153c

08004ca0 <writeDate>:




void writeDate(){
 8004ca0:	b580      	push	{r7, lr}
 8004ca2:	b082      	sub	sp, #8
 8004ca4:	af02      	add	r7, sp, #8
	switch(dateTime.month){
 8004ca6:	4b8d      	ldr	r3, [pc, #564]	@ (8004edc <writeDate+0x23c>)
 8004ca8:	f9b3 3010 	ldrsh.w	r3, [r3, #16]
 8004cac:	2b14      	cmp	r3, #20
 8004cae:	bf8c      	ite	hi
 8004cb0:	2201      	movhi	r2, #1
 8004cb2:	2200      	movls	r2, #0
 8004cb4:	b2d2      	uxtb	r2, r2
 8004cb6:	2a00      	cmp	r2, #0
 8004cb8:	f040 810d 	bne.w	8004ed6 <writeDate+0x236>
 8004cbc:	2201      	movs	r2, #1
 8004cbe:	fa02 f303 	lsl.w	r3, r2, r3
 8004cc2:	4a87      	ldr	r2, [pc, #540]	@ (8004ee0 <writeDate+0x240>)
 8004cc4:	401a      	ands	r2, r3
 8004cc6:	2a00      	cmp	r2, #0
 8004cc8:	bf14      	ite	ne
 8004cca:	2201      	movne	r2, #1
 8004ccc:	2200      	moveq	r2, #0
 8004cce:	b2d2      	uxtb	r2, r2
 8004cd0:	2a00      	cmp	r2, #0
 8004cd2:	d162      	bne.n	8004d9a <writeDate+0xfa>
 8004cd4:	f403 6225 	and.w	r2, r3, #2640	@ 0xa50
 8004cd8:	2a00      	cmp	r2, #0
 8004cda:	bf14      	ite	ne
 8004cdc:	2201      	movne	r2, #1
 8004cde:	2200      	moveq	r2, #0
 8004ce0:	b2d2      	uxtb	r2, r2
 8004ce2:	2a00      	cmp	r2, #0
 8004ce4:	f040 80a8 	bne.w	8004e38 <writeDate+0x198>
 8004ce8:	f003 0304 	and.w	r3, r3, #4
 8004cec:	2b00      	cmp	r3, #0
 8004cee:	bf14      	ite	ne
 8004cf0:	2301      	movne	r3, #1
 8004cf2:	2300      	moveq	r3, #0
 8004cf4:	b2db      	uxtb	r3, r3
 8004cf6:	2b00      	cmp	r3, #0
 8004cf8:	f000 80ed 	beq.w	8004ed6 <writeDate+0x236>
		case 2 :{
			if(dateTime.h == 23 && dateTime.m == 59 && dateTime.s == 59)
 8004cfc:	4b77      	ldr	r3, [pc, #476]	@ (8004edc <writeDate+0x23c>)
 8004cfe:	f9b3 3008 	ldrsh.w	r3, [r3, #8]
 8004d02:	2b17      	cmp	r3, #23
 8004d04:	d112      	bne.n	8004d2c <writeDate+0x8c>
 8004d06:	4b75      	ldr	r3, [pc, #468]	@ (8004edc <writeDate+0x23c>)
 8004d08:	f9b3 300a 	ldrsh.w	r3, [r3, #10]
 8004d0c:	2b3b      	cmp	r3, #59	@ 0x3b
 8004d0e:	d10d      	bne.n	8004d2c <writeDate+0x8c>
 8004d10:	4b72      	ldr	r3, [pc, #456]	@ (8004edc <writeDate+0x23c>)
 8004d12:	f9b3 300c 	ldrsh.w	r3, [r3, #12]
 8004d16:	2b3b      	cmp	r3, #59	@ 0x3b
 8004d18:	d108      	bne.n	8004d2c <writeDate+0x8c>
				{
					dateTime.day+=1;
 8004d1a:	4b70      	ldr	r3, [pc, #448]	@ (8004edc <writeDate+0x23c>)
 8004d1c:	f9b3 300e 	ldrsh.w	r3, [r3, #14]
 8004d20:	b29b      	uxth	r3, r3
 8004d22:	3301      	adds	r3, #1
 8004d24:	b29b      	uxth	r3, r3
 8004d26:	b21a      	sxth	r2, r3
 8004d28:	4b6c      	ldr	r3, [pc, #432]	@ (8004edc <writeDate+0x23c>)
 8004d2a:	81da      	strh	r2, [r3, #14]
				}
			if(dateTime.day > 29)
 8004d2c:	4b6b      	ldr	r3, [pc, #428]	@ (8004edc <writeDate+0x23c>)
 8004d2e:	f9b3 300e 	ldrsh.w	r3, [r3, #14]
 8004d32:	2b1d      	cmp	r3, #29
 8004d34:	dd0b      	ble.n	8004d4e <writeDate+0xae>
				{
					dateTime.day = 1;
 8004d36:	4b69      	ldr	r3, [pc, #420]	@ (8004edc <writeDate+0x23c>)
 8004d38:	2201      	movs	r2, #1
 8004d3a:	81da      	strh	r2, [r3, #14]
					dateTime.month+=1;
 8004d3c:	4b67      	ldr	r3, [pc, #412]	@ (8004edc <writeDate+0x23c>)
 8004d3e:	f9b3 3010 	ldrsh.w	r3, [r3, #16]
 8004d42:	b29b      	uxth	r3, r3
 8004d44:	3301      	adds	r3, #1
 8004d46:	b29b      	uxth	r3, r3
 8004d48:	b21a      	sxth	r2, r3
 8004d4a:	4b64      	ldr	r3, [pc, #400]	@ (8004edc <writeDate+0x23c>)
 8004d4c:	821a      	strh	r2, [r3, #16]
				}
			if(dateTime.month > 12)
 8004d4e:	4b63      	ldr	r3, [pc, #396]	@ (8004edc <writeDate+0x23c>)
 8004d50:	f9b3 3010 	ldrsh.w	r3, [r3, #16]
 8004d54:	2b0c      	cmp	r3, #12
 8004d56:	dd07      	ble.n	8004d68 <writeDate+0xc8>
				{
					dateTime.month = 1;
 8004d58:	4b60      	ldr	r3, [pc, #384]	@ (8004edc <writeDate+0x23c>)
 8004d5a:	2201      	movs	r2, #1
 8004d5c:	821a      	strh	r2, [r3, #16]
					dateTime.year+=1;
 8004d5e:	4b5f      	ldr	r3, [pc, #380]	@ (8004edc <writeDate+0x23c>)
 8004d60:	695b      	ldr	r3, [r3, #20]
 8004d62:	3301      	adds	r3, #1
 8004d64:	4a5d      	ldr	r2, [pc, #372]	@ (8004edc <writeDate+0x23c>)
 8004d66:	6153      	str	r3, [r2, #20]
				}
			sprintf(DateT, "Date: %02d : %02d : %04d", dateTime.day, dateTime.month, dateTime.year);
 8004d68:	4b5c      	ldr	r3, [pc, #368]	@ (8004edc <writeDate+0x23c>)
 8004d6a:	f9b3 300e 	ldrsh.w	r3, [r3, #14]
 8004d6e:	461a      	mov	r2, r3
 8004d70:	4b5a      	ldr	r3, [pc, #360]	@ (8004edc <writeDate+0x23c>)
 8004d72:	f9b3 3010 	ldrsh.w	r3, [r3, #16]
 8004d76:	4619      	mov	r1, r3
 8004d78:	4b58      	ldr	r3, [pc, #352]	@ (8004edc <writeDate+0x23c>)
 8004d7a:	695b      	ldr	r3, [r3, #20]
 8004d7c:	9300      	str	r3, [sp, #0]
 8004d7e:	460b      	mov	r3, r1
 8004d80:	4958      	ldr	r1, [pc, #352]	@ (8004ee4 <writeDate+0x244>)
 8004d82:	4859      	ldr	r0, [pc, #356]	@ (8004ee8 <writeDate+0x248>)
 8004d84:	f000 f9cc 	bl	8005120 <siprintf>
			ucg_DrawString(&ucg, 20, 90, 0, &DateT);
 8004d88:	4b57      	ldr	r3, [pc, #348]	@ (8004ee8 <writeDate+0x248>)
 8004d8a:	9300      	str	r3, [sp, #0]
 8004d8c:	2300      	movs	r3, #0
 8004d8e:	225a      	movs	r2, #90	@ 0x5a
 8004d90:	2114      	movs	r1, #20
 8004d92:	4856      	ldr	r0, [pc, #344]	@ (8004eec <writeDate+0x24c>)
 8004d94:	f7fe ff88 	bl	8003ca8 <ucg_DrawString>
			break;
 8004d98:	e09d      	b.n	8004ed6 <writeDate+0x236>
		case 7:
		case 8:
		case 20:
		case 12:
			{
			if(dateTime.h == 23 && dateTime.m == 59 && dateTime.s == 59)
 8004d9a:	4b50      	ldr	r3, [pc, #320]	@ (8004edc <writeDate+0x23c>)
 8004d9c:	f9b3 3008 	ldrsh.w	r3, [r3, #8]
 8004da0:	2b17      	cmp	r3, #23
 8004da2:	d112      	bne.n	8004dca <writeDate+0x12a>
 8004da4:	4b4d      	ldr	r3, [pc, #308]	@ (8004edc <writeDate+0x23c>)
 8004da6:	f9b3 300a 	ldrsh.w	r3, [r3, #10]
 8004daa:	2b3b      	cmp	r3, #59	@ 0x3b
 8004dac:	d10d      	bne.n	8004dca <writeDate+0x12a>
 8004dae:	4b4b      	ldr	r3, [pc, #300]	@ (8004edc <writeDate+0x23c>)
 8004db0:	f9b3 300c 	ldrsh.w	r3, [r3, #12]
 8004db4:	2b3b      	cmp	r3, #59	@ 0x3b
 8004db6:	d108      	bne.n	8004dca <writeDate+0x12a>
				{
					dateTime.day+=1;
 8004db8:	4b48      	ldr	r3, [pc, #288]	@ (8004edc <writeDate+0x23c>)
 8004dba:	f9b3 300e 	ldrsh.w	r3, [r3, #14]
 8004dbe:	b29b      	uxth	r3, r3
 8004dc0:	3301      	adds	r3, #1
 8004dc2:	b29b      	uxth	r3, r3
 8004dc4:	b21a      	sxth	r2, r3
 8004dc6:	4b45      	ldr	r3, [pc, #276]	@ (8004edc <writeDate+0x23c>)
 8004dc8:	81da      	strh	r2, [r3, #14]
				}
			if(dateTime.day > 31)
 8004dca:	4b44      	ldr	r3, [pc, #272]	@ (8004edc <writeDate+0x23c>)
 8004dcc:	f9b3 300e 	ldrsh.w	r3, [r3, #14]
 8004dd0:	2b1f      	cmp	r3, #31
 8004dd2:	dd0b      	ble.n	8004dec <writeDate+0x14c>
				{
					dateTime.day = 1;
 8004dd4:	4b41      	ldr	r3, [pc, #260]	@ (8004edc <writeDate+0x23c>)
 8004dd6:	2201      	movs	r2, #1
 8004dd8:	81da      	strh	r2, [r3, #14]
					dateTime.month+=1;
 8004dda:	4b40      	ldr	r3, [pc, #256]	@ (8004edc <writeDate+0x23c>)
 8004ddc:	f9b3 3010 	ldrsh.w	r3, [r3, #16]
 8004de0:	b29b      	uxth	r3, r3
 8004de2:	3301      	adds	r3, #1
 8004de4:	b29b      	uxth	r3, r3
 8004de6:	b21a      	sxth	r2, r3
 8004de8:	4b3c      	ldr	r3, [pc, #240]	@ (8004edc <writeDate+0x23c>)
 8004dea:	821a      	strh	r2, [r3, #16]
				}
			if(dateTime.month > 12)
 8004dec:	4b3b      	ldr	r3, [pc, #236]	@ (8004edc <writeDate+0x23c>)
 8004dee:	f9b3 3010 	ldrsh.w	r3, [r3, #16]
 8004df2:	2b0c      	cmp	r3, #12
 8004df4:	dd07      	ble.n	8004e06 <writeDate+0x166>
				{
					dateTime.month = 1;
 8004df6:	4b39      	ldr	r3, [pc, #228]	@ (8004edc <writeDate+0x23c>)
 8004df8:	2201      	movs	r2, #1
 8004dfa:	821a      	strh	r2, [r3, #16]
					dateTime.year+=1;
 8004dfc:	4b37      	ldr	r3, [pc, #220]	@ (8004edc <writeDate+0x23c>)
 8004dfe:	695b      	ldr	r3, [r3, #20]
 8004e00:	3301      	adds	r3, #1
 8004e02:	4a36      	ldr	r2, [pc, #216]	@ (8004edc <writeDate+0x23c>)
 8004e04:	6153      	str	r3, [r2, #20]
				}
			sprintf(DateT, "Date: %02d : %02d : %04d", dateTime.day, dateTime.month, dateTime.year);
 8004e06:	4b35      	ldr	r3, [pc, #212]	@ (8004edc <writeDate+0x23c>)
 8004e08:	f9b3 300e 	ldrsh.w	r3, [r3, #14]
 8004e0c:	461a      	mov	r2, r3
 8004e0e:	4b33      	ldr	r3, [pc, #204]	@ (8004edc <writeDate+0x23c>)
 8004e10:	f9b3 3010 	ldrsh.w	r3, [r3, #16]
 8004e14:	4619      	mov	r1, r3
 8004e16:	4b31      	ldr	r3, [pc, #196]	@ (8004edc <writeDate+0x23c>)
 8004e18:	695b      	ldr	r3, [r3, #20]
 8004e1a:	9300      	str	r3, [sp, #0]
 8004e1c:	460b      	mov	r3, r1
 8004e1e:	4931      	ldr	r1, [pc, #196]	@ (8004ee4 <writeDate+0x244>)
 8004e20:	4831      	ldr	r0, [pc, #196]	@ (8004ee8 <writeDate+0x248>)
 8004e22:	f000 f97d 	bl	8005120 <siprintf>
			ucg_DrawString(&ucg, 20, 90, 0, &DateT);
 8004e26:	4b30      	ldr	r3, [pc, #192]	@ (8004ee8 <writeDate+0x248>)
 8004e28:	9300      	str	r3, [sp, #0]
 8004e2a:	2300      	movs	r3, #0
 8004e2c:	225a      	movs	r2, #90	@ 0x5a
 8004e2e:	2114      	movs	r1, #20
 8004e30:	482e      	ldr	r0, [pc, #184]	@ (8004eec <writeDate+0x24c>)
 8004e32:	f7fe ff39 	bl	8003ca8 <ucg_DrawString>
			break;
 8004e36:	e04e      	b.n	8004ed6 <writeDate+0x236>
		case 4 :
		case 6 :
		case 9 :
		case 11:
		{
			if(dateTime.h == 23 && dateTime.m == 59 && dateTime.s == 59)
 8004e38:	4b28      	ldr	r3, [pc, #160]	@ (8004edc <writeDate+0x23c>)
 8004e3a:	f9b3 3008 	ldrsh.w	r3, [r3, #8]
 8004e3e:	2b17      	cmp	r3, #23
 8004e40:	d112      	bne.n	8004e68 <writeDate+0x1c8>
 8004e42:	4b26      	ldr	r3, [pc, #152]	@ (8004edc <writeDate+0x23c>)
 8004e44:	f9b3 300a 	ldrsh.w	r3, [r3, #10]
 8004e48:	2b3b      	cmp	r3, #59	@ 0x3b
 8004e4a:	d10d      	bne.n	8004e68 <writeDate+0x1c8>
 8004e4c:	4b23      	ldr	r3, [pc, #140]	@ (8004edc <writeDate+0x23c>)
 8004e4e:	f9b3 300c 	ldrsh.w	r3, [r3, #12]
 8004e52:	2b3b      	cmp	r3, #59	@ 0x3b
 8004e54:	d108      	bne.n	8004e68 <writeDate+0x1c8>
				{
					dateTime.day+=1;
 8004e56:	4b21      	ldr	r3, [pc, #132]	@ (8004edc <writeDate+0x23c>)
 8004e58:	f9b3 300e 	ldrsh.w	r3, [r3, #14]
 8004e5c:	b29b      	uxth	r3, r3
 8004e5e:	3301      	adds	r3, #1
 8004e60:	b29b      	uxth	r3, r3
 8004e62:	b21a      	sxth	r2, r3
 8004e64:	4b1d      	ldr	r3, [pc, #116]	@ (8004edc <writeDate+0x23c>)
 8004e66:	81da      	strh	r2, [r3, #14]
				}
			if(dateTime.day > 30)
 8004e68:	4b1c      	ldr	r3, [pc, #112]	@ (8004edc <writeDate+0x23c>)
 8004e6a:	f9b3 300e 	ldrsh.w	r3, [r3, #14]
 8004e6e:	2b1e      	cmp	r3, #30
 8004e70:	dd0b      	ble.n	8004e8a <writeDate+0x1ea>
				{
					dateTime.day = 1;
 8004e72:	4b1a      	ldr	r3, [pc, #104]	@ (8004edc <writeDate+0x23c>)
 8004e74:	2201      	movs	r2, #1
 8004e76:	81da      	strh	r2, [r3, #14]
					dateTime.month+=1;
 8004e78:	4b18      	ldr	r3, [pc, #96]	@ (8004edc <writeDate+0x23c>)
 8004e7a:	f9b3 3010 	ldrsh.w	r3, [r3, #16]
 8004e7e:	b29b      	uxth	r3, r3
 8004e80:	3301      	adds	r3, #1
 8004e82:	b29b      	uxth	r3, r3
 8004e84:	b21a      	sxth	r2, r3
 8004e86:	4b15      	ldr	r3, [pc, #84]	@ (8004edc <writeDate+0x23c>)
 8004e88:	821a      	strh	r2, [r3, #16]
				}
			if(dateTime.month > 12)
 8004e8a:	4b14      	ldr	r3, [pc, #80]	@ (8004edc <writeDate+0x23c>)
 8004e8c:	f9b3 3010 	ldrsh.w	r3, [r3, #16]
 8004e90:	2b0c      	cmp	r3, #12
 8004e92:	dd07      	ble.n	8004ea4 <writeDate+0x204>
				{
					dateTime.month = 1;
 8004e94:	4b11      	ldr	r3, [pc, #68]	@ (8004edc <writeDate+0x23c>)
 8004e96:	2201      	movs	r2, #1
 8004e98:	821a      	strh	r2, [r3, #16]
					dateTime.year+=1;
 8004e9a:	4b10      	ldr	r3, [pc, #64]	@ (8004edc <writeDate+0x23c>)
 8004e9c:	695b      	ldr	r3, [r3, #20]
 8004e9e:	3301      	adds	r3, #1
 8004ea0:	4a0e      	ldr	r2, [pc, #56]	@ (8004edc <writeDate+0x23c>)
 8004ea2:	6153      	str	r3, [r2, #20]
				}
			sprintf(DateT, "Date: %02d : %02d : %04d", dateTime.day, dateTime.month, dateTime.year);
 8004ea4:	4b0d      	ldr	r3, [pc, #52]	@ (8004edc <writeDate+0x23c>)
 8004ea6:	f9b3 300e 	ldrsh.w	r3, [r3, #14]
 8004eaa:	461a      	mov	r2, r3
 8004eac:	4b0b      	ldr	r3, [pc, #44]	@ (8004edc <writeDate+0x23c>)
 8004eae:	f9b3 3010 	ldrsh.w	r3, [r3, #16]
 8004eb2:	4619      	mov	r1, r3
 8004eb4:	4b09      	ldr	r3, [pc, #36]	@ (8004edc <writeDate+0x23c>)
 8004eb6:	695b      	ldr	r3, [r3, #20]
 8004eb8:	9300      	str	r3, [sp, #0]
 8004eba:	460b      	mov	r3, r1
 8004ebc:	4909      	ldr	r1, [pc, #36]	@ (8004ee4 <writeDate+0x244>)
 8004ebe:	480a      	ldr	r0, [pc, #40]	@ (8004ee8 <writeDate+0x248>)
 8004ec0:	f000 f92e 	bl	8005120 <siprintf>
			ucg_DrawString(&ucg, 20, 90, 0, &DateT);
 8004ec4:	4b08      	ldr	r3, [pc, #32]	@ (8004ee8 <writeDate+0x248>)
 8004ec6:	9300      	str	r3, [sp, #0]
 8004ec8:	2300      	movs	r3, #0
 8004eca:	225a      	movs	r2, #90	@ 0x5a
 8004ecc:	2114      	movs	r1, #20
 8004ece:	4807      	ldr	r0, [pc, #28]	@ (8004eec <writeDate+0x24c>)
 8004ed0:	f7fe feea 	bl	8003ca8 <ucg_DrawString>
			break;
 8004ed4:	bf00      	nop

		}

	}
}
 8004ed6:	bf00      	nop
 8004ed8:	46bd      	mov	sp, r7
 8004eda:	bd80      	pop	{r7, pc}
 8004edc:	2000153c 	.word	0x2000153c
 8004ee0:	001011aa 	.word	0x001011aa
 8004ee4:	08005af4 	.word	0x08005af4
 8004ee8:	200014f8 	.word	0x200014f8
 8004eec:	20001430 	.word	0x20001430

08004ef0 <alarmModeHandler>:


//
//commae
//
void alarmModeHandler (void){
 8004ef0:	b580      	push	{r7, lr}
 8004ef2:	b082      	sub	sp, #8
 8004ef4:	af02      	add	r7, sp, #8
	if(setItem == 0)
 8004ef6:	4b29      	ldr	r3, [pc, #164]	@ (8004f9c <alarmModeHandler+0xac>)
 8004ef8:	f993 3000 	ldrsb.w	r3, [r3]
 8004efc:	2b00      	cmp	r3, #0
 8004efe:	d110      	bne.n	8004f22 <alarmModeHandler+0x32>
	{
		sprintf(AlarmT, "Alarm: [%02d]:%02d:%02d", alarmClock.h, alarmClock.m, alarmClock.s);
 8004f00:	4b27      	ldr	r3, [pc, #156]	@ (8004fa0 <alarmModeHandler+0xb0>)
 8004f02:	f9b3 3008 	ldrsh.w	r3, [r3, #8]
 8004f06:	461a      	mov	r2, r3
 8004f08:	4b25      	ldr	r3, [pc, #148]	@ (8004fa0 <alarmModeHandler+0xb0>)
 8004f0a:	f9b3 300a 	ldrsh.w	r3, [r3, #10]
 8004f0e:	4619      	mov	r1, r3
 8004f10:	4b23      	ldr	r3, [pc, #140]	@ (8004fa0 <alarmModeHandler+0xb0>)
 8004f12:	f9b3 300c 	ldrsh.w	r3, [r3, #12]
 8004f16:	9300      	str	r3, [sp, #0]
 8004f18:	460b      	mov	r3, r1
 8004f1a:	4922      	ldr	r1, [pc, #136]	@ (8004fa4 <alarmModeHandler+0xb4>)
 8004f1c:	4822      	ldr	r0, [pc, #136]	@ (8004fa8 <alarmModeHandler+0xb8>)
 8004f1e:	f000 f8ff 	bl	8005120 <siprintf>
	}
	if(setItem == 1)
 8004f22:	4b1e      	ldr	r3, [pc, #120]	@ (8004f9c <alarmModeHandler+0xac>)
 8004f24:	f993 3000 	ldrsb.w	r3, [r3]
 8004f28:	2b01      	cmp	r3, #1
 8004f2a:	d110      	bne.n	8004f4e <alarmModeHandler+0x5e>
	{
		sprintf(AlarmT, "Alarm: %02d:[%02d]:%02d", alarmClock.h, alarmClock.m, alarmClock.s);
 8004f2c:	4b1c      	ldr	r3, [pc, #112]	@ (8004fa0 <alarmModeHandler+0xb0>)
 8004f2e:	f9b3 3008 	ldrsh.w	r3, [r3, #8]
 8004f32:	461a      	mov	r2, r3
 8004f34:	4b1a      	ldr	r3, [pc, #104]	@ (8004fa0 <alarmModeHandler+0xb0>)
 8004f36:	f9b3 300a 	ldrsh.w	r3, [r3, #10]
 8004f3a:	4619      	mov	r1, r3
 8004f3c:	4b18      	ldr	r3, [pc, #96]	@ (8004fa0 <alarmModeHandler+0xb0>)
 8004f3e:	f9b3 300c 	ldrsh.w	r3, [r3, #12]
 8004f42:	9300      	str	r3, [sp, #0]
 8004f44:	460b      	mov	r3, r1
 8004f46:	4919      	ldr	r1, [pc, #100]	@ (8004fac <alarmModeHandler+0xbc>)
 8004f48:	4817      	ldr	r0, [pc, #92]	@ (8004fa8 <alarmModeHandler+0xb8>)
 8004f4a:	f000 f8e9 	bl	8005120 <siprintf>
	}
	if(setItem == 2)
 8004f4e:	4b13      	ldr	r3, [pc, #76]	@ (8004f9c <alarmModeHandler+0xac>)
 8004f50:	f993 3000 	ldrsb.w	r3, [r3]
 8004f54:	2b02      	cmp	r3, #2
 8004f56:	d110      	bne.n	8004f7a <alarmModeHandler+0x8a>
	{

		sprintf(AlarmT, "Alarm: %02d:%02d:[%02d]", alarmClock.h, alarmClock.m, alarmClock.s);
 8004f58:	4b11      	ldr	r3, [pc, #68]	@ (8004fa0 <alarmModeHandler+0xb0>)
 8004f5a:	f9b3 3008 	ldrsh.w	r3, [r3, #8]
 8004f5e:	461a      	mov	r2, r3
 8004f60:	4b0f      	ldr	r3, [pc, #60]	@ (8004fa0 <alarmModeHandler+0xb0>)
 8004f62:	f9b3 300a 	ldrsh.w	r3, [r3, #10]
 8004f66:	4619      	mov	r1, r3
 8004f68:	4b0d      	ldr	r3, [pc, #52]	@ (8004fa0 <alarmModeHandler+0xb0>)
 8004f6a:	f9b3 300c 	ldrsh.w	r3, [r3, #12]
 8004f6e:	9300      	str	r3, [sp, #0]
 8004f70:	460b      	mov	r3, r1
 8004f72:	490f      	ldr	r1, [pc, #60]	@ (8004fb0 <alarmModeHandler+0xc0>)
 8004f74:	480c      	ldr	r0, [pc, #48]	@ (8004fa8 <alarmModeHandler+0xb8>)
 8004f76:	f000 f8d3 	bl	8005120 <siprintf>
	}
	if(alarmClock.display == DISPLAY_TIME){
 8004f7a:	4b09      	ldr	r3, [pc, #36]	@ (8004fa0 <alarmModeHandler+0xb0>)
 8004f7c:	f993 301d 	ldrsb.w	r3, [r3, #29]
 8004f80:	2b00      	cmp	r3, #0
 8004f82:	d107      	bne.n	8004f94 <alarmModeHandler+0xa4>
		ucg_DrawString(&ucg, 20, 70, 0, &AlarmT);
 8004f84:	4b08      	ldr	r3, [pc, #32]	@ (8004fa8 <alarmModeHandler+0xb8>)
 8004f86:	9300      	str	r3, [sp, #0]
 8004f88:	2300      	movs	r3, #0
 8004f8a:	2246      	movs	r2, #70	@ 0x46
 8004f8c:	2114      	movs	r1, #20
 8004f8e:	4809      	ldr	r0, [pc, #36]	@ (8004fb4 <alarmModeHandler+0xc4>)
 8004f90:	f7fe fe8a 	bl	8003ca8 <ucg_DrawString>
	}

}
 8004f94:	bf00      	nop
 8004f96:	46bd      	mov	sp, r7
 8004f98:	bd80      	pop	{r7, pc}
 8004f9a:	bf00      	nop
 8004f9c:	20001537 	.word	0x20001537
 8004fa0:	2000155c 	.word	0x2000155c
 8004fa4:	08005b10 	.word	0x08005b10
 8004fa8:	20001518 	.word	0x20001518
 8004fac:	08005b28 	.word	0x08005b28
 8004fb0:	08005b40 	.word	0x08005b40
 8004fb4:	20001430 	.word	0x20001430

08004fb8 <displayTimeHandler>:

void displayTimeHandler(void){
 8004fb8:	b580      	push	{r7, lr}
 8004fba:	af00      	add	r7, sp, #0
	displayUpdateTime();
 8004fbc:	f7ff fd9a 	bl	8004af4 <displayUpdateTime>
}
 8004fc0:	bf00      	nop
 8004fc2:	bd80      	pop	{r7, pc}

08004fc4 <changeLocate>:

void changeLocate(void){
 8004fc4:	b580      	push	{r7, lr}
 8004fc6:	b082      	sub	sp, #8
 8004fc8:	af02      	add	r7, sp, #8

	if (idChangeLocateTime != NO_TIMER)
 8004fca:	4b0c      	ldr	r3, [pc, #48]	@ (8004ffc <changeLocate+0x38>)
 8004fcc:	781b      	ldrb	r3, [r3, #0]
 8004fce:	2bff      	cmp	r3, #255	@ 0xff
 8004fd0:	d004      	beq.n	8004fdc <changeLocate+0x18>
	{
		TimerStop(idChangeLocateTime);
 8004fd2:	4b0a      	ldr	r3, [pc, #40]	@ (8004ffc <changeLocate+0x38>)
 8004fd4:	781b      	ldrb	r3, [r3, #0]
 8004fd6:	4618      	mov	r0, r3
 8004fd8:	f7fc fd9c 	bl	8001b14 <TimerStop>
	}
	idChangeLocateTime = TimerStart("DISPLAY_LOCATE ", 1000, 2, (void*) writeLocateHandler, NULL);
 8004fdc:	2300      	movs	r3, #0
 8004fde:	9300      	str	r3, [sp, #0]
 8004fe0:	4b07      	ldr	r3, [pc, #28]	@ (8005000 <changeLocate+0x3c>)
 8004fe2:	2202      	movs	r2, #2
 8004fe4:	f44f 717a 	mov.w	r1, #1000	@ 0x3e8
 8004fe8:	4806      	ldr	r0, [pc, #24]	@ (8005004 <changeLocate+0x40>)
 8004fea:	f7fc fd31 	bl	8001a50 <TimerStart>
 8004fee:	4603      	mov	r3, r0
 8004ff0:	461a      	mov	r2, r3
 8004ff2:	4b02      	ldr	r3, [pc, #8]	@ (8004ffc <changeLocate+0x38>)
 8004ff4:	701a      	strb	r2, [r3, #0]
}
 8004ff6:	bf00      	nop
 8004ff8:	46bd      	mov	sp, r7
 8004ffa:	bd80      	pop	{r7, pc}
 8004ffc:	20000070 	.word	0x20000070
 8005000:	08004c45 	.word	0x08004c45
 8005004:	08005b58 	.word	0x08005b58

08005008 <clearTimeLCDHandler>:

void clearTimeLCDHandler(void){
 8005008:	b580      	push	{r7, lr}
 800500a:	b082      	sub	sp, #8
 800500c:	af02      	add	r7, sp, #8
	ucg_ClearScreenCustom(&ucg, 20, 70, 0,128);
 800500e:	2380      	movs	r3, #128	@ 0x80
 8005010:	9300      	str	r3, [sp, #0]
 8005012:	2300      	movs	r3, #0
 8005014:	2246      	movs	r2, #70	@ 0x46
 8005016:	2114      	movs	r1, #20
 8005018:	480d      	ldr	r0, [pc, #52]	@ (8005050 <clearTimeLCDHandler+0x48>)
 800501a:	f7fd f8cd 	bl	80021b8 <ucg_ClearScreenCustom>

	if (idDisplayTime != NO_TIMER)
 800501e:	4b0d      	ldr	r3, [pc, #52]	@ (8005054 <clearTimeLCDHandler+0x4c>)
 8005020:	781b      	ldrb	r3, [r3, #0]
 8005022:	2bff      	cmp	r3, #255	@ 0xff
 8005024:	d004      	beq.n	8005030 <clearTimeLCDHandler+0x28>
	{
		TimerStop(idDisplayTime);
 8005026:	4b0b      	ldr	r3, [pc, #44]	@ (8005054 <clearTimeLCDHandler+0x4c>)
 8005028:	781b      	ldrb	r3, [r3, #0]
 800502a:	4618      	mov	r0, r3
 800502c:	f7fc fd72 	bl	8001b14 <TimerStop>
	}
	idDisplayTime = TimerStart("MODE_ALARM ", 1000, TIMER_REPEAT_ONE_TIME, (void*) displayTimeHandler, NULL);
 8005030:	2300      	movs	r3, #0
 8005032:	9300      	str	r3, [sp, #0]
 8005034:	4b08      	ldr	r3, [pc, #32]	@ (8005058 <clearTimeLCDHandler+0x50>)
 8005036:	2200      	movs	r2, #0
 8005038:	f44f 717a 	mov.w	r1, #1000	@ 0x3e8
 800503c:	4807      	ldr	r0, [pc, #28]	@ (800505c <clearTimeLCDHandler+0x54>)
 800503e:	f7fc fd07 	bl	8001a50 <TimerStart>
 8005042:	4603      	mov	r3, r0
 8005044:	461a      	mov	r2, r3
 8005046:	4b03      	ldr	r3, [pc, #12]	@ (8005054 <clearTimeLCDHandler+0x4c>)
 8005048:	701a      	strb	r2, [r3, #0]
}
 800504a:	bf00      	nop
 800504c:	46bd      	mov	sp, r7
 800504e:	bd80      	pop	{r7, pc}
 8005050:	20001430 	.word	0x20001430
 8005054:	2000006f 	.word	0x2000006f
 8005058:	08004fb9 	.word	0x08004fb9
 800505c:	08005ab0 	.word	0x08005ab0

08005060 <_sbrk>:
 *
 * @param incr Memory size
 * @return Pointer to allocated memory
 */
void *_sbrk(ptrdiff_t incr)
{
 8005060:	b580      	push	{r7, lr}
 8005062:	b086      	sub	sp, #24
 8005064:	af00      	add	r7, sp, #0
 8005066:	6078      	str	r0, [r7, #4]
  extern uint8_t _end; /* Symbol defined in the linker script */
  extern uint8_t _estack; /* Symbol defined in the linker script */
  extern uint32_t _Min_Stack_Size; /* Symbol defined in the linker script */
  const uint32_t stack_limit = (uint32_t)&_estack - (uint32_t)&_Min_Stack_Size;
 8005068:	4a14      	ldr	r2, [pc, #80]	@ (80050bc <_sbrk+0x5c>)
 800506a:	4b15      	ldr	r3, [pc, #84]	@ (80050c0 <_sbrk+0x60>)
 800506c:	1ad3      	subs	r3, r2, r3
 800506e:	617b      	str	r3, [r7, #20]
  const uint8_t *max_heap = (uint8_t *)stack_limit;
 8005070:	697b      	ldr	r3, [r7, #20]
 8005072:	613b      	str	r3, [r7, #16]
  uint8_t *prev_heap_end;

  /* Initialize heap end at first call */
  if (NULL == __sbrk_heap_end)
 8005074:	4b13      	ldr	r3, [pc, #76]	@ (80050c4 <_sbrk+0x64>)
 8005076:	681b      	ldr	r3, [r3, #0]
 8005078:	2b00      	cmp	r3, #0
 800507a:	d102      	bne.n	8005082 <_sbrk+0x22>
  {
    __sbrk_heap_end = &_end;
 800507c:	4b11      	ldr	r3, [pc, #68]	@ (80050c4 <_sbrk+0x64>)
 800507e:	4a12      	ldr	r2, [pc, #72]	@ (80050c8 <_sbrk+0x68>)
 8005080:	601a      	str	r2, [r3, #0]
  }

  /* Protect heap from growing into the reserved MSP stack */
  if (__sbrk_heap_end + incr > max_heap)
 8005082:	4b10      	ldr	r3, [pc, #64]	@ (80050c4 <_sbrk+0x64>)
 8005084:	681a      	ldr	r2, [r3, #0]
 8005086:	687b      	ldr	r3, [r7, #4]
 8005088:	4413      	add	r3, r2
 800508a:	693a      	ldr	r2, [r7, #16]
 800508c:	429a      	cmp	r2, r3
 800508e:	d207      	bcs.n	80050a0 <_sbrk+0x40>
  {
    errno = ENOMEM;
 8005090:	f000 f866 	bl	8005160 <__errno>
 8005094:	4603      	mov	r3, r0
 8005096:	220c      	movs	r2, #12
 8005098:	601a      	str	r2, [r3, #0]
    return (void *)-1;
 800509a:	f04f 33ff 	mov.w	r3, #4294967295
 800509e:	e009      	b.n	80050b4 <_sbrk+0x54>
  }

  prev_heap_end = __sbrk_heap_end;
 80050a0:	4b08      	ldr	r3, [pc, #32]	@ (80050c4 <_sbrk+0x64>)
 80050a2:	681b      	ldr	r3, [r3, #0]
 80050a4:	60fb      	str	r3, [r7, #12]
  __sbrk_heap_end += incr;
 80050a6:	4b07      	ldr	r3, [pc, #28]	@ (80050c4 <_sbrk+0x64>)
 80050a8:	681a      	ldr	r2, [r3, #0]
 80050aa:	687b      	ldr	r3, [r7, #4]
 80050ac:	4413      	add	r3, r2
 80050ae:	4a05      	ldr	r2, [pc, #20]	@ (80050c4 <_sbrk+0x64>)
 80050b0:	6013      	str	r3, [r2, #0]

  return (void *)prev_heap_end;
 80050b2:	68fb      	ldr	r3, [r7, #12]
}
 80050b4:	4618      	mov	r0, r3
 80050b6:	3718      	adds	r7, #24
 80050b8:	46bd      	mov	sp, r7
 80050ba:	bd80      	pop	{r7, pc}
 80050bc:	20018000 	.word	0x20018000
 80050c0:	00000400 	.word	0x00000400
 80050c4:	20001580 	.word	0x20001580
 80050c8:	200016d0 	.word	0x200016d0

080050cc <Reset_Handler>:

  .section .text.Reset_Handler
  .weak Reset_Handler
  .type Reset_Handler, %function
Reset_Handler:
  ldr   r0, =_estack
 80050cc:	480d      	ldr	r0, [pc, #52]	@ (8005104 <LoopForever+0x2>)
  mov   sp, r0          /* set stack pointer */
 80050ce:	4685      	mov	sp, r0
/* Call the clock system initialization function.*/
  bl  SystemInit
 80050d0:	f7fb f8d6 	bl	8000280 <SystemInit>

/* Copy the data segment initializers from flash to SRAM */
  ldr r0, =_sdata
 80050d4:	480c      	ldr	r0, [pc, #48]	@ (8005108 <LoopForever+0x6>)
  ldr r1, =_edata
 80050d6:	490d      	ldr	r1, [pc, #52]	@ (800510c <LoopForever+0xa>)
  ldr r2, =_sidata
 80050d8:	4a0d      	ldr	r2, [pc, #52]	@ (8005110 <LoopForever+0xe>)
  movs r3, #0
 80050da:	2300      	movs	r3, #0
  b LoopCopyDataInit
 80050dc:	e002      	b.n	80050e4 <LoopCopyDataInit>

080050de <CopyDataInit>:

CopyDataInit:
  ldr r4, [r2, r3]
 80050de:	58d4      	ldr	r4, [r2, r3]
  str r4, [r0, r3]
 80050e0:	50c4      	str	r4, [r0, r3]
  adds r3, r3, #4
 80050e2:	3304      	adds	r3, #4

080050e4 <LoopCopyDataInit>:

LoopCopyDataInit:
  adds r4, r0, r3
 80050e4:	18c4      	adds	r4, r0, r3
  cmp r4, r1
 80050e6:	428c      	cmp	r4, r1
  bcc CopyDataInit
 80050e8:	d3f9      	bcc.n	80050de <CopyDataInit>

/* Zero fill the bss segment. */
  ldr r2, =_sbss
 80050ea:	4a0a      	ldr	r2, [pc, #40]	@ (8005114 <LoopForever+0x12>)
  ldr r4, =_ebss
 80050ec:	4c0a      	ldr	r4, [pc, #40]	@ (8005118 <LoopForever+0x16>)
  movs r3, #0
 80050ee:	2300      	movs	r3, #0
  b LoopFillZerobss
 80050f0:	e001      	b.n	80050f6 <LoopFillZerobss>

080050f2 <FillZerobss>:

FillZerobss:
  str  r3, [r2]
 80050f2:	6013      	str	r3, [r2, #0]
  adds r2, r2, #4
 80050f4:	3204      	adds	r2, #4

080050f6 <LoopFillZerobss>:

LoopFillZerobss:
  cmp r2, r4
 80050f6:	42a2      	cmp	r2, r4
  bcc FillZerobss
 80050f8:	d3fb      	bcc.n	80050f2 <FillZerobss>

/* Call static constructors */
  bl __libc_init_array
 80050fa:	f000 f837 	bl	800516c <__libc_init_array>
/* Call the application's entry point.*/
  bl main
 80050fe:	f7ff f99d 	bl	800443c <main>

08005102 <LoopForever>:

LoopForever:
  b LoopForever
 8005102:	e7fe      	b.n	8005102 <LoopForever>
  ldr   r0, =_estack
 8005104:	20018000 	.word	0x20018000
  ldr r0, =_sdata
 8005108:	20000000 	.word	0x20000000
  ldr r1, =_edata
 800510c:	200000c4 	.word	0x200000c4
  ldr r2, =_sidata
 8005110:	08006748 	.word	0x08006748
  ldr r2, =_sbss
 8005114:	200000c4 	.word	0x200000c4
  ldr r4, =_ebss
 8005118:	200016cc 	.word	0x200016cc

0800511c <ADC_IRQHandler>:
 * @retval : None
*/
  .section .text.Default_Handler,"ax",%progbits
Default_Handler:
Infinite_Loop:
  b Infinite_Loop
 800511c:	e7fe      	b.n	800511c <ADC_IRQHandler>
	...

08005120 <siprintf>:
 8005120:	b40e      	push	{r1, r2, r3}
 8005122:	b500      	push	{lr}
 8005124:	b09c      	sub	sp, #112	@ 0x70
 8005126:	ab1d      	add	r3, sp, #116	@ 0x74
 8005128:	9002      	str	r0, [sp, #8]
 800512a:	9006      	str	r0, [sp, #24]
 800512c:	f06f 4100 	mvn.w	r1, #2147483648	@ 0x80000000
 8005130:	4809      	ldr	r0, [pc, #36]	@ (8005158 <siprintf+0x38>)
 8005132:	9107      	str	r1, [sp, #28]
 8005134:	9104      	str	r1, [sp, #16]
 8005136:	4909      	ldr	r1, [pc, #36]	@ (800515c <siprintf+0x3c>)
 8005138:	f853 2b04 	ldr.w	r2, [r3], #4
 800513c:	9105      	str	r1, [sp, #20]
 800513e:	6800      	ldr	r0, [r0, #0]
 8005140:	9301      	str	r3, [sp, #4]
 8005142:	a902      	add	r1, sp, #8
 8005144:	f000 f98c 	bl	8005460 <_svfiprintf_r>
 8005148:	9b02      	ldr	r3, [sp, #8]
 800514a:	2200      	movs	r2, #0
 800514c:	701a      	strb	r2, [r3, #0]
 800514e:	b01c      	add	sp, #112	@ 0x70
 8005150:	f85d eb04 	ldr.w	lr, [sp], #4
 8005154:	b003      	add	sp, #12
 8005156:	4770      	bx	lr
 8005158:	20000074 	.word	0x20000074
 800515c:	ffff0208 	.word	0xffff0208

08005160 <__errno>:
 8005160:	4b01      	ldr	r3, [pc, #4]	@ (8005168 <__errno+0x8>)
 8005162:	6818      	ldr	r0, [r3, #0]
 8005164:	4770      	bx	lr
 8005166:	bf00      	nop
 8005168:	20000074 	.word	0x20000074

0800516c <__libc_init_array>:
 800516c:	b570      	push	{r4, r5, r6, lr}
 800516e:	4d0d      	ldr	r5, [pc, #52]	@ (80051a4 <__libc_init_array+0x38>)
 8005170:	4c0d      	ldr	r4, [pc, #52]	@ (80051a8 <__libc_init_array+0x3c>)
 8005172:	1b64      	subs	r4, r4, r5
 8005174:	10a4      	asrs	r4, r4, #2
 8005176:	2600      	movs	r6, #0
 8005178:	42a6      	cmp	r6, r4
 800517a:	d109      	bne.n	8005190 <__libc_init_array+0x24>
 800517c:	4d0b      	ldr	r5, [pc, #44]	@ (80051ac <__libc_init_array+0x40>)
 800517e:	4c0c      	ldr	r4, [pc, #48]	@ (80051b0 <__libc_init_array+0x44>)
 8005180:	f000 fc66 	bl	8005a50 <_init>
 8005184:	1b64      	subs	r4, r4, r5
 8005186:	10a4      	asrs	r4, r4, #2
 8005188:	2600      	movs	r6, #0
 800518a:	42a6      	cmp	r6, r4
 800518c:	d105      	bne.n	800519a <__libc_init_array+0x2e>
 800518e:	bd70      	pop	{r4, r5, r6, pc}
 8005190:	f855 3b04 	ldr.w	r3, [r5], #4
 8005194:	4798      	blx	r3
 8005196:	3601      	adds	r6, #1
 8005198:	e7ee      	b.n	8005178 <__libc_init_array+0xc>
 800519a:	f855 3b04 	ldr.w	r3, [r5], #4
 800519e:	4798      	blx	r3
 80051a0:	3601      	adds	r6, #1
 80051a2:	e7f2      	b.n	800518a <__libc_init_array+0x1e>
 80051a4:	08006740 	.word	0x08006740
 80051a8:	08006740 	.word	0x08006740
 80051ac:	08006740 	.word	0x08006740
 80051b0:	08006744 	.word	0x08006744

080051b4 <__retarget_lock_acquire_recursive>:
 80051b4:	4770      	bx	lr

080051b6 <__retarget_lock_release_recursive>:
 80051b6:	4770      	bx	lr

080051b8 <_free_r>:
 80051b8:	b538      	push	{r3, r4, r5, lr}
 80051ba:	4605      	mov	r5, r0
 80051bc:	2900      	cmp	r1, #0
 80051be:	d041      	beq.n	8005244 <_free_r+0x8c>
 80051c0:	f851 3c04 	ldr.w	r3, [r1, #-4]
 80051c4:	1f0c      	subs	r4, r1, #4
 80051c6:	2b00      	cmp	r3, #0
 80051c8:	bfb8      	it	lt
 80051ca:	18e4      	addlt	r4, r4, r3
 80051cc:	f000 f8e0 	bl	8005390 <__malloc_lock>
 80051d0:	4a1d      	ldr	r2, [pc, #116]	@ (8005248 <_free_r+0x90>)
 80051d2:	6813      	ldr	r3, [r2, #0]
 80051d4:	b933      	cbnz	r3, 80051e4 <_free_r+0x2c>
 80051d6:	6063      	str	r3, [r4, #4]
 80051d8:	6014      	str	r4, [r2, #0]
 80051da:	4628      	mov	r0, r5
 80051dc:	e8bd 4038 	ldmia.w	sp!, {r3, r4, r5, lr}
 80051e0:	f000 b8dc 	b.w	800539c <__malloc_unlock>
 80051e4:	42a3      	cmp	r3, r4
 80051e6:	d908      	bls.n	80051fa <_free_r+0x42>
 80051e8:	6820      	ldr	r0, [r4, #0]
 80051ea:	1821      	adds	r1, r4, r0
 80051ec:	428b      	cmp	r3, r1
 80051ee:	bf01      	itttt	eq
 80051f0:	6819      	ldreq	r1, [r3, #0]
 80051f2:	685b      	ldreq	r3, [r3, #4]
 80051f4:	1809      	addeq	r1, r1, r0
 80051f6:	6021      	streq	r1, [r4, #0]
 80051f8:	e7ed      	b.n	80051d6 <_free_r+0x1e>
 80051fa:	461a      	mov	r2, r3
 80051fc:	685b      	ldr	r3, [r3, #4]
 80051fe:	b10b      	cbz	r3, 8005204 <_free_r+0x4c>
 8005200:	42a3      	cmp	r3, r4
 8005202:	d9fa      	bls.n	80051fa <_free_r+0x42>
 8005204:	6811      	ldr	r1, [r2, #0]
 8005206:	1850      	adds	r0, r2, r1
 8005208:	42a0      	cmp	r0, r4
 800520a:	d10b      	bne.n	8005224 <_free_r+0x6c>
 800520c:	6820      	ldr	r0, [r4, #0]
 800520e:	4401      	add	r1, r0
 8005210:	1850      	adds	r0, r2, r1
 8005212:	4283      	cmp	r3, r0
 8005214:	6011      	str	r1, [r2, #0]
 8005216:	d1e0      	bne.n	80051da <_free_r+0x22>
 8005218:	6818      	ldr	r0, [r3, #0]
 800521a:	685b      	ldr	r3, [r3, #4]
 800521c:	6053      	str	r3, [r2, #4]
 800521e:	4408      	add	r0, r1
 8005220:	6010      	str	r0, [r2, #0]
 8005222:	e7da      	b.n	80051da <_free_r+0x22>
 8005224:	d902      	bls.n	800522c <_free_r+0x74>
 8005226:	230c      	movs	r3, #12
 8005228:	602b      	str	r3, [r5, #0]
 800522a:	e7d6      	b.n	80051da <_free_r+0x22>
 800522c:	6820      	ldr	r0, [r4, #0]
 800522e:	1821      	adds	r1, r4, r0
 8005230:	428b      	cmp	r3, r1
 8005232:	bf04      	itt	eq
 8005234:	6819      	ldreq	r1, [r3, #0]
 8005236:	685b      	ldreq	r3, [r3, #4]
 8005238:	6063      	str	r3, [r4, #4]
 800523a:	bf04      	itt	eq
 800523c:	1809      	addeq	r1, r1, r0
 800523e:	6021      	streq	r1, [r4, #0]
 8005240:	6054      	str	r4, [r2, #4]
 8005242:	e7ca      	b.n	80051da <_free_r+0x22>
 8005244:	bd38      	pop	{r3, r4, r5, pc}
 8005246:	bf00      	nop
 8005248:	200016c8 	.word	0x200016c8

0800524c <sbrk_aligned>:
 800524c:	b570      	push	{r4, r5, r6, lr}
 800524e:	4e0f      	ldr	r6, [pc, #60]	@ (800528c <sbrk_aligned+0x40>)
 8005250:	460c      	mov	r4, r1
 8005252:	6831      	ldr	r1, [r6, #0]
 8005254:	4605      	mov	r5, r0
 8005256:	b911      	cbnz	r1, 800525e <sbrk_aligned+0x12>
 8005258:	f000 fba6 	bl	80059a8 <_sbrk_r>
 800525c:	6030      	str	r0, [r6, #0]
 800525e:	4621      	mov	r1, r4
 8005260:	4628      	mov	r0, r5
 8005262:	f000 fba1 	bl	80059a8 <_sbrk_r>
 8005266:	1c43      	adds	r3, r0, #1
 8005268:	d103      	bne.n	8005272 <sbrk_aligned+0x26>
 800526a:	f04f 34ff 	mov.w	r4, #4294967295
 800526e:	4620      	mov	r0, r4
 8005270:	bd70      	pop	{r4, r5, r6, pc}
 8005272:	1cc4      	adds	r4, r0, #3
 8005274:	f024 0403 	bic.w	r4, r4, #3
 8005278:	42a0      	cmp	r0, r4
 800527a:	d0f8      	beq.n	800526e <sbrk_aligned+0x22>
 800527c:	1a21      	subs	r1, r4, r0
 800527e:	4628      	mov	r0, r5
 8005280:	f000 fb92 	bl	80059a8 <_sbrk_r>
 8005284:	3001      	adds	r0, #1
 8005286:	d1f2      	bne.n	800526e <sbrk_aligned+0x22>
 8005288:	e7ef      	b.n	800526a <sbrk_aligned+0x1e>
 800528a:	bf00      	nop
 800528c:	200016c4 	.word	0x200016c4

08005290 <_malloc_r>:
 8005290:	e92d 43f8 	stmdb	sp!, {r3, r4, r5, r6, r7, r8, r9, lr}
 8005294:	1ccd      	adds	r5, r1, #3
 8005296:	f025 0503 	bic.w	r5, r5, #3
 800529a:	3508      	adds	r5, #8
 800529c:	2d0c      	cmp	r5, #12
 800529e:	bf38      	it	cc
 80052a0:	250c      	movcc	r5, #12
 80052a2:	2d00      	cmp	r5, #0
 80052a4:	4606      	mov	r6, r0
 80052a6:	db01      	blt.n	80052ac <_malloc_r+0x1c>
 80052a8:	42a9      	cmp	r1, r5
 80052aa:	d904      	bls.n	80052b6 <_malloc_r+0x26>
 80052ac:	230c      	movs	r3, #12
 80052ae:	6033      	str	r3, [r6, #0]
 80052b0:	2000      	movs	r0, #0
 80052b2:	e8bd 83f8 	ldmia.w	sp!, {r3, r4, r5, r6, r7, r8, r9, pc}
 80052b6:	f8df 80d4 	ldr.w	r8, [pc, #212]	@ 800538c <_malloc_r+0xfc>
 80052ba:	f000 f869 	bl	8005390 <__malloc_lock>
 80052be:	f8d8 3000 	ldr.w	r3, [r8]
 80052c2:	461c      	mov	r4, r3
 80052c4:	bb44      	cbnz	r4, 8005318 <_malloc_r+0x88>
 80052c6:	4629      	mov	r1, r5
 80052c8:	4630      	mov	r0, r6
 80052ca:	f7ff ffbf 	bl	800524c <sbrk_aligned>
 80052ce:	1c43      	adds	r3, r0, #1
 80052d0:	4604      	mov	r4, r0
 80052d2:	d158      	bne.n	8005386 <_malloc_r+0xf6>
 80052d4:	f8d8 4000 	ldr.w	r4, [r8]
 80052d8:	4627      	mov	r7, r4
 80052da:	2f00      	cmp	r7, #0
 80052dc:	d143      	bne.n	8005366 <_malloc_r+0xd6>
 80052de:	2c00      	cmp	r4, #0
 80052e0:	d04b      	beq.n	800537a <_malloc_r+0xea>
 80052e2:	6823      	ldr	r3, [r4, #0]
 80052e4:	4639      	mov	r1, r7
 80052e6:	4630      	mov	r0, r6
 80052e8:	eb04 0903 	add.w	r9, r4, r3
 80052ec:	f000 fb5c 	bl	80059a8 <_sbrk_r>
 80052f0:	4581      	cmp	r9, r0
 80052f2:	d142      	bne.n	800537a <_malloc_r+0xea>
 80052f4:	6821      	ldr	r1, [r4, #0]
 80052f6:	1a6d      	subs	r5, r5, r1
 80052f8:	4629      	mov	r1, r5
 80052fa:	4630      	mov	r0, r6
 80052fc:	f7ff ffa6 	bl	800524c <sbrk_aligned>
 8005300:	3001      	adds	r0, #1
 8005302:	d03a      	beq.n	800537a <_malloc_r+0xea>
 8005304:	6823      	ldr	r3, [r4, #0]
 8005306:	442b      	add	r3, r5
 8005308:	6023      	str	r3, [r4, #0]
 800530a:	f8d8 3000 	ldr.w	r3, [r8]
 800530e:	685a      	ldr	r2, [r3, #4]
 8005310:	bb62      	cbnz	r2, 800536c <_malloc_r+0xdc>
 8005312:	f8c8 7000 	str.w	r7, [r8]
 8005316:	e00f      	b.n	8005338 <_malloc_r+0xa8>
 8005318:	6822      	ldr	r2, [r4, #0]
 800531a:	1b52      	subs	r2, r2, r5
 800531c:	d420      	bmi.n	8005360 <_malloc_r+0xd0>
 800531e:	2a0b      	cmp	r2, #11
 8005320:	d917      	bls.n	8005352 <_malloc_r+0xc2>
 8005322:	1961      	adds	r1, r4, r5
 8005324:	42a3      	cmp	r3, r4
 8005326:	6025      	str	r5, [r4, #0]
 8005328:	bf18      	it	ne
 800532a:	6059      	strne	r1, [r3, #4]
 800532c:	6863      	ldr	r3, [r4, #4]
 800532e:	bf08      	it	eq
 8005330:	f8c8 1000 	streq.w	r1, [r8]
 8005334:	5162      	str	r2, [r4, r5]
 8005336:	604b      	str	r3, [r1, #4]
 8005338:	4630      	mov	r0, r6
 800533a:	f000 f82f 	bl	800539c <__malloc_unlock>
 800533e:	f104 000b 	add.w	r0, r4, #11
 8005342:	1d23      	adds	r3, r4, #4
 8005344:	f020 0007 	bic.w	r0, r0, #7
 8005348:	1ac2      	subs	r2, r0, r3
 800534a:	bf1c      	itt	ne
 800534c:	1a1b      	subne	r3, r3, r0
 800534e:	50a3      	strne	r3, [r4, r2]
 8005350:	e7af      	b.n	80052b2 <_malloc_r+0x22>
 8005352:	6862      	ldr	r2, [r4, #4]
 8005354:	42a3      	cmp	r3, r4
 8005356:	bf0c      	ite	eq
 8005358:	f8c8 2000 	streq.w	r2, [r8]
 800535c:	605a      	strne	r2, [r3, #4]
 800535e:	e7eb      	b.n	8005338 <_malloc_r+0xa8>
 8005360:	4623      	mov	r3, r4
 8005362:	6864      	ldr	r4, [r4, #4]
 8005364:	e7ae      	b.n	80052c4 <_malloc_r+0x34>
 8005366:	463c      	mov	r4, r7
 8005368:	687f      	ldr	r7, [r7, #4]
 800536a:	e7b6      	b.n	80052da <_malloc_r+0x4a>
 800536c:	461a      	mov	r2, r3
 800536e:	685b      	ldr	r3, [r3, #4]
 8005370:	42a3      	cmp	r3, r4
 8005372:	d1fb      	bne.n	800536c <_malloc_r+0xdc>
 8005374:	2300      	movs	r3, #0
 8005376:	6053      	str	r3, [r2, #4]
 8005378:	e7de      	b.n	8005338 <_malloc_r+0xa8>
 800537a:	230c      	movs	r3, #12
 800537c:	6033      	str	r3, [r6, #0]
 800537e:	4630      	mov	r0, r6
 8005380:	f000 f80c 	bl	800539c <__malloc_unlock>
 8005384:	e794      	b.n	80052b0 <_malloc_r+0x20>
 8005386:	6005      	str	r5, [r0, #0]
 8005388:	e7d6      	b.n	8005338 <_malloc_r+0xa8>
 800538a:	bf00      	nop
 800538c:	200016c8 	.word	0x200016c8

08005390 <__malloc_lock>:
 8005390:	4801      	ldr	r0, [pc, #4]	@ (8005398 <__malloc_lock+0x8>)
 8005392:	f7ff bf0f 	b.w	80051b4 <__retarget_lock_acquire_recursive>
 8005396:	bf00      	nop
 8005398:	200016c0 	.word	0x200016c0

0800539c <__malloc_unlock>:
 800539c:	4801      	ldr	r0, [pc, #4]	@ (80053a4 <__malloc_unlock+0x8>)
 800539e:	f7ff bf0a 	b.w	80051b6 <__retarget_lock_release_recursive>
 80053a2:	bf00      	nop
 80053a4:	200016c0 	.word	0x200016c0

080053a8 <__ssputs_r>:
 80053a8:	e92d 47f0 	stmdb	sp!, {r4, r5, r6, r7, r8, r9, sl, lr}
 80053ac:	688e      	ldr	r6, [r1, #8]
 80053ae:	461f      	mov	r7, r3
 80053b0:	42be      	cmp	r6, r7
 80053b2:	680b      	ldr	r3, [r1, #0]
 80053b4:	4682      	mov	sl, r0
 80053b6:	460c      	mov	r4, r1
 80053b8:	4690      	mov	r8, r2
 80053ba:	d82d      	bhi.n	8005418 <__ssputs_r+0x70>
 80053bc:	f9b1 200c 	ldrsh.w	r2, [r1, #12]
 80053c0:	f412 6f90 	tst.w	r2, #1152	@ 0x480
 80053c4:	d026      	beq.n	8005414 <__ssputs_r+0x6c>
 80053c6:	6965      	ldr	r5, [r4, #20]
 80053c8:	6909      	ldr	r1, [r1, #16]
 80053ca:	eb05 0545 	add.w	r5, r5, r5, lsl #1
 80053ce:	eba3 0901 	sub.w	r9, r3, r1
 80053d2:	eb05 75d5 	add.w	r5, r5, r5, lsr #31
 80053d6:	1c7b      	adds	r3, r7, #1
 80053d8:	444b      	add	r3, r9
 80053da:	106d      	asrs	r5, r5, #1
 80053dc:	429d      	cmp	r5, r3
 80053de:	bf38      	it	cc
 80053e0:	461d      	movcc	r5, r3
 80053e2:	0553      	lsls	r3, r2, #21
 80053e4:	d527      	bpl.n	8005436 <__ssputs_r+0x8e>
 80053e6:	4629      	mov	r1, r5
 80053e8:	f7ff ff52 	bl	8005290 <_malloc_r>
 80053ec:	4606      	mov	r6, r0
 80053ee:	b360      	cbz	r0, 800544a <__ssputs_r+0xa2>
 80053f0:	6921      	ldr	r1, [r4, #16]
 80053f2:	464a      	mov	r2, r9
 80053f4:	f000 fae8 	bl	80059c8 <memcpy>
 80053f8:	89a3      	ldrh	r3, [r4, #12]
 80053fa:	f423 6390 	bic.w	r3, r3, #1152	@ 0x480
 80053fe:	f043 0380 	orr.w	r3, r3, #128	@ 0x80
 8005402:	81a3      	strh	r3, [r4, #12]
 8005404:	6126      	str	r6, [r4, #16]
 8005406:	6165      	str	r5, [r4, #20]
 8005408:	444e      	add	r6, r9
 800540a:	eba5 0509 	sub.w	r5, r5, r9
 800540e:	6026      	str	r6, [r4, #0]
 8005410:	60a5      	str	r5, [r4, #8]
 8005412:	463e      	mov	r6, r7
 8005414:	42be      	cmp	r6, r7
 8005416:	d900      	bls.n	800541a <__ssputs_r+0x72>
 8005418:	463e      	mov	r6, r7
 800541a:	6820      	ldr	r0, [r4, #0]
 800541c:	4632      	mov	r2, r6
 800541e:	4641      	mov	r1, r8
 8005420:	f000 faa8 	bl	8005974 <memmove>
 8005424:	68a3      	ldr	r3, [r4, #8]
 8005426:	1b9b      	subs	r3, r3, r6
 8005428:	60a3      	str	r3, [r4, #8]
 800542a:	6823      	ldr	r3, [r4, #0]
 800542c:	4433      	add	r3, r6
 800542e:	6023      	str	r3, [r4, #0]
 8005430:	2000      	movs	r0, #0
 8005432:	e8bd 87f0 	ldmia.w	sp!, {r4, r5, r6, r7, r8, r9, sl, pc}
 8005436:	462a      	mov	r2, r5
 8005438:	f000 fad4 	bl	80059e4 <_realloc_r>
 800543c:	4606      	mov	r6, r0
 800543e:	2800      	cmp	r0, #0
 8005440:	d1e0      	bne.n	8005404 <__ssputs_r+0x5c>
 8005442:	6921      	ldr	r1, [r4, #16]
 8005444:	4650      	mov	r0, sl
 8005446:	f7ff feb7 	bl	80051b8 <_free_r>
 800544a:	230c      	movs	r3, #12
 800544c:	f8ca 3000 	str.w	r3, [sl]
 8005450:	89a3      	ldrh	r3, [r4, #12]
 8005452:	f043 0340 	orr.w	r3, r3, #64	@ 0x40
 8005456:	81a3      	strh	r3, [r4, #12]
 8005458:	f04f 30ff 	mov.w	r0, #4294967295
 800545c:	e7e9      	b.n	8005432 <__ssputs_r+0x8a>
	...

08005460 <_svfiprintf_r>:
 8005460:	e92d 4ff0 	stmdb	sp!, {r4, r5, r6, r7, r8, r9, sl, fp, lr}
 8005464:	4698      	mov	r8, r3
 8005466:	898b      	ldrh	r3, [r1, #12]
 8005468:	061b      	lsls	r3, r3, #24
 800546a:	b09d      	sub	sp, #116	@ 0x74
 800546c:	4607      	mov	r7, r0
 800546e:	460d      	mov	r5, r1
 8005470:	4614      	mov	r4, r2
 8005472:	d510      	bpl.n	8005496 <_svfiprintf_r+0x36>
 8005474:	690b      	ldr	r3, [r1, #16]
 8005476:	b973      	cbnz	r3, 8005496 <_svfiprintf_r+0x36>
 8005478:	2140      	movs	r1, #64	@ 0x40
 800547a:	f7ff ff09 	bl	8005290 <_malloc_r>
 800547e:	6028      	str	r0, [r5, #0]
 8005480:	6128      	str	r0, [r5, #16]
 8005482:	b930      	cbnz	r0, 8005492 <_svfiprintf_r+0x32>
 8005484:	230c      	movs	r3, #12
 8005486:	603b      	str	r3, [r7, #0]
 8005488:	f04f 30ff 	mov.w	r0, #4294967295
 800548c:	b01d      	add	sp, #116	@ 0x74
 800548e:	e8bd 8ff0 	ldmia.w	sp!, {r4, r5, r6, r7, r8, r9, sl, fp, pc}
 8005492:	2340      	movs	r3, #64	@ 0x40
 8005494:	616b      	str	r3, [r5, #20]
 8005496:	2300      	movs	r3, #0
 8005498:	9309      	str	r3, [sp, #36]	@ 0x24
 800549a:	2320      	movs	r3, #32
 800549c:	f88d 3029 	strb.w	r3, [sp, #41]	@ 0x29
 80054a0:	f8cd 800c 	str.w	r8, [sp, #12]
 80054a4:	2330      	movs	r3, #48	@ 0x30
 80054a6:	f8df 819c 	ldr.w	r8, [pc, #412]	@ 8005644 <_svfiprintf_r+0x1e4>
 80054aa:	f88d 302a 	strb.w	r3, [sp, #42]	@ 0x2a
 80054ae:	f04f 0901 	mov.w	r9, #1
 80054b2:	4623      	mov	r3, r4
 80054b4:	469a      	mov	sl, r3
 80054b6:	f813 2b01 	ldrb.w	r2, [r3], #1
 80054ba:	b10a      	cbz	r2, 80054c0 <_svfiprintf_r+0x60>
 80054bc:	2a25      	cmp	r2, #37	@ 0x25
 80054be:	d1f9      	bne.n	80054b4 <_svfiprintf_r+0x54>
 80054c0:	ebba 0b04 	subs.w	fp, sl, r4
 80054c4:	d00b      	beq.n	80054de <_svfiprintf_r+0x7e>
 80054c6:	465b      	mov	r3, fp
 80054c8:	4622      	mov	r2, r4
 80054ca:	4629      	mov	r1, r5
 80054cc:	4638      	mov	r0, r7
 80054ce:	f7ff ff6b 	bl	80053a8 <__ssputs_r>
 80054d2:	3001      	adds	r0, #1
 80054d4:	f000 80a7 	beq.w	8005626 <_svfiprintf_r+0x1c6>
 80054d8:	9a09      	ldr	r2, [sp, #36]	@ 0x24
 80054da:	445a      	add	r2, fp
 80054dc:	9209      	str	r2, [sp, #36]	@ 0x24
 80054de:	f89a 3000 	ldrb.w	r3, [sl]
 80054e2:	2b00      	cmp	r3, #0
 80054e4:	f000 809f 	beq.w	8005626 <_svfiprintf_r+0x1c6>
 80054e8:	2300      	movs	r3, #0
 80054ea:	f04f 32ff 	mov.w	r2, #4294967295
 80054ee:	e9cd 2305 	strd	r2, r3, [sp, #20]
 80054f2:	f10a 0a01 	add.w	sl, sl, #1
 80054f6:	9304      	str	r3, [sp, #16]
 80054f8:	9307      	str	r3, [sp, #28]
 80054fa:	f88d 3053 	strb.w	r3, [sp, #83]	@ 0x53
 80054fe:	931a      	str	r3, [sp, #104]	@ 0x68
 8005500:	4654      	mov	r4, sl
 8005502:	2205      	movs	r2, #5
 8005504:	f814 1b01 	ldrb.w	r1, [r4], #1
 8005508:	484e      	ldr	r0, [pc, #312]	@ (8005644 <_svfiprintf_r+0x1e4>)
 800550a:	f7fa fe69 	bl	80001e0 <memchr>
 800550e:	9a04      	ldr	r2, [sp, #16]
 8005510:	b9d8      	cbnz	r0, 800554a <_svfiprintf_r+0xea>
 8005512:	06d0      	lsls	r0, r2, #27
 8005514:	bf44      	itt	mi
 8005516:	2320      	movmi	r3, #32
 8005518:	f88d 3053 	strbmi.w	r3, [sp, #83]	@ 0x53
 800551c:	0711      	lsls	r1, r2, #28
 800551e:	bf44      	itt	mi
 8005520:	232b      	movmi	r3, #43	@ 0x2b
 8005522:	f88d 3053 	strbmi.w	r3, [sp, #83]	@ 0x53
 8005526:	f89a 3000 	ldrb.w	r3, [sl]
 800552a:	2b2a      	cmp	r3, #42	@ 0x2a
 800552c:	d015      	beq.n	800555a <_svfiprintf_r+0xfa>
 800552e:	9a07      	ldr	r2, [sp, #28]
 8005530:	4654      	mov	r4, sl
 8005532:	2000      	movs	r0, #0
 8005534:	f04f 0c0a 	mov.w	ip, #10
 8005538:	4621      	mov	r1, r4
 800553a:	f811 3b01 	ldrb.w	r3, [r1], #1
 800553e:	3b30      	subs	r3, #48	@ 0x30
 8005540:	2b09      	cmp	r3, #9
 8005542:	d94b      	bls.n	80055dc <_svfiprintf_r+0x17c>
 8005544:	b1b0      	cbz	r0, 8005574 <_svfiprintf_r+0x114>
 8005546:	9207      	str	r2, [sp, #28]
 8005548:	e014      	b.n	8005574 <_svfiprintf_r+0x114>
 800554a:	eba0 0308 	sub.w	r3, r0, r8
 800554e:	fa09 f303 	lsl.w	r3, r9, r3
 8005552:	4313      	orrs	r3, r2
 8005554:	9304      	str	r3, [sp, #16]
 8005556:	46a2      	mov	sl, r4
 8005558:	e7d2      	b.n	8005500 <_svfiprintf_r+0xa0>
 800555a:	9b03      	ldr	r3, [sp, #12]
 800555c:	1d19      	adds	r1, r3, #4
 800555e:	681b      	ldr	r3, [r3, #0]
 8005560:	9103      	str	r1, [sp, #12]
 8005562:	2b00      	cmp	r3, #0
 8005564:	bfbb      	ittet	lt
 8005566:	425b      	neglt	r3, r3
 8005568:	f042 0202 	orrlt.w	r2, r2, #2
 800556c:	9307      	strge	r3, [sp, #28]
 800556e:	9307      	strlt	r3, [sp, #28]
 8005570:	bfb8      	it	lt
 8005572:	9204      	strlt	r2, [sp, #16]
 8005574:	7823      	ldrb	r3, [r4, #0]
 8005576:	2b2e      	cmp	r3, #46	@ 0x2e
 8005578:	d10a      	bne.n	8005590 <_svfiprintf_r+0x130>
 800557a:	7863      	ldrb	r3, [r4, #1]
 800557c:	2b2a      	cmp	r3, #42	@ 0x2a
 800557e:	d132      	bne.n	80055e6 <_svfiprintf_r+0x186>
 8005580:	9b03      	ldr	r3, [sp, #12]
 8005582:	1d1a      	adds	r2, r3, #4
 8005584:	681b      	ldr	r3, [r3, #0]
 8005586:	9203      	str	r2, [sp, #12]
 8005588:	ea43 73e3 	orr.w	r3, r3, r3, asr #31
 800558c:	3402      	adds	r4, #2
 800558e:	9305      	str	r3, [sp, #20]
 8005590:	f8df a0c0 	ldr.w	sl, [pc, #192]	@ 8005654 <_svfiprintf_r+0x1f4>
 8005594:	7821      	ldrb	r1, [r4, #0]
 8005596:	2203      	movs	r2, #3
 8005598:	4650      	mov	r0, sl
 800559a:	f7fa fe21 	bl	80001e0 <memchr>
 800559e:	b138      	cbz	r0, 80055b0 <_svfiprintf_r+0x150>
 80055a0:	9b04      	ldr	r3, [sp, #16]
 80055a2:	eba0 000a 	sub.w	r0, r0, sl
 80055a6:	2240      	movs	r2, #64	@ 0x40
 80055a8:	4082      	lsls	r2, r0
 80055aa:	4313      	orrs	r3, r2
 80055ac:	3401      	adds	r4, #1
 80055ae:	9304      	str	r3, [sp, #16]
 80055b0:	f814 1b01 	ldrb.w	r1, [r4], #1
 80055b4:	4824      	ldr	r0, [pc, #144]	@ (8005648 <_svfiprintf_r+0x1e8>)
 80055b6:	f88d 1028 	strb.w	r1, [sp, #40]	@ 0x28
 80055ba:	2206      	movs	r2, #6
 80055bc:	f7fa fe10 	bl	80001e0 <memchr>
 80055c0:	2800      	cmp	r0, #0
 80055c2:	d036      	beq.n	8005632 <_svfiprintf_r+0x1d2>
 80055c4:	4b21      	ldr	r3, [pc, #132]	@ (800564c <_svfiprintf_r+0x1ec>)
 80055c6:	bb1b      	cbnz	r3, 8005610 <_svfiprintf_r+0x1b0>
 80055c8:	9b03      	ldr	r3, [sp, #12]
 80055ca:	3307      	adds	r3, #7
 80055cc:	f023 0307 	bic.w	r3, r3, #7
 80055d0:	3308      	adds	r3, #8
 80055d2:	9303      	str	r3, [sp, #12]
 80055d4:	9b09      	ldr	r3, [sp, #36]	@ 0x24
 80055d6:	4433      	add	r3, r6
 80055d8:	9309      	str	r3, [sp, #36]	@ 0x24
 80055da:	e76a      	b.n	80054b2 <_svfiprintf_r+0x52>
 80055dc:	fb0c 3202 	mla	r2, ip, r2, r3
 80055e0:	460c      	mov	r4, r1
 80055e2:	2001      	movs	r0, #1
 80055e4:	e7a8      	b.n	8005538 <_svfiprintf_r+0xd8>
 80055e6:	2300      	movs	r3, #0
 80055e8:	3401      	adds	r4, #1
 80055ea:	9305      	str	r3, [sp, #20]
 80055ec:	4619      	mov	r1, r3
 80055ee:	f04f 0c0a 	mov.w	ip, #10
 80055f2:	4620      	mov	r0, r4
 80055f4:	f810 2b01 	ldrb.w	r2, [r0], #1
 80055f8:	3a30      	subs	r2, #48	@ 0x30
 80055fa:	2a09      	cmp	r2, #9
 80055fc:	d903      	bls.n	8005606 <_svfiprintf_r+0x1a6>
 80055fe:	2b00      	cmp	r3, #0
 8005600:	d0c6      	beq.n	8005590 <_svfiprintf_r+0x130>
 8005602:	9105      	str	r1, [sp, #20]
 8005604:	e7c4      	b.n	8005590 <_svfiprintf_r+0x130>
 8005606:	fb0c 2101 	mla	r1, ip, r1, r2
 800560a:	4604      	mov	r4, r0
 800560c:	2301      	movs	r3, #1
 800560e:	e7f0      	b.n	80055f2 <_svfiprintf_r+0x192>
 8005610:	ab03      	add	r3, sp, #12
 8005612:	9300      	str	r3, [sp, #0]
 8005614:	462a      	mov	r2, r5
 8005616:	4b0e      	ldr	r3, [pc, #56]	@ (8005650 <_svfiprintf_r+0x1f0>)
 8005618:	a904      	add	r1, sp, #16
 800561a:	4638      	mov	r0, r7
 800561c:	f3af 8000 	nop.w
 8005620:	1c42      	adds	r2, r0, #1
 8005622:	4606      	mov	r6, r0
 8005624:	d1d6      	bne.n	80055d4 <_svfiprintf_r+0x174>
 8005626:	89ab      	ldrh	r3, [r5, #12]
 8005628:	065b      	lsls	r3, r3, #25
 800562a:	f53f af2d 	bmi.w	8005488 <_svfiprintf_r+0x28>
 800562e:	9809      	ldr	r0, [sp, #36]	@ 0x24
 8005630:	e72c      	b.n	800548c <_svfiprintf_r+0x2c>
 8005632:	ab03      	add	r3, sp, #12
 8005634:	9300      	str	r3, [sp, #0]
 8005636:	462a      	mov	r2, r5
 8005638:	4b05      	ldr	r3, [pc, #20]	@ (8005650 <_svfiprintf_r+0x1f0>)
 800563a:	a904      	add	r1, sp, #16
 800563c:	4638      	mov	r0, r7
 800563e:	f000 f879 	bl	8005734 <_printf_i>
 8005642:	e7ed      	b.n	8005620 <_svfiprintf_r+0x1c0>
 8005644:	08006703 	.word	0x08006703
 8005648:	0800670d 	.word	0x0800670d
 800564c:	00000000 	.word	0x00000000
 8005650:	080053a9 	.word	0x080053a9
 8005654:	08006709 	.word	0x08006709

08005658 <_printf_common>:
 8005658:	e92d 47f0 	stmdb	sp!, {r4, r5, r6, r7, r8, r9, sl, lr}
 800565c:	4616      	mov	r6, r2
 800565e:	4698      	mov	r8, r3
 8005660:	688a      	ldr	r2, [r1, #8]
 8005662:	690b      	ldr	r3, [r1, #16]
 8005664:	f8dd 9020 	ldr.w	r9, [sp, #32]
 8005668:	4293      	cmp	r3, r2
 800566a:	bfb8      	it	lt
 800566c:	4613      	movlt	r3, r2
 800566e:	6033      	str	r3, [r6, #0]
 8005670:	f891 2043 	ldrb.w	r2, [r1, #67]	@ 0x43
 8005674:	4607      	mov	r7, r0
 8005676:	460c      	mov	r4, r1
 8005678:	b10a      	cbz	r2, 800567e <_printf_common+0x26>
 800567a:	3301      	adds	r3, #1
 800567c:	6033      	str	r3, [r6, #0]
 800567e:	6823      	ldr	r3, [r4, #0]
 8005680:	0699      	lsls	r1, r3, #26
 8005682:	bf42      	ittt	mi
 8005684:	6833      	ldrmi	r3, [r6, #0]
 8005686:	3302      	addmi	r3, #2
 8005688:	6033      	strmi	r3, [r6, #0]
 800568a:	6825      	ldr	r5, [r4, #0]
 800568c:	f015 0506 	ands.w	r5, r5, #6
 8005690:	d106      	bne.n	80056a0 <_printf_common+0x48>
 8005692:	f104 0a19 	add.w	sl, r4, #25
 8005696:	68e3      	ldr	r3, [r4, #12]
 8005698:	6832      	ldr	r2, [r6, #0]
 800569a:	1a9b      	subs	r3, r3, r2
 800569c:	42ab      	cmp	r3, r5
 800569e:	dc26      	bgt.n	80056ee <_printf_common+0x96>
 80056a0:	f894 3043 	ldrb.w	r3, [r4, #67]	@ 0x43
 80056a4:	6822      	ldr	r2, [r4, #0]
 80056a6:	3b00      	subs	r3, #0
 80056a8:	bf18      	it	ne
 80056aa:	2301      	movne	r3, #1
 80056ac:	0692      	lsls	r2, r2, #26
 80056ae:	d42b      	bmi.n	8005708 <_printf_common+0xb0>
 80056b0:	f104 0243 	add.w	r2, r4, #67	@ 0x43
 80056b4:	4641      	mov	r1, r8
 80056b6:	4638      	mov	r0, r7
 80056b8:	47c8      	blx	r9
 80056ba:	3001      	adds	r0, #1
 80056bc:	d01e      	beq.n	80056fc <_printf_common+0xa4>
 80056be:	6823      	ldr	r3, [r4, #0]
 80056c0:	6922      	ldr	r2, [r4, #16]
 80056c2:	f003 0306 	and.w	r3, r3, #6
 80056c6:	2b04      	cmp	r3, #4
 80056c8:	bf02      	ittt	eq
 80056ca:	68e5      	ldreq	r5, [r4, #12]
 80056cc:	6833      	ldreq	r3, [r6, #0]
 80056ce:	1aed      	subeq	r5, r5, r3
 80056d0:	68a3      	ldr	r3, [r4, #8]
 80056d2:	bf0c      	ite	eq
 80056d4:	ea25 75e5 	biceq.w	r5, r5, r5, asr #31
 80056d8:	2500      	movne	r5, #0
 80056da:	4293      	cmp	r3, r2
 80056dc:	bfc4      	itt	gt
 80056de:	1a9b      	subgt	r3, r3, r2
 80056e0:	18ed      	addgt	r5, r5, r3
 80056e2:	2600      	movs	r6, #0
 80056e4:	341a      	adds	r4, #26
 80056e6:	42b5      	cmp	r5, r6
 80056e8:	d11a      	bne.n	8005720 <_printf_common+0xc8>
 80056ea:	2000      	movs	r0, #0
 80056ec:	e008      	b.n	8005700 <_printf_common+0xa8>
 80056ee:	2301      	movs	r3, #1
 80056f0:	4652      	mov	r2, sl
 80056f2:	4641      	mov	r1, r8
 80056f4:	4638      	mov	r0, r7
 80056f6:	47c8      	blx	r9
 80056f8:	3001      	adds	r0, #1
 80056fa:	d103      	bne.n	8005704 <_printf_common+0xac>
 80056fc:	f04f 30ff 	mov.w	r0, #4294967295
 8005700:	e8bd 87f0 	ldmia.w	sp!, {r4, r5, r6, r7, r8, r9, sl, pc}
 8005704:	3501      	adds	r5, #1
 8005706:	e7c6      	b.n	8005696 <_printf_common+0x3e>
 8005708:	18e1      	adds	r1, r4, r3
 800570a:	1c5a      	adds	r2, r3, #1
 800570c:	2030      	movs	r0, #48	@ 0x30
 800570e:	f881 0043 	strb.w	r0, [r1, #67]	@ 0x43
 8005712:	4422      	add	r2, r4
 8005714:	f894 1045 	ldrb.w	r1, [r4, #69]	@ 0x45
 8005718:	f882 1043 	strb.w	r1, [r2, #67]	@ 0x43
 800571c:	3302      	adds	r3, #2
 800571e:	e7c7      	b.n	80056b0 <_printf_common+0x58>
 8005720:	2301      	movs	r3, #1
 8005722:	4622      	mov	r2, r4
 8005724:	4641      	mov	r1, r8
 8005726:	4638      	mov	r0, r7
 8005728:	47c8      	blx	r9
 800572a:	3001      	adds	r0, #1
 800572c:	d0e6      	beq.n	80056fc <_printf_common+0xa4>
 800572e:	3601      	adds	r6, #1
 8005730:	e7d9      	b.n	80056e6 <_printf_common+0x8e>
	...

08005734 <_printf_i>:
 8005734:	e92d 47ff 	stmdb	sp!, {r0, r1, r2, r3, r4, r5, r6, r7, r8, r9, sl, lr}
 8005738:	7e0f      	ldrb	r7, [r1, #24]
 800573a:	9e0c      	ldr	r6, [sp, #48]	@ 0x30
 800573c:	2f78      	cmp	r7, #120	@ 0x78
 800573e:	4691      	mov	r9, r2
 8005740:	4680      	mov	r8, r0
 8005742:	460c      	mov	r4, r1
 8005744:	469a      	mov	sl, r3
 8005746:	f101 0243 	add.w	r2, r1, #67	@ 0x43
 800574a:	d807      	bhi.n	800575c <_printf_i+0x28>
 800574c:	2f62      	cmp	r7, #98	@ 0x62
 800574e:	d80a      	bhi.n	8005766 <_printf_i+0x32>
 8005750:	2f00      	cmp	r7, #0
 8005752:	f000 80d2 	beq.w	80058fa <_printf_i+0x1c6>
 8005756:	2f58      	cmp	r7, #88	@ 0x58
 8005758:	f000 80b9 	beq.w	80058ce <_printf_i+0x19a>
 800575c:	f104 0642 	add.w	r6, r4, #66	@ 0x42
 8005760:	f884 7042 	strb.w	r7, [r4, #66]	@ 0x42
 8005764:	e03a      	b.n	80057dc <_printf_i+0xa8>
 8005766:	f1a7 0363 	sub.w	r3, r7, #99	@ 0x63
 800576a:	2b15      	cmp	r3, #21
 800576c:	d8f6      	bhi.n	800575c <_printf_i+0x28>
 800576e:	a101      	add	r1, pc, #4	@ (adr r1, 8005774 <_printf_i+0x40>)
 8005770:	f851 f023 	ldr.w	pc, [r1, r3, lsl #2]
 8005774:	080057cd 	.word	0x080057cd
 8005778:	080057e1 	.word	0x080057e1
 800577c:	0800575d 	.word	0x0800575d
 8005780:	0800575d 	.word	0x0800575d
 8005784:	0800575d 	.word	0x0800575d
 8005788:	0800575d 	.word	0x0800575d
 800578c:	080057e1 	.word	0x080057e1
 8005790:	0800575d 	.word	0x0800575d
 8005794:	0800575d 	.word	0x0800575d
 8005798:	0800575d 	.word	0x0800575d
 800579c:	0800575d 	.word	0x0800575d
 80057a0:	080058e1 	.word	0x080058e1
 80057a4:	0800580b 	.word	0x0800580b
 80057a8:	0800589b 	.word	0x0800589b
 80057ac:	0800575d 	.word	0x0800575d
 80057b0:	0800575d 	.word	0x0800575d
 80057b4:	08005903 	.word	0x08005903
 80057b8:	0800575d 	.word	0x0800575d
 80057bc:	0800580b 	.word	0x0800580b
 80057c0:	0800575d 	.word	0x0800575d
 80057c4:	0800575d 	.word	0x0800575d
 80057c8:	080058a3 	.word	0x080058a3
 80057cc:	6833      	ldr	r3, [r6, #0]
 80057ce:	1d1a      	adds	r2, r3, #4
 80057d0:	681b      	ldr	r3, [r3, #0]
 80057d2:	6032      	str	r2, [r6, #0]
 80057d4:	f104 0642 	add.w	r6, r4, #66	@ 0x42
 80057d8:	f884 3042 	strb.w	r3, [r4, #66]	@ 0x42
 80057dc:	2301      	movs	r3, #1
 80057de:	e09d      	b.n	800591c <_printf_i+0x1e8>
 80057e0:	6833      	ldr	r3, [r6, #0]
 80057e2:	6820      	ldr	r0, [r4, #0]
 80057e4:	1d19      	adds	r1, r3, #4
 80057e6:	6031      	str	r1, [r6, #0]
 80057e8:	0606      	lsls	r6, r0, #24
 80057ea:	d501      	bpl.n	80057f0 <_printf_i+0xbc>
 80057ec:	681d      	ldr	r5, [r3, #0]
 80057ee:	e003      	b.n	80057f8 <_printf_i+0xc4>
 80057f0:	0645      	lsls	r5, r0, #25
 80057f2:	d5fb      	bpl.n	80057ec <_printf_i+0xb8>
 80057f4:	f9b3 5000 	ldrsh.w	r5, [r3]
 80057f8:	2d00      	cmp	r5, #0
 80057fa:	da03      	bge.n	8005804 <_printf_i+0xd0>
 80057fc:	232d      	movs	r3, #45	@ 0x2d
 80057fe:	426d      	negs	r5, r5
 8005800:	f884 3043 	strb.w	r3, [r4, #67]	@ 0x43
 8005804:	4859      	ldr	r0, [pc, #356]	@ (800596c <_printf_i+0x238>)
 8005806:	230a      	movs	r3, #10
 8005808:	e011      	b.n	800582e <_printf_i+0xfa>
 800580a:	6821      	ldr	r1, [r4, #0]
 800580c:	6833      	ldr	r3, [r6, #0]
 800580e:	0608      	lsls	r0, r1, #24
 8005810:	f853 5b04 	ldr.w	r5, [r3], #4
 8005814:	d402      	bmi.n	800581c <_printf_i+0xe8>
 8005816:	0649      	lsls	r1, r1, #25
 8005818:	bf48      	it	mi
 800581a:	b2ad      	uxthmi	r5, r5
 800581c:	2f6f      	cmp	r7, #111	@ 0x6f
 800581e:	4853      	ldr	r0, [pc, #332]	@ (800596c <_printf_i+0x238>)
 8005820:	6033      	str	r3, [r6, #0]
 8005822:	bf14      	ite	ne
 8005824:	230a      	movne	r3, #10
 8005826:	2308      	moveq	r3, #8
 8005828:	2100      	movs	r1, #0
 800582a:	f884 1043 	strb.w	r1, [r4, #67]	@ 0x43
 800582e:	6866      	ldr	r6, [r4, #4]
 8005830:	60a6      	str	r6, [r4, #8]
 8005832:	2e00      	cmp	r6, #0
 8005834:	bfa2      	ittt	ge
 8005836:	6821      	ldrge	r1, [r4, #0]
 8005838:	f021 0104 	bicge.w	r1, r1, #4
 800583c:	6021      	strge	r1, [r4, #0]
 800583e:	b90d      	cbnz	r5, 8005844 <_printf_i+0x110>
 8005840:	2e00      	cmp	r6, #0
 8005842:	d04b      	beq.n	80058dc <_printf_i+0x1a8>
 8005844:	4616      	mov	r6, r2
 8005846:	fbb5 f1f3 	udiv	r1, r5, r3
 800584a:	fb03 5711 	mls	r7, r3, r1, r5
 800584e:	5dc7      	ldrb	r7, [r0, r7]
 8005850:	f806 7d01 	strb.w	r7, [r6, #-1]!
 8005854:	462f      	mov	r7, r5
 8005856:	42bb      	cmp	r3, r7
 8005858:	460d      	mov	r5, r1
 800585a:	d9f4      	bls.n	8005846 <_printf_i+0x112>
 800585c:	2b08      	cmp	r3, #8
 800585e:	d10b      	bne.n	8005878 <_printf_i+0x144>
 8005860:	6823      	ldr	r3, [r4, #0]
 8005862:	07df      	lsls	r7, r3, #31
 8005864:	d508      	bpl.n	8005878 <_printf_i+0x144>
 8005866:	6923      	ldr	r3, [r4, #16]
 8005868:	6861      	ldr	r1, [r4, #4]
 800586a:	4299      	cmp	r1, r3
 800586c:	bfde      	ittt	le
 800586e:	2330      	movle	r3, #48	@ 0x30
 8005870:	f806 3c01 	strble.w	r3, [r6, #-1]
 8005874:	f106 36ff 	addle.w	r6, r6, #4294967295
 8005878:	1b92      	subs	r2, r2, r6
 800587a:	6122      	str	r2, [r4, #16]
 800587c:	f8cd a000 	str.w	sl, [sp]
 8005880:	464b      	mov	r3, r9
 8005882:	aa03      	add	r2, sp, #12
 8005884:	4621      	mov	r1, r4
 8005886:	4640      	mov	r0, r8
 8005888:	f7ff fee6 	bl	8005658 <_printf_common>
 800588c:	3001      	adds	r0, #1
 800588e:	d14a      	bne.n	8005926 <_printf_i+0x1f2>
 8005890:	f04f 30ff 	mov.w	r0, #4294967295
 8005894:	b004      	add	sp, #16
 8005896:	e8bd 87f0 	ldmia.w	sp!, {r4, r5, r6, r7, r8, r9, sl, pc}
 800589a:	6823      	ldr	r3, [r4, #0]
 800589c:	f043 0320 	orr.w	r3, r3, #32
 80058a0:	6023      	str	r3, [r4, #0]
 80058a2:	4833      	ldr	r0, [pc, #204]	@ (8005970 <_printf_i+0x23c>)
 80058a4:	2778      	movs	r7, #120	@ 0x78
 80058a6:	f884 7045 	strb.w	r7, [r4, #69]	@ 0x45
 80058aa:	6823      	ldr	r3, [r4, #0]
 80058ac:	6831      	ldr	r1, [r6, #0]
 80058ae:	061f      	lsls	r7, r3, #24
 80058b0:	f851 5b04 	ldr.w	r5, [r1], #4
 80058b4:	d402      	bmi.n	80058bc <_printf_i+0x188>
 80058b6:	065f      	lsls	r7, r3, #25
 80058b8:	bf48      	it	mi
 80058ba:	b2ad      	uxthmi	r5, r5
 80058bc:	6031      	str	r1, [r6, #0]
 80058be:	07d9      	lsls	r1, r3, #31
 80058c0:	bf44      	itt	mi
 80058c2:	f043 0320 	orrmi.w	r3, r3, #32
 80058c6:	6023      	strmi	r3, [r4, #0]
 80058c8:	b11d      	cbz	r5, 80058d2 <_printf_i+0x19e>
 80058ca:	2310      	movs	r3, #16
 80058cc:	e7ac      	b.n	8005828 <_printf_i+0xf4>
 80058ce:	4827      	ldr	r0, [pc, #156]	@ (800596c <_printf_i+0x238>)
 80058d0:	e7e9      	b.n	80058a6 <_printf_i+0x172>
 80058d2:	6823      	ldr	r3, [r4, #0]
 80058d4:	f023 0320 	bic.w	r3, r3, #32
 80058d8:	6023      	str	r3, [r4, #0]
 80058da:	e7f6      	b.n	80058ca <_printf_i+0x196>
 80058dc:	4616      	mov	r6, r2
 80058de:	e7bd      	b.n	800585c <_printf_i+0x128>
 80058e0:	6833      	ldr	r3, [r6, #0]
 80058e2:	6825      	ldr	r5, [r4, #0]
 80058e4:	6961      	ldr	r1, [r4, #20]
 80058e6:	1d18      	adds	r0, r3, #4
 80058e8:	6030      	str	r0, [r6, #0]
 80058ea:	062e      	lsls	r6, r5, #24
 80058ec:	681b      	ldr	r3, [r3, #0]
 80058ee:	d501      	bpl.n	80058f4 <_printf_i+0x1c0>
 80058f0:	6019      	str	r1, [r3, #0]
 80058f2:	e002      	b.n	80058fa <_printf_i+0x1c6>
 80058f4:	0668      	lsls	r0, r5, #25
 80058f6:	d5fb      	bpl.n	80058f0 <_printf_i+0x1bc>
 80058f8:	8019      	strh	r1, [r3, #0]
 80058fa:	2300      	movs	r3, #0
 80058fc:	6123      	str	r3, [r4, #16]
 80058fe:	4616      	mov	r6, r2
 8005900:	e7bc      	b.n	800587c <_printf_i+0x148>
 8005902:	6833      	ldr	r3, [r6, #0]
 8005904:	1d1a      	adds	r2, r3, #4
 8005906:	6032      	str	r2, [r6, #0]
 8005908:	681e      	ldr	r6, [r3, #0]
 800590a:	6862      	ldr	r2, [r4, #4]
 800590c:	2100      	movs	r1, #0
 800590e:	4630      	mov	r0, r6
 8005910:	f7fa fc66 	bl	80001e0 <memchr>
 8005914:	b108      	cbz	r0, 800591a <_printf_i+0x1e6>
 8005916:	1b80      	subs	r0, r0, r6
 8005918:	6060      	str	r0, [r4, #4]
 800591a:	6863      	ldr	r3, [r4, #4]
 800591c:	6123      	str	r3, [r4, #16]
 800591e:	2300      	movs	r3, #0
 8005920:	f884 3043 	strb.w	r3, [r4, #67]	@ 0x43
 8005924:	e7aa      	b.n	800587c <_printf_i+0x148>
 8005926:	6923      	ldr	r3, [r4, #16]
 8005928:	4632      	mov	r2, r6
 800592a:	4649      	mov	r1, r9
 800592c:	4640      	mov	r0, r8
 800592e:	47d0      	blx	sl
 8005930:	3001      	adds	r0, #1
 8005932:	d0ad      	beq.n	8005890 <_printf_i+0x15c>
 8005934:	6823      	ldr	r3, [r4, #0]
 8005936:	079b      	lsls	r3, r3, #30
 8005938:	d413      	bmi.n	8005962 <_printf_i+0x22e>
 800593a:	68e0      	ldr	r0, [r4, #12]
 800593c:	9b03      	ldr	r3, [sp, #12]
 800593e:	4298      	cmp	r0, r3
 8005940:	bfb8      	it	lt
 8005942:	4618      	movlt	r0, r3
 8005944:	e7a6      	b.n	8005894 <_printf_i+0x160>
 8005946:	2301      	movs	r3, #1
 8005948:	4632      	mov	r2, r6
 800594a:	4649      	mov	r1, r9
 800594c:	4640      	mov	r0, r8
 800594e:	47d0      	blx	sl
 8005950:	3001      	adds	r0, #1
 8005952:	d09d      	beq.n	8005890 <_printf_i+0x15c>
 8005954:	3501      	adds	r5, #1
 8005956:	68e3      	ldr	r3, [r4, #12]
 8005958:	9903      	ldr	r1, [sp, #12]
 800595a:	1a5b      	subs	r3, r3, r1
 800595c:	42ab      	cmp	r3, r5
 800595e:	dcf2      	bgt.n	8005946 <_printf_i+0x212>
 8005960:	e7eb      	b.n	800593a <_printf_i+0x206>
 8005962:	2500      	movs	r5, #0
 8005964:	f104 0619 	add.w	r6, r4, #25
 8005968:	e7f5      	b.n	8005956 <_printf_i+0x222>
 800596a:	bf00      	nop
 800596c:	08006714 	.word	0x08006714
 8005970:	08006725 	.word	0x08006725

08005974 <memmove>:
 8005974:	4288      	cmp	r0, r1
 8005976:	b510      	push	{r4, lr}
 8005978:	eb01 0402 	add.w	r4, r1, r2
 800597c:	d902      	bls.n	8005984 <memmove+0x10>
 800597e:	4284      	cmp	r4, r0
 8005980:	4623      	mov	r3, r4
 8005982:	d807      	bhi.n	8005994 <memmove+0x20>
 8005984:	1e43      	subs	r3, r0, #1
 8005986:	42a1      	cmp	r1, r4
 8005988:	d008      	beq.n	800599c <memmove+0x28>
 800598a:	f811 2b01 	ldrb.w	r2, [r1], #1
 800598e:	f803 2f01 	strb.w	r2, [r3, #1]!
 8005992:	e7f8      	b.n	8005986 <memmove+0x12>
 8005994:	4402      	add	r2, r0
 8005996:	4601      	mov	r1, r0
 8005998:	428a      	cmp	r2, r1
 800599a:	d100      	bne.n	800599e <memmove+0x2a>
 800599c:	bd10      	pop	{r4, pc}
 800599e:	f813 4d01 	ldrb.w	r4, [r3, #-1]!
 80059a2:	f802 4d01 	strb.w	r4, [r2, #-1]!
 80059a6:	e7f7      	b.n	8005998 <memmove+0x24>

080059a8 <_sbrk_r>:
 80059a8:	b538      	push	{r3, r4, r5, lr}
 80059aa:	4d06      	ldr	r5, [pc, #24]	@ (80059c4 <_sbrk_r+0x1c>)
 80059ac:	2300      	movs	r3, #0
 80059ae:	4604      	mov	r4, r0
 80059b0:	4608      	mov	r0, r1
 80059b2:	602b      	str	r3, [r5, #0]
 80059b4:	f7ff fb54 	bl	8005060 <_sbrk>
 80059b8:	1c43      	adds	r3, r0, #1
 80059ba:	d102      	bne.n	80059c2 <_sbrk_r+0x1a>
 80059bc:	682b      	ldr	r3, [r5, #0]
 80059be:	b103      	cbz	r3, 80059c2 <_sbrk_r+0x1a>
 80059c0:	6023      	str	r3, [r4, #0]
 80059c2:	bd38      	pop	{r3, r4, r5, pc}
 80059c4:	200016bc 	.word	0x200016bc

080059c8 <memcpy>:
 80059c8:	440a      	add	r2, r1
 80059ca:	4291      	cmp	r1, r2
 80059cc:	f100 33ff 	add.w	r3, r0, #4294967295
 80059d0:	d100      	bne.n	80059d4 <memcpy+0xc>
 80059d2:	4770      	bx	lr
 80059d4:	b510      	push	{r4, lr}
 80059d6:	f811 4b01 	ldrb.w	r4, [r1], #1
 80059da:	f803 4f01 	strb.w	r4, [r3, #1]!
 80059de:	4291      	cmp	r1, r2
 80059e0:	d1f9      	bne.n	80059d6 <memcpy+0xe>
 80059e2:	bd10      	pop	{r4, pc}

080059e4 <_realloc_r>:
 80059e4:	e92d 41f0 	stmdb	sp!, {r4, r5, r6, r7, r8, lr}
 80059e8:	4680      	mov	r8, r0
 80059ea:	4615      	mov	r5, r2
 80059ec:	460c      	mov	r4, r1
 80059ee:	b921      	cbnz	r1, 80059fa <_realloc_r+0x16>
 80059f0:	e8bd 41f0 	ldmia.w	sp!, {r4, r5, r6, r7, r8, lr}
 80059f4:	4611      	mov	r1, r2
 80059f6:	f7ff bc4b 	b.w	8005290 <_malloc_r>
 80059fa:	b92a      	cbnz	r2, 8005a08 <_realloc_r+0x24>
 80059fc:	f7ff fbdc 	bl	80051b8 <_free_r>
 8005a00:	2400      	movs	r4, #0
 8005a02:	4620      	mov	r0, r4
 8005a04:	e8bd 81f0 	ldmia.w	sp!, {r4, r5, r6, r7, r8, pc}
 8005a08:	f000 f81a 	bl	8005a40 <_malloc_usable_size_r>
 8005a0c:	4285      	cmp	r5, r0
 8005a0e:	4606      	mov	r6, r0
 8005a10:	d802      	bhi.n	8005a18 <_realloc_r+0x34>
 8005a12:	ebb5 0f50 	cmp.w	r5, r0, lsr #1
 8005a16:	d8f4      	bhi.n	8005a02 <_realloc_r+0x1e>
 8005a18:	4629      	mov	r1, r5
 8005a1a:	4640      	mov	r0, r8
 8005a1c:	f7ff fc38 	bl	8005290 <_malloc_r>
 8005a20:	4607      	mov	r7, r0
 8005a22:	2800      	cmp	r0, #0
 8005a24:	d0ec      	beq.n	8005a00 <_realloc_r+0x1c>
 8005a26:	42b5      	cmp	r5, r6
 8005a28:	462a      	mov	r2, r5
 8005a2a:	4621      	mov	r1, r4
 8005a2c:	bf28      	it	cs
 8005a2e:	4632      	movcs	r2, r6
 8005a30:	f7ff ffca 	bl	80059c8 <memcpy>
 8005a34:	4621      	mov	r1, r4
 8005a36:	4640      	mov	r0, r8
 8005a38:	f7ff fbbe 	bl	80051b8 <_free_r>
 8005a3c:	463c      	mov	r4, r7
 8005a3e:	e7e0      	b.n	8005a02 <_realloc_r+0x1e>

08005a40 <_malloc_usable_size_r>:
 8005a40:	f851 3c04 	ldr.w	r3, [r1, #-4]
 8005a44:	1f18      	subs	r0, r3, #4
 8005a46:	2b00      	cmp	r3, #0
 8005a48:	bfbc      	itt	lt
 8005a4a:	580b      	ldrlt	r3, [r1, r0]
 8005a4c:	18c0      	addlt	r0, r0, r3
 8005a4e:	4770      	bx	lr

08005a50 <_init>:
 8005a50:	b5f8      	push	{r3, r4, r5, r6, r7, lr}
 8005a52:	bf00      	nop
 8005a54:	bcf8      	pop	{r3, r4, r5, r6, r7}
 8005a56:	bc08      	pop	{r3}
 8005a58:	469e      	mov	lr, r3
 8005a5a:	4770      	bx	lr

08005a5c <_fini>:
 8005a5c:	b5f8      	push	{r3, r4, r5, r6, r7, lr}
 8005a5e:	bf00      	nop
 8005a60:	bcf8      	pop	{r3, r4, r5, r6, r7}
 8005a62:	bc08      	pop	{r3}
 8005a64:	469e      	mov	lr, r3
 8005a66:	4770      	bx	lr
